
C:/VSD_Sqd_Project/sifive_hifive1_BitNet_MNIST_App/src/debug/main.elf:     file format elf32-littleriscv
C:/VSD_Sqd_Project/sifive_hifive1_BitNet_MNIST_App/src/debug/main.elf
architecture: riscv:rv32, flags 0x00000112:
EXEC_P, HAS_SYMS, D_PAGED
start address 0x20100000

Program Header:
0x70000003 off    0x0004440c vaddr 0x00000000 paddr 0x00000000 align 2**0
         filesz 0x0000004d memsz 0x00000000 flags r--
    LOAD off    0x00001000 vaddr 0x20100000 paddr 0x20100000 align 2**12
         filesz 0x00009574 memsz 0x00009574 flags rwx
    LOAD off    0x00011000 vaddr 0x80000000 paddr 0x2010fbb8 align 2**12
         filesz 0x00000a94 memsz 0x00000a94 flags rw-
     TLS off    0x00000000 vaddr 0x00000000 paddr 0x00000000 align 2**2
         filesz 0x00000000 memsz 0x00000000 flags ---
    LOAD off    0x00000a98 vaddr 0x80000a98 paddr 0x80000a98 align 2**12
         filesz 0x00000000 memsz 0x00000de8 flags rw-
    LOAD off    0x00000134 vaddr 0x00000000 paddr 0x00000000 align 2**12
         filesz 0x00000000 memsz 0x00000000 flags ---
    LOAD off    0x0000a580 vaddr 0x20109580 paddr 0x20109580 align 2**12
         filesz 0x00006636 memsz 0x00006636 flags r-x
    LOAD off    0x00000134 vaddr 0x00000000 paddr 0x00000000 align 2**12
         filesz 0x00000000 memsz 0x00000000 flags ---

Sections:
Idx Name              Size      VMA       LMA       File off  Algn  Flags
  0 .init             000002c4  20100000  20100000  00001000  2**4  CONTENTS, ALLOC, LOAD, READONLY, CODE
  1 .init_array       0000000c  201002c8  201002c8  000012c8  2**3  CONTENTS, ALLOC, LOAD, DATA
  2 .ctors            0000007a  201002d4  201002d4  000012d4  2**1  CONTENTS, ALLOC, LOAD, READONLY, CODE
  3 .rodata           00009224  20100350  20100350  00001350  2**4  CONTENTS, ALLOC, LOAD, READONLY, DATA
  4 .text             00006636  20109580  20109580  0000a580  2**7  CONTENTS, ALLOC, LOAD, READONLY, CODE
  5 .data             00000a94  80000000  2010fbb8  00011000  2**3  CONTENTS, ALLOC, LOAD, DATA
  6 .bss              000001e0  80000a98  80000a98  00011a98  2**3  ALLOC
  7 .stack            00000400  80000c80  80000c80  00011a98  2**4  ALLOC
  8 .heap             00000800  80001080  80001080  00011a98  2**3  ALLOC
  9 .debug_info       0001e70e  00000000  00000000  00011a94  2**0  CONTENTS, READONLY, DEBUGGING, OCTETS
 10 .debug_abbrev     00002c9a  00000000  00000000  000301a2  2**0  CONTENTS, READONLY, DEBUGGING, OCTETS
 11 .debug_aranges    00000b88  00000000  00000000  00032e40  2**3  CONTENTS, READONLY, DEBUGGING, OCTETS
 12 .debug_ranges     00000990  00000000  00000000  000339c8  2**3  CONTENTS, READONLY, DEBUGGING, OCTETS
 13 .debug_line       0000b174  00000000  00000000  00034358  2**0  CONTENTS, READONLY, DEBUGGING, OCTETS
 14 .debug_str        00004f1b  00000000  00000000  0003f4cc  2**0  CONTENTS, READONLY, DEBUGGING, OCTETS
 15 .comment          00000025  00000000  00000000  000443e7  2**0  CONTENTS, READONLY
 16 .riscv.attributes 0000004d  00000000  00000000  0004440c  2**0  CONTENTS, READONLY
 17 .debug_frame      00002e50  00000000  00000000  0004445c  2**2  CONTENTS, READONLY, DEBUGGING, OCTETS
SYMBOL TABLE:
20100000 l    d  .init	00000000 .init
201002c8 l    d  .init_array	00000000 .init_array
201002d4 l    d  .ctors	00000000 .ctors
20100350 l    d  .rodata	00000000 .rodata
20109580 l    d  .text	00000000 .text
80000000 l    d  .data	00000000 .data
80000a98 l    d  .bss	00000000 .bss
80000c80 l    d  .stack	00000000 .stack
80001080 l    d  .heap	00000000 .heap
00000000 l    d  .debug_info	00000000 .debug_info
00000000 l    d  .debug_abbrev	00000000 .debug_abbrev
00000000 l    d  .debug_aranges	00000000 .debug_aranges
00000000 l    d  .debug_ranges	00000000 .debug_ranges
00000000 l    d  .debug_line	00000000 .debug_line
00000000 l    d  .debug_str	00000000 .debug_str
00000000 l    d  .comment	00000000 .comment
00000000 l    d  .riscv.attributes	00000000 .riscv.attributes
00000000 l    d  .debug_frame	00000000 .debug_frame
00000000 l    df *ABS*	00000000 entry.o
00000000 l    df *ABS*	00000000 scrub.o
201000c0 l     F .init	00000000 __metal_memory_scrub
2010012e l       .init	00000000 skip_scrub
00000000 l    df *ABS*	00000000 trap.o
00000000 l    df *ABS*	00000000 synchronize_harts.c
00000000 l    df *ABS*	00000000 crt0.o
20100240 l       .init	00000000 _skip_init
201089e0 l       .rodata	00000000 argv
201089e4 l       .rodata	00000000 envp
201089e8 l       .rodata	00000000 name
00000000 l    df *ABS*	00000000 tty.c
00000000 l    df *ABS*	00000000 sifive_fe310-g000_pll.c
2010e19e l     F .text	0000001a __metal_driver_sifive_fe310_g000_pll_pllsel0
2010e1b8 l     F .text	0000001a __metal_driver_sifive_fe310_g000_pll_pllref
2010e1d2 l     F .text	00000016 __metal_driver_sifive_fe310_g000_pll_divider_base
2010e1e8 l     F .text	00000014 __metal_driver_sifive_fe310_g000_pll_divider_offset
2010e1fc l     F .text	00000012 __metal_driver_sifive_fe310_g000_pll_config_base
2010e20e l     F .text	00000010 __metal_driver_sifive_fe310_g000_pll_config_offset
2010e21e l     F .text	00000016 __metal_driver_sifive_fe310_g000_pll_init_rate
2010e234 l     F .text	00000012 __metal_driver_sifive_fe310_g000_prci_base
2010e246 l     F .text	00000016 __metal_driver_sifive_fe310_g000_prci_vtable
20108be4 l     O .rodata	00000880 pll_configs
2010e25c l     F .text	0000004e get_pll_config_freq
2010e4c0 l     F .text	000000aa find_closest_config
2010e56a l     F .text	000001b0 configure_pll
00000000 l    df *ABS*	00000000 main.c
00000000 l    df *ABS*	00000000 mnist_model_params.c
00000000 l    df *ABS*	00000000 nano-vfprintf.c
2010a2b2 l     F .text	00000028 __sfputc_r
00000000 l    df *ABS*	00000000 nano-vfprintf_i.c
00000000 l    df *ABS*	00000000 riscv_clint0.c
2010b584 l     F .text	0000002a __metal_driver_sifive_clint0_control_base
2010b5ae l     F .text	00000028 __metal_driver_sifive_clint0_num_interrupts
2010b5d6 l     F .text	0000003c __metal_driver_sifive_clint0_interrupt_parents
2010b612 l     F .text	00000030 __metal_driver_sifive_clint0_interrupt_lines
2010b772 l     F .text	00000036 _get_cpu_intc
00000000 l    df *ABS*	00000000 riscv_cpu.c
2010bcb4 l     F .text	00000024 __metal_driver_cpu_hartid
2010bcd8 l     F .text	0000002a __metal_driver_cpu_timebase
2010bd02 l     F .text	0000002a __metal_driver_cpu_interrupt_controller
2010bd2c l     F .text	00000024 __metal_driver_cpu_buserror
00000000 l    df *ABS*	00000000 riscv_plic0.c
2010d6f0 l     F .text	0000002a __metal_driver_sifive_plic0_control_base
2010d71a l     F .text	0000002a __metal_driver_sifive_plic0_num_interrupts
2010d744 l     F .text	00000028 __metal_driver_sifive_plic0_max_priority
2010d76c l     F .text	00000028 __metal_driver_sifive_plic0_interrupt_parents
2010d794 l     F .text	00000022 __metal_driver_sifive_plic0_interrupt_lines
2010d7b6 l     F .text	0000001e __metal_driver_sifive_plic0_context_ids
00000000 l    df *ABS*	00000000 sifive_gpio0.c
2010e8f8 l     F .text	00000026 __metal_driver_sifive_gpio0_base
2010e91e l     F .text	0000002a __metal_driver_sifive_gpio0_interrupt_parent
2010e948 l     F .text	000001b4 __metal_driver_sifive_gpio0_interrupt_lines
00000000 l    df *ABS*	00000000 sifive_uart0.c
2010f1ac l     F .text	0000002a __metal_driver_sifive_uart0_control_base
2010f1d6 l     F .text	0000002e __metal_driver_sifive_uart0_interrupt_parent
2010f204 l     F .text	00000028 __metal_driver_sifive_uart0_interrupt_line
2010f22c l     F .text	0000002e __metal_driver_sifive_uart0_clock
2010f25a l     F .text	0000002a __metal_driver_sifive_uart0_pinmux
2010f284 l     F .text	00000028 __metal_driver_sifive_uart0_pinmux_output_selector
2010f2ac l     F .text	0000002a __metal_driver_sifive_uart0_pinmux_source_selector
2010f676 l     F .text	000000da pre_rate_change_callback_func
2010f750 l     F .text	00000030 post_rate_change_callback_func
00000000 l    df *ABS*	00000000 sifive_fe310-g000_hfrosc.c
2010dfae l     F .text	0000001a __metal_driver_sifive_fe310_g000_hfrosc_ref
2010dfc8 l     F .text	00000016 __metal_driver_sifive_fe310_g000_hfrosc_config_base
2010dfde l     F .text	00000014 __metal_driver_sifive_fe310_g000_hfrosc_config_offset
2010dff2 l     F .text	00000016 __metal_driver_sifive_fe310_g000_prci_vtable
00000000 l    df *ABS*	00000000 sifive_fe310-g000_hfxosc.c
2010e0ae l     F .text	0000001a __metal_driver_sifive_fe310_g000_hfxosc_ref
2010e0c8 l     F .text	00000016 __metal_driver_sifive_fe310_g000_hfxosc_config_base
2010e0de l     F .text	00000014 __metal_driver_sifive_fe310_g000_hfxosc_config_offset
2010e0f2 l     F .text	00000016 __metal_driver_sifive_fe310_g000_prci_vtable
00000000 l    df *ABS*	00000000 sifive_fe310-g000_prci.c
2010e880 l     F .text	00000012 __metal_driver_sifive_fe310_g000_prci_base
00000000 l    df *ABS*	00000000 fixed-clock.c
2010fb00 l     F .text	00000062 __metal_driver_fixed_clock_rate
00000000 l    df *ABS*	00000000 printf.c
00000000 l    df *ABS*	00000000 putchar.c
00000000 l    df *ABS*	00000000 puts.c
00000000 l    df *ABS*	00000000 wbuf.c
00000000 l    df *ABS*	00000000 wsetup.c
00000000 l    df *ABS*	00000000 freer.c
00000000 l    df *ABS*	00000000 mallocr.c
2010a12c l     F .text	0000005e sbrk_aligned
00000000 l    df *ABS*	00000000 mlock.c
00000000 l    df *ABS*	00000000 fflush.c
00000000 l    df *ABS*	00000000 findfp.c
2010aa66 l     F .text	00000068 std
2010aace l     F .text	0000001a stdio_exit_handler
2010aae8 l     F .text	00000046 cleanup_stdio
2010ab2e l     F .text	0000003e global_stdio_init.part.0
00000000 l    df *ABS*	00000000 fwalk.c
00000000 l    df *ABS*	00000000 makebuf.c
00000000 l    df *ABS*	00000000 putc.c
00000000 l    df *ABS*	00000000 stdio.c
00000000 l    df *ABS*	00000000 memchr.c
00000000 l    df *ABS*	00000000 closer.c
00000000 l    df *ABS*	00000000 fstatr.c
00000000 l    df *ABS*	00000000 isattyr.c
00000000 l    df *ABS*	00000000 lseekr.c
00000000 l    df *ABS*	00000000 readr.c
00000000 l    df *ABS*	00000000 sbrkr.c
00000000 l    df *ABS*	00000000 writer.c
00000000 l    df *ABS*	00000000 libc_a-memset.o
00000000 l    df *ABS*	00000000 sys_close.c
00000000 l    df *ABS*	00000000 sys_fstat.c
00000000 l    df *ABS*	00000000 sys_isatty.c
00000000 l    df *ABS*	00000000 sys_lseek.c
00000000 l    df *ABS*	00000000 sys_read.c
00000000 l    df *ABS*	00000000 sys_sbrk.c
80000a74 l     O .data	00000004 __brk
00000000 l    df *ABS*	00000000 sys_write.c
00000000 l    df *ABS*	00000000 atexit.c
00000000 l    df *ABS*	00000000 exit.c
00000000 l    df *ABS*	00000000 errno.c
00000000 l    df *ABS*	00000000 init.c
00000000 l    df *ABS*	00000000 fini.c
00000000 l    df *ABS*	00000000 __atexit.c
00000000 l    df *ABS*	00000000 __call_atexit.c
00000000 l    df *ABS*	00000000 init.c
80000aac l     O .bss	00000004 init_done.1
80000ab0 l     O .bss	00000004 fini_done.0
00000000 l    df *ABS*	00000000 uart.c
00000000 l    df *ABS*	00000000 clock.c
00000000 l    df *ABS*	00000000 cpu.c
00000000 l    df *ABS*	00000000 shutdown.c
00000000 l    df *ABS*	00000000 vector.o
2010fa80 l       .text	00000000 IRQ_0
2010fa84 l       .text	00000000 IRQ_1
2010fa88 l       .text	00000000 IRQ_2
2010fa8c l       .text	00000000 IRQ_3
2010fa90 l       .text	00000000 IRQ_4
2010fa94 l       .text	00000000 IRQ_5
2010fa98 l       .text	00000000 IRQ_6
2010fa9c l       .text	00000000 IRQ_7
2010faa0 l       .text	00000000 IRQ_8
2010faa4 l       .text	00000000 IRQ_9
2010faa8 l       .text	00000000 IRQ_10
2010faac l       .text	00000000 IRQ_11
2010fab0 l       .text	00000000 IRQ_12
2010fab4 l       .text	00000000 IRQ_13
2010fab8 l       .text	00000000 IRQ_14
2010fabc l       .text	00000000 IRQ_15
2010fac0 l       .text	00000000 IRQ_LC0
2010fac4 l       .text	00000000 IRQ_LC1
2010fac8 l       .text	00000000 IRQ_LC2
2010facc l       .text	00000000 IRQ_LC3
2010fad0 l       .text	00000000 IRQ_LC4
2010fad4 l       .text	00000000 IRQ_LC5
2010fad8 l       .text	00000000 IRQ_LC6
2010fadc l       .text	00000000 IRQ_LC7
2010fae0 l       .text	00000000 IRQ_LC8
2010fae4 l       .text	00000000 IRQ_LC9
2010fae8 l       .text	00000000 IRQ_LC10
2010faec l       .text	00000000 IRQ_LC11
2010faf0 l       .text	00000000 IRQ_LC12
2010faf4 l       .text	00000000 IRQ_LC13
2010faf8 l       .text	00000000 IRQ_LC14
2010fafc l       .text	00000000 IRQ_LC15
00000000 l    df *ABS*	00000000 sys_exit.c
00000000 l    df *ABS*	00000000 impure.c
00000000 l    df *ABS*	00000000 inline.c
201002d4 l       .init_array	00000000 metal_constructors_end
201002d8 l       .init_array	00000000 __fini_array_end
201002d8 l       .init_array	00000000 metal_destructors_end
201002d8 l       .init_array	00000000 metal_destructors_start
201002d8 l       .init_array	00000000 __fini_array_start
201002c8 l       .init_array	00000000 __init_array_end
201002c8 l       .init_array	00000000 __preinit_array_end
201002c8 l       .init_array	00000000 __init_array_start
201002c8 l       .init_array	00000000 metal_constructors_start
201002c8 l       .init_array	00000000 __preinit_array_start
20109e62 g     F .text	00000010 putchar
201094ec g     O .rodata	00000040 __metal_driver_vtable_sifive_uart0
201070c8 g     O .rodata	00000310 input_data_2
2010ae6c g     F .text	0000002e _isatty_r
2010c5d2  w    F .text	00000096 metal_lc4_interrupt_vector_handler
20109e72 g     F .text	000000a4 _puts_r
2010ae9a g     F .text	00000032 _lseek_r
2010f8e8 g     F .text	00000026 metal_clock_get_rate_hz
2010f5d6 g     F .text	000000a0 __metal_driver_sifive_uart0_set_baud_rate
2010b94e g     F .text	00000054 __metal_driver_riscv_clint0_set_vector_mode
2010f42a g     F .text	0000004a __metal_driver_sifive_uart0_set_tx_watermark
2010c53c  w    F .text	00000096 metal_lc3_interrupt_vector_handler
2010cde4 g     F .text	00000056 __metal_valid_interrupt_id
20109e36 g     F .text	0000002c printf
201002d0 g     O .init_array	00000004 _use_hfxosc_ptr
2010d260 g     F .text	0000001c __metal_driver_riscv_cpu_controller_get_vector_mode
80001270 g       .data	00000000 __global_pointer$
201002d4 g     F .ctors	00000024 metal_tty_init
2010f894 g     F .text	00000054 _metal_clock_append_to_callbacks
2010d810 g     F .text	00000046 __metal_plic0_complete_interrupt
2010d026 g     F .text	000001e2 __metal_driver_riscv_cpu_controller_interrupt_register
2010954f g     O .rodata	00000001 label_7
201002cc g     O .init_array	00000004 _metal_sifive_fe310_g000_pll_init_ptr
2010adb8 g     F .text	00000036 __sseek
2010ab6c g     F .text	0000001c __sinit
20109f22 g     F .text	0000009c __swbuf_r
80000a98 g       .data	00000000 __tls_base
2010a2b0 g     F .text	00000002 __malloc_unlock
2010f9e4 g     F .text	0000002e metal_cpu_get
80000a28 g     O .data	00000020 __metal_dt_serial_10013000
2010ed86 g     F .text	0000004a __metal_driver_sifive_gpio0_disable_io
201089f4 g     O .rodata	00000064 __metal_driver_vtable_riscv_clint0
80000c78 g       .bss	00000000 metal_segment_bss_target_end
2010b642 g     F .text	0000009a __metal_clint0_mtime_get
2010d664 g     F .text	0000002e __metal_driver_cpu_get_instruction_length
2010954a g     O .rodata	00000001 label_2
00000001 g       *ABS*	00000000 __metal_chicken_bit
2010f4ee g     F .text	00000030 __metal_driver_sifive_uart0_get_rx_watermark
2010eb3c g     F .text	00000046 __metal_driver_sifive_gpio0_disable_input
2010b1e0 g     F .text	0000000a __errno
80000000 g       .rodata	00000000 metal_segment_itim_target_start
2010f3fa g     F .text	00000030 __metal_driver_sifive_uart0_txready
2010f388 g     F .text	0000003a __metal_driver_sifive_uart0_rx_interrupt_enable
80000aa0 g     O .bss	00000004 __stdio_exit_handler
20100142 g     F .init	0000000e __metal_synchronize_harts
80000a98 g       .data	00000000 metal_segment_bss_target_start
2010b6dc g     F .text	00000096 __metal_driver_riscv_clint0_mtimecmp_set
2010ae3c g     F .text	00000030 _fstat_r
2010efd6 g     F .text	00000188 __metal_driver_sifive_gpio0_clear_int
80000aa4 g     O .bss	00000004 errno
2010e34e g     F .text	00000172 __metal_driver_sifive_fe310_g000_pll_get_rate_hz
00000400 g       *ABS*	00000000 __stack_size
20109534 g     O .rodata	00000004 L1_outgoing_weights
2010f95a g     F .text	00000032 metal_clock_register_pre_rate_change_callback
20109530 g     O .rodata	00000004 L1_incoming_weights
2010c8c0  w    F .text	00000096 metal_lc9_interrupt_vector_handler
201000cc  w    F .init	00000000 __metal_before_start
2010b4ae  w    F .text	00000014 metal_init_run
20108b80 g     O .rodata	00000064 __metal_driver_vtable_riscv_plic0
20108b3c g     O .rodata	00000044 __metal_driver_vtable_cpu
2010b556 g     F .text	0000002e metal_uart_set_baud_rate
2010f780 g     F .text	000000d2 __metal_driver_sifive_uart0_init
00000000 g       *ABS*	00000000 __metal_eccscrub_bit
2010d2ec g     F .text	00000070 __metal_driver_cpu_mcycle_get
20109464 g     O .rodata	0000000c __metal_driver_vtable_sifive_fe310_g000_pll
80001080 g       .heap	00000000 metal_segment_heap_target_start
80000a84 g     O .data	00000008 __metal_dt_cpu_0
2010c82a  w    F .text	00000096 metal_lc8_interrupt_vector_handler
2010e71a g     F .text	00000166 __metal_driver_sifive_fe310_g000_pll_set_rate_hz
2010df12 g     F .text	00000074 __metal_driver_riscv_plic0_affinity_set_threshold
20109f16 g     F .text	0000000c puts
2010cb18  w    F .text	00000096 metal_lc13_interrupt_vector_handler
2010bebe g     F .text	00000018 __metal_default_exception_handler
2010b028 g     F .text	00000026 _fstat
2010bc80 g     F .text	00000034 __metal_driver_riscv_clint0_set_interrupt
2010d27c g     F .text	00000054 __metal_driver_riscv_cpu_controller_set_vector_mode
2010bd50 g     F .text	00000030 __metal_driver_cpu_get
20108ad8 g     O .rodata	00000064 __metal_driver_vtable_riscv_cpu_intc
2010bdb2 g     F .text	00000018 __metal_interrupt_global_disable
2010954e g     O .rodata	00000001 label_6
2010df86 g     F .text	00000028 __metal_driver_riscv_plic0_affinity_get_threshold
2010c794  w    F .text	00000096 metal_lc7_interrupt_vector_handler
2010c956  w    F .text	00000096 metal_lc10_interrupt_vector_handler
2010aefe g     F .text	0000002e _sbrk_r
2010dd32 g     F .text	00000050 __metal_driver_riscv_plic0_disable
2010cef6 g     F .text	0000004e __metal_exception_register
2010b3be g     F .text	00000078 metal_init
2010aecc g     F .text	00000032 _read_r
2010d47e g     F .text	0000001a __metal_driver_cpu_timer_controller_interrupt
2010ec1e g     F .text	00000040 __metal_driver_sifive_gpio0_enable_output
80000000 g       .rodata	00000000 metal_segment_lim_target_end
2010bfae g     F .text	00000068 __metal_default_sw_handler
2010f98c g     F .text	00000032 metal_clock_register_post_rate_change_callback
80000064 g     O .data	0000000c __metal_dt_clock_2
2010f2d6 g     F .text	00000020 __metal_driver_sifive_uart0_interrupt_controller
2010b04e g     F .text	00000020 _isatty
2010ece4 g     F .text	00000040 __metal_driver_sifive_gpio0_output_toggle
20107d08 g     O .rodata	00000310 input_data_6
201073d8 g     O .rodata	00000310 input_data_3
2010f316 g     F .text	0000003a __metal_driver_sifive_uart0_tx_interrupt_enable
2010956c g     O .rodata	00000008 __metal_driver_vtable_fixed_clock
2010c016  w    F .text	00000092 metal_timer_interrupt_vector_handler
2010b1ea g     F .text	0000005e __libc_init_array
2010ec5e g     F .text	00000040 __metal_driver_sifive_gpio0_output_set
2010c9ec  w    F .text	00000096 metal_lc11_interrupt_vector_handler
2010e17c g     F .text	00000022 __metal_driver_sifive_fe310_g000_hfxosc_set_rate_hz
2010d208 g     F .text	0000002c __metal_driver_riscv_cpu_controller_interrupt_enable
2010b0c2 g     F .text	0000007e _sbrk
2010ebd8 g     F .text	00000046 __metal_driver_sifive_gpio0_disable_output
2010f852 g     F .text	00000042 _metal_clock_call_all_callbacks
201002a2 g     F .init	00000002 _init
2010be14 g     F .text	0000001a __metal_interrupt_timer_disable
2010edd0 g     F .text	00000206 __metal_driver_sifive_gpio0_config_int
20108018 g     O .rodata	00000310 input_data_7
2010d53c g     F .text	00000062 __metal_driver_cpu_clear_sw_ipi
201094b0 g     O .rodata	0000003c __metal_driver_vtable_sifive_gpio0
2010f350 g     F .text	00000038 __metal_driver_sifive_uart0_tx_interrupt_disable
2010ed24 g     F .text	00000062 __metal_driver_sifive_gpio0_enable_io
2010b248 g     F .text	00000036 __libc_fini_array
80000a60 g     O .data	0000000c __metal_dt_clock_4
201067a0 g     O .rodata	00000200 L2_weights
2010f15e g     F .text	00000020 __metal_driver_gpio_interrupt_controller
2010b436 g     F .text	00000078 metal_fini
2010d4c6 g     F .text	00000014 __metal_driver_cpu_get_sw_interrupt_id
2010d6d0 g     F .text	00000020 __metal_driver_cpu_get_buserror
80000000 g       .data	00000000 metal_segment_data_target_start
2010be66 g     F .text	0000002c __metal_interrupt_local_enable
2010bc4c g     F .text	00000034 __metal_driver_riscv_clint0_clear_interrupt
2010b4d6 g     F .text	00000026 metal_tty_putc
2010da0e g     F .text	00000018 __metal_plic0_default_handler
80000ab4 g     O .bss	00000138 __sf
2010b140  w    F .text	0000006e write
2010ace4 g     F .text	00000056 _putc_r
00000000 g       *ABS*	00000000 __tbss_size
80000058 g     O .data	0000000c __metal_dt_clock_0
2010953c g     O .rodata	00000004 L2_outgoing_weights
00000800 g       *ABS*	00000000 __heap_size
20109550 g     O .rodata	00000001 label_8
2010dd82 g     F .text	00000030 __metal_driver_riscv_plic0_set_threshold
2010c0a8 g     F .text	00000016 __metal_default_beu_handler
2010be4a g     F .text	0000001c __metal_interrupt_external_disable
2010f2f6 g     F .text	00000020 __metal_driver_sifive_uart0_get_interrupt_id
20109706 g     F .text	00000188 processfclayer
2010d2d0 g     F .text	0000001c __metal_driver_riscv_cpu_controller_command_request
2010cf44 g     F .text	000000e2 __metal_driver_riscv_cpu_controller_interrupt_init
2010a2da g     F .text	00000042 __sfputs_r
2010d61e g     F .text	00000046 __metal_driver_cpu_exception_register
2010bdca g     F .text	00000018 __metal_interrupt_software_enable
2010c410  w    F .text	00000096 metal_lc1_interrupt_vector_handler
2010adf4 g     F .text	0000001a memchr
2010a08a g     F .text	000000a2 _free_r
2010d8d6 g     F .text	00000062 __metal_driver_riscv_plic0_set_priority
2010ccda g     F .text	00000058 __metal_controller_interrupt_vector_mode
2010b2f6 g     F .text	000000c8 __call_exitprocs
80000bec g     O .bss	0000008c __atexit0
80001080 g       .stack	00000000 _sp
201002c8 g     O .init_array	00000004 _metal_tty_init_ptr
20100150 g     F .init	00000000 _start
201098c8 g     F .text	00000472 BitMnistInference
2010e008 g     F .text	00000084 __metal_driver_sifive_fe310_g000_hfrosc_get_rate_hz
2010b06e g     F .text	0000002a _lseek
2010d5fe g     F .text	00000020 __metal_driver_cpu_controller_interrupt
2010d692 g     F .text	0000001e __metal_driver_cpu_get_exception_pc
2010be2e g     F .text	0000001c __metal_interrupt_external_enable
2010b27e g     F .text	00000078 __register_exitproc
2010f51e g     F .text	00000042 __metal_driver_sifive_uart0_putc
201069a0 g     O .rodata	00000040 L2_biases
2010dac8 g     F .text	00000158 __metal_driver_riscv_plic0_init
2010dce2 g     F .text	00000050 __metal_driver_riscv_plic0_enable
2010ebac g     F .text	0000002c __metal_driver_sifive_gpio0_output
20106720 g     O .rodata	00000080 L1_biases
2010c6fe  w    F .text	00000096 metal_lc6_interrupt_vector_handler
2010bd80 g     F .text	0000001a __metal_myhart_id
2010f17e g     F .text	0000002e __metal_driver_gpio_get_interrupt_id
20109538 g     O .rodata	00000004 L2_incoming_weights
20109580 g     F .text	00000186 ReLUNorm
2010bf1c  w    F .text	00000092 metal_software_interrupt_vector_handler
2010954d g     O .rodata	00000001 label_5
2010d234 g     F .text	0000002c __metal_driver_riscv_cpu_controller_interrupt_disable
2010ae0e g     F .text	0000002e _close_r
2010f5b6 g     F .text	00000020 __metal_driver_sifive_uart0_get_baud_rate
2010b830 g     F .text	000000da __metal_driver_riscv_clint0_register
80000a7c g     O .data	00000008 __metal_dt_clint_2000000
20109549 g     O .rodata	00000001 label_1
20109fbe g     F .text	000000cc __swsetup_r
80000aa8 g     O .bss	00000004 __atexit
2010f90e g     F .text	0000004c metal_clock_set_rate_hz
2010ad3a g     F .text	00000030 __sread
2010eafc g     F .text	00000040 __metal_driver_sifive_gpio0_enable_input
201002a4  w    F .init	00000000 secondary_main
2010beee  w    F .text	0000002e metal_interrupt_vector_handler
2010a2ae g     F .text	00000002 __malloc_lock
2010f3c2 g     F .text	00000038 __metal_driver_sifive_uart0_rx_interrupt_disable
2010aa30 g     F .text	00000036 _fflush_r
2010d89c g     F .text	0000003a __metal_plic0_get_threshold
20109544 g     O .rodata	00000004 L3_outgoing_weights
2010e892 g     F .text	0000002e __metal_driver_sifive_fe310_g000_prci_get_reg
20108638 g     O .rodata	00000310 input_data_9
2010ce3a g     F .text	000000bc __metal_local_interrupt_enable
2010bb0c g     F .text	00000140 __metal_driver_riscv_clint0_command_request
2010af5e g     F .text	000000a8 memset
2010c668  w    F .text	00000096 metal_lc5_interrupt_vector_handler
20109d3a g     F .text	000000fc main
80000a98 g       .data	00000000 metal_segment_data_target_end
2010f4a4 g     F .text	0000004a __metal_driver_sifive_uart0_set_rx_watermark
20109554 g     O .rodata	00000008 __metal_driver_vtable_sifive_fe310_g000_hfrosc
2010d4da g     F .text	00000062 __metal_driver_cpu_set_sw_ipi
2010d59e g     F .text	00000060 __metal_driver_cpu_get_msip
2010fa2c g     F .text	0000000e metal_shutdown
80000000 g       .rodata	00000000 metal_segment_itim_target_end
2010d6b0 g     F .text	00000020 __metal_driver_cpu_set_exception_pc
2010d7d4 g     F .text	0000003c __metal_plic0_claim_interrupt
201076e8 g     O .rodata	00000310 input_data_4
2010f474 g     F .text	00000030 __metal_driver_sifive_uart0_get_tx_watermark
2010adee g     F .text	00000006 __sclose
2010ca82  w    F .text	00000096 metal_lc12_interrupt_vector_handler
2010008a g     F .init	00000000 metal_mem_scrub
2010a18a g     F .text	00000124 _malloc_r
2010b932 g     F .text	0000001c __metal_driver_riscv_clint0_get_vector_mode
20100520 g     O .rodata	00006200 L1_weights
20106db8 g     O .rodata	00000310 input_data_1
80000a90 g     O .data	00000004 __metal_dt_prci_10008000
2010d35c g     F .text	00000046 __metal_driver_cpu_timebase_get
2010de76 g     F .text	0000009c __metal_driver_riscv_plic0_affinity_disable
20100000 g       .init	00000000 _enter
2010fa12 g     F .text	0000001a metal_cpu_get_current_hartid
2010e108 g     F .text	00000074 __metal_driver_sifive_fe310_g000_hfxosc_get_rate_hz
2010fa80 g       .text	00000000 __metal_vector_table
20108328 g     O .rodata	00000310 input_data_8
20109578 g       *ABS*	00000000 metal_segment_itim_source_start
80000a78  w    O .data	00000004 __metal_cpu_table
80000080 g     O .data	000003d0 __metal_dt_cpu_0_interrupt_controller
201002a2 g     F .init	00000002 _fini
20109e36 g     F .text	0000002c iprintf
80000000 g       .rodata	00000000 metal_segment_lim_target_start
20109548 g     O .rodata	00000001 label_0
20109551 g     O .rodata	00000001 label_9
2010d938 g     F .text	00000034 __metal_driver_riscv_plic0_get_priority
2010988e g     F .text	0000003a display_banner
20106a80 g     O .rodata	00000028 L3_biases
20100324 g     F .ctors	0000002a use_hfxosc
2010bd9a g     F .text	00000018 __metal_interrupt_global_enable
2010b1ae g     F .text	0000000a atexit
2010af2c g     F .text	00000032 _write_r
2010bdfa g     F .text	0000001a __metal_interrupt_timer_enable
2010f560 g     F .text	00000056 __metal_driver_sifive_uart0_getc
2010ba54 g     F .text	000000b8 __metal_driver_riscv_clint0_disable
2010a582 g     F .text	00000110 _printf_common
80000a70 g     O .data	00000004 _impure_ptr
2010d408 g     F .text	00000076 __metal_driver_cpu_mtimecmp_set
2010a8f4 g     F .text	0000013c __sflush_r
2010ab88 g     F .text	00000068 _fwalk_sglue
2010ddb2 g     F .text	00000028 __metal_driver_riscv_plic0_get_threshold
2010e2aa g     F .text	000000a4 __metal_driver_sifive_fe310_g000_pll_init
80000070 g     O .data	0000000c __metal_dt_clock_5
2010954c g     O .rodata	00000001 label_4
2010e8c0 g     F .text	00000038 __metal_driver_sifive_fe310_g000_prci_set_reg
2010fb62 g     F .text	0000001e __metal_driver_fixed_clock_get_rate_hz
20106aa8 g     O .rodata	00000310 input_data_0
2010b9a2 g     F .text	000000b2 __metal_driver_riscv_clint0_enable
2010954b g     O .rodata	00000001 label_3
2010fbb8 g       *ABS*	00000000 metal_segment_data_source_start
20109540 g     O .rodata	00000004 L3_incoming_weights
20100134 g       .init	00000000 early_trap_vector
80001880 g       .heap	00000000 metal_segment_heap_target_end
2010cd32 g     F .text	000000b2 __metal_controller_interrupt_vector
80000a54 g     O .data	0000000c __metal_dt_clock_1
80000450 g     O .data	000005d8 __metal_dt_interrupt_controller_c000000
2010abf0 g     F .text	0000005a __swhatbuf_r
2010ec9e g     F .text	00000046 __metal_driver_sifive_gpio0_output_clear
8000004c g     O .data	0000000c __sglue
2010c0be g     F .text	00000066 __metal_default_timer_handler
2010b140 g     F .text	0000006e _write
2010da26 g     F .text	000000a2 __metal_plic0_handler
2010c4a6  w    F .text	00000096 metal_lc2_interrupt_vector_handler
2010cc44  w    F .text	00000096 metal_lc15_interrupt_vector_handler
2010f9be g     F .text	00000026 metal_cpu_interrupt_controller
2010ad6a g     F .text	0000004e __swrite
2010b1b8 g     F .text	00000028 exit
2010a31c g     F .text	00000266 _vfiprintf_r
201069e0 g     O .rodata	000000a0 L3_weights
80000000 g     O .data	0000004c _impure_data
2010fb80 g     F .text	00000022 __metal_driver_fixed_clock_set_rate_hz
20109578 g       *ABS*	00000000 metal_segment_lim_source_start
80000a8c g     O .data	00000004 __metal_dt_gpio_10012000
2010bed6 g     F .text	00000018 __metal_default_interrupt_handler
2010b528 g     F .text	0000002e metal_uart_putc
2010b098 g     F .text	0000002a _read
2010b4c2  w    F .text	00000014 metal_fini_run
2010eb82 g     F .text	0000002a __metal_driver_sifive_gpio0_input
2010c180 g     F .text	00000180 __metal_exception_handler
2010c37a  w    F .text	00000096 metal_lc0_interrupt_vector_handler
2010fba2 g     F .text	00000014 _exit
2010d3a2 g     F .text	00000066 __metal_driver_cpu_mtime_get
2010ac4a g     F .text	0000009a __smakebuf_r
2010b90a g     F .text	00000028 __metal_driver_riscv_clint0_vector_register
2010a692 g     F .text	00000262 _printf_i
80000a98 g     O .bss	00000004 __malloc_sbrk_start
2010cbae  w    F .text	00000096 metal_lc14_interrupt_vector_handler
2010955c g     O .rodata	00000008 __metal_driver_vtable_sifive_fe310_g000_hfxosc
2010b7a8 g     F .text	00000088 __metal_driver_riscv_clint0_init
80000a9c g     O .bss	00000004 __malloc_free_list
201002f8 g     F .ctors	0000002c metal_sifive_fe310_g000_pll_init
2010a31c g     F .text	00000266 _vfprintf_r
2010d498 g     F .text	00000014 __metal_driver_cpu_get_timer_interrupt_id
2010d96c g     F .text	000000a2 __metal_plic0_enable
20100088  w      .init	00000000 __register_frame_info
2010e08c g     F .text	00000022 __metal_driver_sifive_fe310_g000_hfrosc_set_rate_hz
2010d4ac g     F .text	0000001a __metal_driver_cpu_sw_controller_interrupt
2010be92 g     F .text	0000002c __metal_interrupt_local_disable
2010bde2 g     F .text	00000018 __metal_interrupt_software_disable
2010b4fc g     F .text	0000002c metal_uart_init
80000a48 g     O .data	0000000c __metal_dt_clock_3
201079f8 g     O .rodata	00000310 input_data_5
2010d856 g     F .text	00000046 __metal_plic0_set_threshold
2010ddda g     F .text	0000009c __metal_driver_riscv_plic0_affinity_enable
2010b006 g     F .text	00000022 _close
20109564 g     O .rodata	00000008 __metal_driver_vtable_sifive_fe310_g000_prci
00000000 g       *ABS*	00000000 __metal_boot_hart
2010dc20 g     F .text	000000c2 __metal_driver_riscv_plic0_register



Disassembly of section .init:

20100000 <_enter>:
_enter():
C:/VSD_Sqd_Project/sifive_hifive1_BitNet_MNIST_App/freedom-metal/src/entry.S:31
    auipc a0, %pcrel_hi(__global_pointer__)
    addi a0, a0, %pcrel_lo(1b)
    ld   gp, 0(a0)
    add  gp, gp, a0
#else
    la gp, __global_pointer$
20100000:	5ff01197          	auipc	gp,0x5ff01
20100004:	27018193          	add	gp,gp,624 # 80001270 <__global_pointer$>
C:/VSD_Sqd_Project/sifive_hifive1_BitNet_MNIST_App/freedom-metal/src/entry.S:36
#endif
.option pop

    /* trap over the chicken bit register clearing, aloe & fe310 dont have it */
    la t0, 1f
20100008:	00000297          	auipc	t0,0x0
2010000c:	01828293          	add	t0,t0,24 # 20100020 <_enter+0x20>
C:/VSD_Sqd_Project/sifive_hifive1_BitNet_MNIST_App/freedom-metal/src/entry.S:37
    csrw mtvec, t0
20100010:	30529073          	csrw	mtvec,t0
C:/VSD_Sqd_Project/sifive_hifive1_BitNet_MNIST_App/freedom-metal/src/entry.S:39
    /* chicken bit is enable if core are sifive series. */
    la t0, __metal_chicken_bit
20100014:	00100293          	li	t0,1
C:/VSD_Sqd_Project/sifive_hifive1_BitNet_MNIST_App/freedom-metal/src/entry.S:40
    beqz t0, 1f
20100018:	00028463          	beqz	t0,20100020 <_enter+0x20>
C:/VSD_Sqd_Project/sifive_hifive1_BitNet_MNIST_App/freedom-metal/src/entry.S:42
    /* If set, always clear the feature disable register for all cores series */
    csrwi 0x7C1, 0
2010001c:	7c105073          	csrw	0x7c1,0
C:/VSD_Sqd_Project/sifive_hifive1_BitNet_MNIST_App/freedom-metal/src/entry.S:47
.align 4
1:
    /* Set up a simple trap vector to catch anything that goes wrong early in
     * the boot process. */
    la t0, early_trap_vector
20100020:	00000297          	auipc	t0,0x0
20100024:	11428293          	add	t0,t0,276 # 20100134 <early_trap_vector>
C:/VSD_Sqd_Project/sifive_hifive1_BitNet_MNIST_App/freedom-metal/src/entry.S:48
    csrw mtvec, t0
20100028:	30529073          	csrw	mtvec,t0
C:/VSD_Sqd_Project/sifive_hifive1_BitNet_MNIST_App/freedom-metal/src/entry.S:56
     * C, so here we set up a C environment. First we set up a stack pointer,
     * which is left as a weak reference in order to allow initialization
     * routines that do not need a stack to be set up to transparently be
     * called. */
    .weak __metal_stack_pointer
    la sp, __metal_stack_pointer
2010002c:	00000113          	li	sp,0
C:/VSD_Sqd_Project/sifive_hifive1_BitNet_MNIST_App/freedom-metal/src/entry.S:63
   /* The METAL is designed for a bare-metal environment and therefore is expected
    * to define its own stack pointer. We also align the stack pointer here
    * because the only RISC-V ABI that's currently defined, mandates 16-byte
    * stack alignment. */

    bne sp, zero, 1f
20100030:	00011463          	bnez	sp,20100038 <_enter+0x38>
C:/VSD_Sqd_Project/sifive_hifive1_BitNet_MNIST_App/freedom-metal/src/entry.S:67
#ifdef __riscv_cmodel_compact
    lla.gprel sp, _sp
#else
    la sp, _sp
20100034:	e1018113          	add	sp,gp,-496 # 80001080 <_sp>
C:/VSD_Sqd_Project/sifive_hifive1_BitNet_MNIST_App/freedom-metal/src/entry.S:71
#endif
1:
    /* Increment by hartid number of stack sizes */
    csrr a0, mhartid
20100038:	f1402573          	csrr	a0,mhartid
C:/VSD_Sqd_Project/sifive_hifive1_BitNet_MNIST_App/freedom-metal/src/entry.S:72
    li t0, 0
2010003c:	4281                	li	t0,0
C:/VSD_Sqd_Project/sifive_hifive1_BitNet_MNIST_App/freedom-metal/src/entry.S:73
    la t1, __stack_size
2010003e:	40000313          	li	t1,1024
C:/VSD_Sqd_Project/sifive_hifive1_BitNet_MNIST_App/freedom-metal/src/entry.S:75
1:
    andi sp, sp, -16
20100042:	ff017113          	and	sp,sp,-16
C:/VSD_Sqd_Project/sifive_hifive1_BitNet_MNIST_App/freedom-metal/src/entry.S:76
    beq t0, a0, 1f
20100046:	00a28563          	beq	t0,a0,20100050 <_enter+0x50>
C:/VSD_Sqd_Project/sifive_hifive1_BitNet_MNIST_App/freedom-metal/src/entry.S:77
    add sp, sp, t1
2010004a:	911a                	add	sp,sp,t1
C:/VSD_Sqd_Project/sifive_hifive1_BitNet_MNIST_App/freedom-metal/src/entry.S:78
    addi t0, t0, 1
2010004c:	0285                	add	t0,t0,1
C:/VSD_Sqd_Project/sifive_hifive1_BitNet_MNIST_App/freedom-metal/src/entry.S:79
    j 1b
2010004e:	bfd5                	j	20100042 <_enter+0x42>
C:/VSD_Sqd_Project/sifive_hifive1_BitNet_MNIST_App/freedom-metal/src/entry.S:88
     * just skip over the call entirely.   Note that __metal_initialize isn't
     * actually a full C function, as it doesn't end up with the .bss or .data
     * segments having been initialized.  This is done to avoid putting a
     * burden on systems that can be initialized without having a C environment
     * set up. */
    la ra, __metal_before_start
20100050:	00000097          	auipc	ra,0x0
20100054:	07c08093          	add	ra,ra,124 # 201000cc <__metal_before_start>
C:/VSD_Sqd_Project/sifive_hifive1_BitNet_MNIST_App/freedom-metal/src/entry.S:89
    beqz ra, 1f
20100058:	00008363          	beqz	ra,2010005e <_enter+0x5e>
C:/VSD_Sqd_Project/sifive_hifive1_BitNet_MNIST_App/freedom-metal/src/entry.S:90
    jalr ra
2010005c:	9082                	jalr	ra
C:/VSD_Sqd_Project/sifive_hifive1_BitNet_MNIST_App/freedom-metal/src/entry.S:96
1:

    /* At this point we can enter the C runtime's startup file.  The arguments
     * to this function are designed to match those provided to the SEE, just
     * so we don't have to write another ABI. */
    csrr a0, mhartid
2010005e:	f1402573          	csrr	a0,mhartid
C:/VSD_Sqd_Project/sifive_hifive1_BitNet_MNIST_App/freedom-metal/src/entry.S:97
    li a1, 0
20100062:	4581                	li	a1,0
C:/VSD_Sqd_Project/sifive_hifive1_BitNet_MNIST_App/freedom-metal/src/entry.S:98
    li a2, 0
20100064:	4601                	li	a2,0
C:/VSD_Sqd_Project/sifive_hifive1_BitNet_MNIST_App/freedom-metal/src/entry.S:99
    call _start
20100066:	20ed                	jal	20100150 <_start>
C:/VSD_Sqd_Project/sifive_hifive1_BitNet_MNIST_App/freedom-metal/src/entry.S:104

    /* If we've made it back here then there's probably something wrong.  We
     * allow the METAL to register a handler here. */
    .weak __metal_after_main
    la ra, __metal_after_main
20100068:	00000093          	li	ra,0
C:/VSD_Sqd_Project/sifive_hifive1_BitNet_MNIST_App/freedom-metal/src/entry.S:105
    beqz ra, 1f
2010006c:	00008363          	beqz	ra,20100072 <_enter+0x72>
C:/VSD_Sqd_Project/sifive_hifive1_BitNet_MNIST_App/freedom-metal/src/entry.S:106
    jalr ra
20100070:	9082                	jalr	ra
C:/VSD_Sqd_Project/sifive_hifive1_BitNet_MNIST_App/freedom-metal/src/entry.S:111
1:

    /* If that handler returns then there's not a whole lot we can do.  Just
     * try to make some noise. */
     la t0, 1f
20100072:	00000297          	auipc	t0,0x0
20100076:	00c28293          	add	t0,t0,12 # 2010007e <_enter+0x7e>
C:/VSD_Sqd_Project/sifive_hifive1_BitNet_MNIST_App/freedom-metal/src/entry.S:112
     csrw mtvec, t0
2010007a:	30529073          	csrw	mtvec,t0
C:/VSD_Sqd_Project/sifive_hifive1_BitNet_MNIST_App/freedom-metal/src/entry.S:114
1:
     lw t1, 0(x0)
2010007e:	00002303          	lw	t1,0(zero) # 0 <__metal_boot_hart>
C:/VSD_Sqd_Project/sifive_hifive1_BitNet_MNIST_App/freedom-metal/src/entry.S:115
     j 1b
20100082:	bff5                	j	2010007e <_enter+0x7e>
20100084:	0000                	unimp
	...

20100088 <__register_frame_info>:
__register_frame_info():
C:/VSD_Sqd_Project/sifive_hifive1_BitNet_MNIST_App/freedom-metal/src/entry.S:128
 * going to leave this in for now.  At least it's fairly cheap :) */
.weak __register_frame_info
.section .text.metal.init.__register_frame_info
__register_frame_info:
    .cfi_startproc
    ret
20100088:	8082                	ret

2010008a <metal_mem_scrub>:
metal_mem_scrub():
C:/VSD_Sqd_Project/sifive_hifive1_BitNet_MNIST_App/freedom-metal/src/scrub.S:24
.type metal_mem_scrub, @function
metal_mem_scrub:

    /* Disable machine interrupts,
    restore previous mstatus value at exit */
    li      a3, 8
2010008a:	46a1                	li	a3,8
C:/VSD_Sqd_Project/sifive_hifive1_BitNet_MNIST_App/freedom-metal/src/scrub.S:25
    csrrc   t1, mstatus, a3
2010008c:	3006b373          	csrrc	t1,mstatus,a3
C:/VSD_Sqd_Project/sifive_hifive1_BitNet_MNIST_App/freedom-metal/src/scrub.S:28

#if __riscv_xlen == 32
    addi    t0, x0, 4
20100090:	4291                	li	t0,4
C:/VSD_Sqd_Project/sifive_hifive1_BitNet_MNIST_App/freedom-metal/src/scrub.S:30
1:
    blt     a1, t0, 2f
20100092:	0055c563          	blt	a1,t0,2010009c <metal_mem_scrub+0x12>
C:/VSD_Sqd_Project/sifive_hifive1_BitNet_MNIST_App/freedom-metal/src/scrub.S:31
    andi    a2, a0, 3
20100096:	00357613          	and	a2,a0,3
C:/VSD_Sqd_Project/sifive_hifive1_BitNet_MNIST_App/freedom-metal/src/scrub.S:32
    beqz    a2, 3f
2010009a:	ca11                	beqz	a2,201000ae <metal_mem_scrub+0x24>
C:/VSD_Sqd_Project/sifive_hifive1_BitNet_MNIST_App/freedom-metal/src/scrub.S:34
2:
    sb      x0, 0(a0)
2010009c:	00050023          	sb	zero,0(a0)
C:/VSD_Sqd_Project/sifive_hifive1_BitNet_MNIST_App/freedom-metal/src/scrub.S:35
    addi    a0, a0, 1
201000a0:	0505                	add	a0,a0,1
C:/VSD_Sqd_Project/sifive_hifive1_BitNet_MNIST_App/freedom-metal/src/scrub.S:36
    addi    a1, a1, -1
201000a2:	15fd                	add	a1,a1,-1
C:/VSD_Sqd_Project/sifive_hifive1_BitNet_MNIST_App/freedom-metal/src/scrub.S:37
    bgtz    a1, 1b
201000a4:	feb047e3          	bgtz	a1,20100092 <metal_mem_scrub+0x8>
C:/VSD_Sqd_Project/sifive_hifive1_BitNet_MNIST_App/freedom-metal/src/scrub.S:38
    csrw    mstatus, t1
201000a8:	30031073          	csrw	mstatus,t1
C:/VSD_Sqd_Project/sifive_hifive1_BitNet_MNIST_App/freedom-metal/src/scrub.S:39
    ret
201000ac:	8082                	ret
C:/VSD_Sqd_Project/sifive_hifive1_BitNet_MNIST_App/freedom-metal/src/scrub.S:41
3:
    sw      x0, 0(a0)
201000ae:	00052023          	sw	zero,0(a0)
C:/VSD_Sqd_Project/sifive_hifive1_BitNet_MNIST_App/freedom-metal/src/scrub.S:42
    addi    a0, a0, 4
201000b2:	0511                	add	a0,a0,4
C:/VSD_Sqd_Project/sifive_hifive1_BitNet_MNIST_App/freedom-metal/src/scrub.S:43
    addi    a1, a1, -4
201000b4:	15f1                	add	a1,a1,-4
C:/VSD_Sqd_Project/sifive_hifive1_BitNet_MNIST_App/freedom-metal/src/scrub.S:44
    bgtz    a1, 1b
201000b6:	fcb04ee3          	bgtz	a1,20100092 <metal_mem_scrub+0x8>
C:/VSD_Sqd_Project/sifive_hifive1_BitNet_MNIST_App/freedom-metal/src/scrub.S:45
    csrw    mstatus, t1
201000ba:	30031073          	csrw	mstatus,t1
C:/VSD_Sqd_Project/sifive_hifive1_BitNet_MNIST_App/freedom-metal/src/scrub.S:46
    ret
201000be:	8082                	ret

201000c0 <__metal_memory_scrub>:
__metal_memory_scrub():
C:/VSD_Sqd_Project/sifive_hifive1_BitNet_MNIST_App/freedom-metal/src/scrub.S:74
.type __metal_memory_scrub, @function
__metal_memory_scrub:
/* Zero out specified memory regions */
1:
#if __riscv_xlen == 32
    sw      x0, 0(t1)
201000c0:	00032023          	sw	zero,0(t1)
C:/VSD_Sqd_Project/sifive_hifive1_BitNet_MNIST_App/freedom-metal/src/scrub.S:75
    addi    t1, t1, 4
201000c4:	0311                	add	t1,t1,4
C:/VSD_Sqd_Project/sifive_hifive1_BitNet_MNIST_App/freedom-metal/src/scrub.S:76
    blt     t1, t2, 1b
201000c6:	fe734de3          	blt	t1,t2,201000c0 <__metal_memory_scrub>
C:/VSD_Sqd_Project/sifive_hifive1_BitNet_MNIST_App/freedom-metal/src/scrub.S:82
#else
    sd      x0, 0(t1)
    addi    t1, t1, 8
    blt     t1, t2, 1b
#endif
    ret
201000ca:	8082                	ret

201000cc <__metal_before_start>:
__metal_before_start():
C:/VSD_Sqd_Project/sifive_hifive1_BitNet_MNIST_App/freedom-metal/src/scrub.S:93
.weak __metal_eccscrub_bit
.weak __metal_before_start
.type __metal_before_start, @function
__metal_before_start:
    /* Save caller ra */
    mv      s0, ra
201000cc:	8406                	mv	s0,ra
C:/VSD_Sqd_Project/sifive_hifive1_BitNet_MNIST_App/freedom-metal/src/scrub.S:95

    la      t0, __metal_eccscrub_bit
201000ce:	dff00297          	auipc	t0,0xdff00
201000d2:	f3228293          	add	t0,t0,-206 # 0 <__metal_boot_hart>
C:/VSD_Sqd_Project/sifive_hifive1_BitNet_MNIST_App/freedom-metal/src/scrub.S:96
    beqz    t0, skip_scrub
201000d6:	04028c63          	beqz	t0,2010012e <skip_scrub>
C:/VSD_Sqd_Project/sifive_hifive1_BitNet_MNIST_App/freedom-metal/src/scrub.S:98

    la      t0, __metal_boot_hart
201000da:	dff00297          	auipc	t0,0xdff00
201000de:	f2628293          	add	t0,t0,-218 # 0 <__metal_boot_hart>
C:/VSD_Sqd_Project/sifive_hifive1_BitNet_MNIST_App/freedom-metal/src/scrub.S:99
    csrr    a5, mhartid
201000e2:	f14027f3          	csrr	a5,mhartid
C:/VSD_Sqd_Project/sifive_hifive1_BitNet_MNIST_App/freedom-metal/src/scrub.S:102

    /* Disable machine interrupts to be safe */
    li      a3, 8
201000e6:	46a1                	li	a3,8
C:/VSD_Sqd_Project/sifive_hifive1_BitNet_MNIST_App/freedom-metal/src/scrub.S:103
    csrc    mstatus, a3
201000e8:	3006b073          	csrc	mstatus,a3
C:/VSD_Sqd_Project/sifive_hifive1_BitNet_MNIST_App/freedom-metal/src/scrub.S:106

    /* Zero out per hart stack */
    mv      t1, sp
201000ec:	830a                	mv	t1,sp
C:/VSD_Sqd_Project/sifive_hifive1_BitNet_MNIST_App/freedom-metal/src/scrub.S:107
    la      t2, __stack_size
201000ee:	dff00397          	auipc	t2,0xdff00
201000f2:	31238393          	add	t2,t2,786 # 400 <__stack_size>
C:/VSD_Sqd_Project/sifive_hifive1_BitNet_MNIST_App/freedom-metal/src/scrub.S:108
    add     t2, t2, sp
201000f6:	938a                	add	t2,t2,sp
C:/VSD_Sqd_Project/sifive_hifive1_BitNet_MNIST_App/freedom-metal/src/scrub.S:109
    beq     t1, t2, 1f
201000f8:	00730363          	beq	t1,t2,201000fe <__metal_before_start+0x32>
C:/VSD_Sqd_Project/sifive_hifive1_BitNet_MNIST_App/freedom-metal/src/scrub.S:110
    jal     __metal_memory_scrub
201000fc:	37d1                	jal	201000c0 <__metal_memory_scrub>
C:/VSD_Sqd_Project/sifive_hifive1_BitNet_MNIST_App/freedom-metal/src/scrub.S:112
1:
    bne     a5, t0, skip_scrub
201000fe:	02579863          	bne	a5,t0,2010012e <skip_scrub>
C:/VSD_Sqd_Project/sifive_hifive1_BitNet_MNIST_App/freedom-metal/src/scrub.S:119
    /* Zero out data segment */
#ifdef __riscv_cmodel_compact
    lla.gprel t1, metal_segment_data_target_start
    lla.gprel t2, metal_segment_data_target_end
#else
    la      t1, metal_segment_data_target_start
20100102:	5ff00317          	auipc	t1,0x5ff00
20100106:	efe30313          	add	t1,t1,-258 # 80000000 <_impure_data>
C:/VSD_Sqd_Project/sifive_hifive1_BitNet_MNIST_App/freedom-metal/src/scrub.S:120
    la      t2, metal_segment_data_target_end
2010010a:	5ff01397          	auipc	t2,0x5ff01
2010010e:	98e38393          	add	t2,t2,-1650 # 80000a98 <__malloc_sbrk_start>
C:/VSD_Sqd_Project/sifive_hifive1_BitNet_MNIST_App/freedom-metal/src/scrub.S:122
#endif
    beq     t1, t2, 1f
20100112:	00730363          	beq	t1,t2,20100118 <__metal_before_start+0x4c>
C:/VSD_Sqd_Project/sifive_hifive1_BitNet_MNIST_App/freedom-metal/src/scrub.S:123
    jal     __metal_memory_scrub
20100116:	376d                	jal	201000c0 <__metal_memory_scrub>
C:/VSD_Sqd_Project/sifive_hifive1_BitNet_MNIST_App/freedom-metal/src/scrub.S:130
    /* Zero out itim memory */
#ifdef __riscv_cmodel_compact
    la.got.gprel t1, metal_segment_itim_target_start
    la.got.gprel t2, metal_segment_itim_target_end
#else
    la      t1, metal_segment_itim_target_start
20100118:	5ff00317          	auipc	t1,0x5ff00
2010011c:	ee830313          	add	t1,t1,-280 # 80000000 <_impure_data>
C:/VSD_Sqd_Project/sifive_hifive1_BitNet_MNIST_App/freedom-metal/src/scrub.S:131
    la      t2, metal_segment_itim_target_end
20100120:	5ff00397          	auipc	t2,0x5ff00
20100124:	ee038393          	add	t2,t2,-288 # 80000000 <_impure_data>
C:/VSD_Sqd_Project/sifive_hifive1_BitNet_MNIST_App/freedom-metal/src/scrub.S:133
#endif
    beq     t1, t2, skip_scrub
20100128:	00730363          	beq	t1,t2,2010012e <skip_scrub>
C:/VSD_Sqd_Project/sifive_hifive1_BitNet_MNIST_App/freedom-metal/src/scrub.S:134
    jal     __metal_memory_scrub
2010012c:	3f51                	jal	201000c0 <__metal_memory_scrub>

2010012e <skip_scrub>:
skip_scrub():
C:/VSD_Sqd_Project/sifive_hifive1_BitNet_MNIST_App/freedom-metal/src/scrub.S:138

skip_scrub:
    /* Restore caller ra */
    mv      ra, s0
2010012e:	80a2                	mv	ra,s0
C:/VSD_Sqd_Project/sifive_hifive1_BitNet_MNIST_App/freedom-metal/src/scrub.S:139
    ret
20100130:	8082                	ret
	...

20100134 <early_trap_vector>:
early_trap_vector():
C:/VSD_Sqd_Project/sifive_hifive1_BitNet_MNIST_App/freedom-metal/src/trap.S:64
.section .text.metal.init.trapvec
.global early_trap_vector
.align 2
early_trap_vector:
    .cfi_startproc
    csrr t0, mcause
20100134:	342022f3          	csrr	t0,mcause
C:/VSD_Sqd_Project/sifive_hifive1_BitNet_MNIST_App/freedom-metal/src/trap.S:65
    csrr t1, mepc
20100138:	34102373          	csrr	t1,mepc
C:/VSD_Sqd_Project/sifive_hifive1_BitNet_MNIST_App/freedom-metal/src/trap.S:66
    csrr t2, mtval
2010013c:	343023f3          	csrr	t2,mtval
C:/VSD_Sqd_Project/sifive_hifive1_BitNet_MNIST_App/freedom-metal/src/trap.S:67
    j early_trap_vector
20100140:	bfd5                	j	20100134 <early_trap_vector>

20100142 <__metal_synchronize_harts>:
__metal_synchronize_harts():
C:/VSD_Sqd_Project/sifive_hifive1_BitNet_MNIST_App/freedom-metal/src/synchronize_harts.c:19
/*
 * _synchronize_harts() is called by crt0.S to cause harts > 0 to wait for
 * hart 0 to finish copying the datat section, zeroing the BSS, and running
 * the libc contstructors.
 */
__attribute__((section(".init"))) void __metal_synchronize_harts() {
20100142:	1141                	add	sp,sp,-16
20100144:	c622                	sw	s0,12(sp)
20100146:	0800                	add	s0,sp,16
C:/VSD_Sqd_Project/sifive_hifive1_BitNet_MNIST_App/freedom-metal/src/synchronize_harts.c:66
        while (METAL_MSIP(msip_base, hart) == 1)
            ;
    }

#endif /* __METAL_DT_MAX_HARTS > 1 */
}
20100148:	0001                	nop
2010014a:	4432                	lw	s0,12(sp)
2010014c:	0141                	add	sp,sp,16
2010014e:	8082                	ret

20100150 <_start>:
_start():
C:/VSD_Sqd_Project/sifive_hifive1_BitNet_MNIST_App/freedom-metal/gloss/crt0.S:36
.cfi_startproc
.cfi_undefined ra

  /* This is a bit funky: it's not usually sane for _start to return, but in
   * this case we actually want to in order to signal an error to the METAL. */
  mv s0, ra
20100150:	8406                	mv	s0,ra
C:/VSD_Sqd_Project/sifive_hifive1_BitNet_MNIST_App/freedom-metal/gloss/crt0.S:51
  auipc a0, %pcrel_hi(__global_pointer__)
  addi a0, a0, %pcrel_lo(1b)
  ld   gp, 0(a0)
  add  gp, gp, a0
#else
  la gp, __global_pointer$
20100152:	5ff01197          	auipc	gp,0x5ff01
20100156:	11e18193          	add	gp,gp,286 # 80001270 <__global_pointer$>
C:/VSD_Sqd_Project/sifive_hifive1_BitNet_MNIST_App/freedom-metal/gloss/crt0.S:58
.option pop

  /* Stack pointer is expected to be initialized before _start */

  /* If we're not hart 0, skip the initialization work */
  la t0, __metal_boot_hart
2010015a:	00000293          	li	t0,0
C:/VSD_Sqd_Project/sifive_hifive1_BitNet_MNIST_App/freedom-metal/gloss/crt0.S:59
  bne a0, t0, _skip_init
2010015e:	0e551163          	bne	a0,t0,20100240 <_skip_init>
C:/VSD_Sqd_Project/sifive_hifive1_BitNet_MNIST_App/freedom-metal/gloss/crt0.S:73
#ifdef __riscv_cmodel_compact
  la.got.gprel t0, metal_segment_data_source_start
  lla.gprel t1, metal_segment_data_target_start
  lla.gprel t2, metal_segment_data_target_end
#else
  la t0, metal_segment_data_source_start
20100162:	00010297          	auipc	t0,0x10
20100166:	a5628293          	add	t0,t0,-1450 # 2010fbb8 <metal_segment_data_source_start>
C:/VSD_Sqd_Project/sifive_hifive1_BitNet_MNIST_App/freedom-metal/gloss/crt0.S:74
  la t1, metal_segment_data_target_start
2010016a:	5ff00317          	auipc	t1,0x5ff00
2010016e:	e9630313          	add	t1,t1,-362 # 80000000 <_impure_data>
C:/VSD_Sqd_Project/sifive_hifive1_BitNet_MNIST_App/freedom-metal/gloss/crt0.S:75
  la t2, metal_segment_data_target_end
20100172:	5ff01397          	auipc	t2,0x5ff01
20100176:	92638393          	add	t2,t2,-1754 # 80000a98 <__malloc_sbrk_start>
C:/VSD_Sqd_Project/sifive_hifive1_BitNet_MNIST_App/freedom-metal/gloss/crt0.S:78
#endif

  beq t0, t1, 2f
2010017a:	00628c63          	beq	t0,t1,20100192 <_start+0x42>
C:/VSD_Sqd_Project/sifive_hifive1_BitNet_MNIST_App/freedom-metal/gloss/crt0.S:79
  bge t1, t2, 2f
2010017e:	00735a63          	bge	t1,t2,20100192 <_start+0x42>
C:/VSD_Sqd_Project/sifive_hifive1_BitNet_MNIST_App/freedom-metal/gloss/crt0.S:83

1:
#if __riscv_xlen == 32
  lw   a0, 0(t0)
20100182:	0002a503          	lw	a0,0(t0)
C:/VSD_Sqd_Project/sifive_hifive1_BitNet_MNIST_App/freedom-metal/gloss/crt0.S:84
  addi t0, t0, 4
20100186:	0291                	add	t0,t0,4
C:/VSD_Sqd_Project/sifive_hifive1_BitNet_MNIST_App/freedom-metal/gloss/crt0.S:85
  sw   a0, 0(t1)
20100188:	00a32023          	sw	a0,0(t1)
C:/VSD_Sqd_Project/sifive_hifive1_BitNet_MNIST_App/freedom-metal/gloss/crt0.S:86
  addi t1, t1, 4
2010018c:	0311                	add	t1,t1,4
C:/VSD_Sqd_Project/sifive_hifive1_BitNet_MNIST_App/freedom-metal/gloss/crt0.S:87
  blt  t1, t2, 1b
2010018e:	fe734ae3          	blt	t1,t2,20100182 <_start+0x32>
C:/VSD_Sqd_Project/sifive_hifive1_BitNet_MNIST_App/freedom-metal/gloss/crt0.S:103
#ifdef __riscv_cmodel_compact
  la.got.gprel t0, metal_segment_itim_source_start
  la.got.gprel t1, metal_segment_itim_target_start
  la.got.gprel t2, metal_segment_itim_target_end
#else
  la t0, metal_segment_itim_source_start
20100192:	00009297          	auipc	t0,0x9
20100196:	3e628293          	add	t0,t0,998 # 20109578 <metal_segment_itim_source_start>
C:/VSD_Sqd_Project/sifive_hifive1_BitNet_MNIST_App/freedom-metal/gloss/crt0.S:104
  la t1, metal_segment_itim_target_start
2010019a:	5ff00317          	auipc	t1,0x5ff00
2010019e:	e6630313          	add	t1,t1,-410 # 80000000 <_impure_data>
C:/VSD_Sqd_Project/sifive_hifive1_BitNet_MNIST_App/freedom-metal/gloss/crt0.S:105
  la t2, metal_segment_itim_target_end
201001a2:	5ff00397          	auipc	t2,0x5ff00
201001a6:	e5e38393          	add	t2,t2,-418 # 80000000 <_impure_data>
C:/VSD_Sqd_Project/sifive_hifive1_BitNet_MNIST_App/freedom-metal/gloss/crt0.S:108
#endif

  beq t0, t1, 2f
201001aa:	00628c63          	beq	t0,t1,201001c2 <_start+0x72>
C:/VSD_Sqd_Project/sifive_hifive1_BitNet_MNIST_App/freedom-metal/gloss/crt0.S:109
  bge t1, t2, 2f
201001ae:	00735a63          	bge	t1,t2,201001c2 <_start+0x72>
C:/VSD_Sqd_Project/sifive_hifive1_BitNet_MNIST_App/freedom-metal/gloss/crt0.S:113

1:
#if __riscv_xlen == 32
  lw   a0, 0(t0)
201001b2:	0002a503          	lw	a0,0(t0)
C:/VSD_Sqd_Project/sifive_hifive1_BitNet_MNIST_App/freedom-metal/gloss/crt0.S:114
  addi t0, t0, 4
201001b6:	0291                	add	t0,t0,4
C:/VSD_Sqd_Project/sifive_hifive1_BitNet_MNIST_App/freedom-metal/gloss/crt0.S:115
  sw   a0, 0(t1)
201001b8:	00a32023          	sw	a0,0(t1)
C:/VSD_Sqd_Project/sifive_hifive1_BitNet_MNIST_App/freedom-metal/gloss/crt0.S:116
  addi t1, t1, 4
201001bc:	0311                	add	t1,t1,4
C:/VSD_Sqd_Project/sifive_hifive1_BitNet_MNIST_App/freedom-metal/gloss/crt0.S:117
  blt  t1, t2, 1b
201001be:	fe734ae3          	blt	t1,t2,201001b2 <_start+0x62>
C:/VSD_Sqd_Project/sifive_hifive1_BitNet_MNIST_App/freedom-metal/gloss/crt0.S:129
#endif
2:

  /* Fence all subsequent instruction fetches until after the ITIM writes
     complete */
  fence.i
201001c2:	0000100f          	fence.i
C:/VSD_Sqd_Project/sifive_hifive1_BitNet_MNIST_App/freedom-metal/gloss/crt0.S:139
#ifdef __riscv_cmodel_compact
  la.got.gprel t0, metal_segment_lim_source_start
  lla.gprel t1, metal_segment_lim_target_start
  lla.gprel t2, metal_segment_lim_target_end
#else
  la t0, metal_segment_lim_source_start
201001c6:	00009297          	auipc	t0,0x9
201001ca:	3b228293          	add	t0,t0,946 # 20109578 <metal_segment_itim_source_start>
C:/VSD_Sqd_Project/sifive_hifive1_BitNet_MNIST_App/freedom-metal/gloss/crt0.S:140
  la t1, metal_segment_lim_target_start
201001ce:	5ff00317          	auipc	t1,0x5ff00
201001d2:	e3230313          	add	t1,t1,-462 # 80000000 <_impure_data>
C:/VSD_Sqd_Project/sifive_hifive1_BitNet_MNIST_App/freedom-metal/gloss/crt0.S:141
  la t2, metal_segment_lim_target_end
201001d6:	5ff00397          	auipc	t2,0x5ff00
201001da:	e2a38393          	add	t2,t2,-470 # 80000000 <_impure_data>
C:/VSD_Sqd_Project/sifive_hifive1_BitNet_MNIST_App/freedom-metal/gloss/crt0.S:144
#endif

  beq t0, t1, 2f
201001de:	00628c63          	beq	t0,t1,201001f6 <_start+0xa6>
C:/VSD_Sqd_Project/sifive_hifive1_BitNet_MNIST_App/freedom-metal/gloss/crt0.S:145
  bge t1, t2, 2f
201001e2:	00735a63          	bge	t1,t2,201001f6 <_start+0xa6>
C:/VSD_Sqd_Project/sifive_hifive1_BitNet_MNIST_App/freedom-metal/gloss/crt0.S:149

1:
#if __riscv_xlen == 32
  lw   a0, 0(t0)
201001e6:	0002a503          	lw	a0,0(t0)
C:/VSD_Sqd_Project/sifive_hifive1_BitNet_MNIST_App/freedom-metal/gloss/crt0.S:150
  addi t0, t0, 4
201001ea:	0291                	add	t0,t0,4
C:/VSD_Sqd_Project/sifive_hifive1_BitNet_MNIST_App/freedom-metal/gloss/crt0.S:151
  sw   a0, 0(t1)
201001ec:	00a32023          	sw	a0,0(t1)
C:/VSD_Sqd_Project/sifive_hifive1_BitNet_MNIST_App/freedom-metal/gloss/crt0.S:152
  addi t1, t1, 4
201001f0:	0311                	add	t1,t1,4
C:/VSD_Sqd_Project/sifive_hifive1_BitNet_MNIST_App/freedom-metal/gloss/crt0.S:153
  blt  t1, t2, 1b
201001f2:	fe734ae3          	blt	t1,t2,201001e6 <_start+0x96>
C:/VSD_Sqd_Project/sifive_hifive1_BitNet_MNIST_App/freedom-metal/gloss/crt0.S:165
#endif
2:

  /* Fence all subsequent instruction fetches until after the LIM writes
     complete */
  fence.i
201001f6:	0000100f          	fence.i
C:/VSD_Sqd_Project/sifive_hifive1_BitNet_MNIST_App/freedom-metal/gloss/crt0.S:172
  /* Zero the BSS segment. */
#ifdef __riscv_cmodel_compact
  lla.gprel t1, metal_segment_bss_target_start
  lla.gprel t2, metal_segment_bss_target_end
#else
  la t1, metal_segment_bss_target_start
201001fa:	5ff01317          	auipc	t1,0x5ff01
201001fe:	89e30313          	add	t1,t1,-1890 # 80000a98 <__malloc_sbrk_start>
C:/VSD_Sqd_Project/sifive_hifive1_BitNet_MNIST_App/freedom-metal/gloss/crt0.S:173
  la t2, metal_segment_bss_target_end
20100202:	a0818393          	add	t2,gp,-1528 # 80000c78 <metal_segment_bss_target_end>
C:/VSD_Sqd_Project/sifive_hifive1_BitNet_MNIST_App/freedom-metal/gloss/crt0.S:176
#endif

  bge t1, t2, 2f
20100206:	00735763          	bge	t1,t2,20100214 <_start+0xc4>
C:/VSD_Sqd_Project/sifive_hifive1_BitNet_MNIST_App/freedom-metal/gloss/crt0.S:180

1:
#if __riscv_xlen == 32
  sw   x0, 0(t1)
2010020a:	00032023          	sw	zero,0(t1)
C:/VSD_Sqd_Project/sifive_hifive1_BitNet_MNIST_App/freedom-metal/gloss/crt0.S:181
  addi t1, t1, 4
2010020e:	0311                	add	t1,t1,4
C:/VSD_Sqd_Project/sifive_hifive1_BitNet_MNIST_App/freedom-metal/gloss/crt0.S:182
  blt  t1, t2, 1b
20100210:	fe734de3          	blt	t1,t2,2010020a <_start+0xba>
C:/VSD_Sqd_Project/sifive_hifive1_BitNet_MNIST_App/freedom-metal/gloss/crt0.S:195
  /* Set TLS pointer */
  .weak __tls_base	
#ifdef __riscv_cmodel_compact
  lla.gprel tp, __tls_base
#else
  la tp, __tls_base
20100214:	5ff01217          	auipc	tp,0x5ff01
20100218:	88420213          	add	tp,tp,-1916 # 80000a98 <__malloc_sbrk_start>
C:/VSD_Sqd_Project/sifive_hifive1_BitNet_MNIST_App/freedom-metal/gloss/crt0.S:201
#endif

  /* At this point we're in an environment that can execute C code.  The first
   * thing to do is to make the callback to the parent environment if it's been
   * requested to do so. */
  beqz a2, 1f
2010021c:	c211                	beqz	a2,20100220 <_start+0xd0>
C:/VSD_Sqd_Project/sifive_hifive1_BitNet_MNIST_App/freedom-metal/gloss/crt0.S:202
  jalr a2
2010021e:	9602                	jalr	a2
C:/VSD_Sqd_Project/sifive_hifive1_BitNet_MNIST_App/freedom-metal/gloss/crt0.S:206
1:

  /* The RISC-V port only uses new-style constructors and destructors. */
  la a0, __libc_fini_array
20100220:	0000b517          	auipc	a0,0xb
20100224:	02850513          	add	a0,a0,40 # 2010b248 <__libc_fini_array>
C:/VSD_Sqd_Project/sifive_hifive1_BitNet_MNIST_App/freedom-metal/gloss/crt0.S:207
  call atexit
20100228:	7870a0ef          	jal	2010b1ae <atexit>
C:/VSD_Sqd_Project/sifive_hifive1_BitNet_MNIST_App/freedom-metal/gloss/crt0.S:208
  call __libc_init_array
2010022c:	7bf0a0ef          	jal	2010b1ea <__libc_init_array>
C:/VSD_Sqd_Project/sifive_hifive1_BitNet_MNIST_App/freedom-metal/gloss/crt0.S:212

  /* Register metal_fini_run as a destructor and call metal_init_run to
   * run and setup Metal constructors */
  la a0, metal_fini_run
20100230:	0000b517          	auipc	a0,0xb
20100234:	29250513          	add	a0,a0,658 # 2010b4c2 <metal_fini_run>
C:/VSD_Sqd_Project/sifive_hifive1_BitNet_MNIST_App/freedom-metal/gloss/crt0.S:213
  call atexit
20100238:	7770a0ef          	jal	2010b1ae <atexit>
C:/VSD_Sqd_Project/sifive_hifive1_BitNet_MNIST_App/freedom-metal/gloss/crt0.S:214
  call metal_init_run
2010023c:	2720b0ef          	jal	2010b4ae <metal_init_run>

20100240 <_skip_init>:
_skip_init():
C:/VSD_Sqd_Project/sifive_hifive1_BitNet_MNIST_App/freedom-metal/gloss/crt0.S:220

_skip_init:

  /* Synchronize harts so that secondary harts wait until hart 0 finishes
     initializing */
  call __metal_synchronize_harts
20100240:	3709                	jal	20100142 <__metal_synchronize_harts>
C:/VSD_Sqd_Project/sifive_hifive1_BitNet_MNIST_App/freedom-metal/gloss/crt0.S:223

  /* Disable and clear all interrupt sources */
  li   a3, -1
20100242:	56fd                	li	a3,-1
C:/VSD_Sqd_Project/sifive_hifive1_BitNet_MNIST_App/freedom-metal/gloss/crt0.S:224
  csrc mie, a3
20100244:	3046b073          	csrc	mie,a3
C:/VSD_Sqd_Project/sifive_hifive1_BitNet_MNIST_App/freedom-metal/gloss/crt0.S:225
  csrc mip, a3
20100248:	3446b073          	csrc	mip,a3
C:/VSD_Sqd_Project/sifive_hifive1_BitNet_MNIST_App/freedom-metal/gloss/crt0.S:229

  /* The delegation CSRs exist if user mode interrupts (N extension) or
   * supervisor mode (S extension) are supported */
  csrr a5, misa
2010024c:	301027f3          	csrr	a5,misa
C:/VSD_Sqd_Project/sifive_hifive1_BitNet_MNIST_App/freedom-metal/gloss/crt0.S:230
  lui  a4, 0x42
20100250:	00042737          	lui	a4,0x42
C:/VSD_Sqd_Project/sifive_hifive1_BitNet_MNIST_App/freedom-metal/gloss/crt0.S:231
  and  a4, a4, a5
20100254:	8f7d                	and	a4,a4,a5
C:/VSD_Sqd_Project/sifive_hifive1_BitNet_MNIST_App/freedom-metal/gloss/crt0.S:232
  beqz a4, 1f
20100256:	c709                	beqz	a4,20100260 <_skip_init+0x20>
C:/VSD_Sqd_Project/sifive_hifive1_BitNet_MNIST_App/freedom-metal/gloss/crt0.S:233
  csrc mideleg, a3
20100258:	3036b073          	csrc	mideleg,a3
C:/VSD_Sqd_Project/sifive_hifive1_BitNet_MNIST_App/freedom-metal/gloss/crt0.S:234
  csrc medeleg, a3
2010025c:	3026b073          	csrc	medeleg,a3
C:/VSD_Sqd_Project/sifive_hifive1_BitNet_MNIST_App/freedom-metal/gloss/crt0.S:238
1:

  /* The satp CSR exists if supervisor mode (S extension) is supported */
  lui  a4, 0x40
20100260:	00040737          	lui	a4,0x40
C:/VSD_Sqd_Project/sifive_hifive1_BitNet_MNIST_App/freedom-metal/gloss/crt0.S:239
  and  a4, a4, a5
20100264:	8f7d                	and	a4,a4,a5
C:/VSD_Sqd_Project/sifive_hifive1_BitNet_MNIST_App/freedom-metal/gloss/crt0.S:240
  beqz a4, 1f
20100266:	c319                	beqz	a4,2010026c <_skip_init+0x2c>
C:/VSD_Sqd_Project/sifive_hifive1_BitNet_MNIST_App/freedom-metal/gloss/crt0.S:241
  csrc satp, a3
20100268:	1806b073          	csrc	satp,a3
C:/VSD_Sqd_Project/sifive_hifive1_BitNet_MNIST_App/freedom-metal/gloss/crt0.S:245
1:

  /* Check RISC-V isa and enable FS bits if Floating Point architecture. */
  li   a4, 0x10028
2010026c:	6741                	lui	a4,0x10
2010026e:	02870713          	add	a4,a4,40 # 10028 <__heap_size+0xf828>
C:/VSD_Sqd_Project/sifive_hifive1_BitNet_MNIST_App/freedom-metal/gloss/crt0.S:246
  and  a5, a5, a4
20100272:	8ff9                	and	a5,a5,a4
C:/VSD_Sqd_Project/sifive_hifive1_BitNet_MNIST_App/freedom-metal/gloss/crt0.S:247
  beqz a5, 1f
20100274:	cb89                	beqz	a5,20100286 <_skip_init+0x46>
C:/VSD_Sqd_Project/sifive_hifive1_BitNet_MNIST_App/freedom-metal/gloss/crt0.S:248
  csrr a5, mstatus
20100276:	300027f3          	csrr	a5,mstatus
C:/VSD_Sqd_Project/sifive_hifive1_BitNet_MNIST_App/freedom-metal/gloss/crt0.S:249
  lui  a4, 0x2
2010027a:	6709                	lui	a4,0x2
C:/VSD_Sqd_Project/sifive_hifive1_BitNet_MNIST_App/freedom-metal/gloss/crt0.S:250
  or   a5, a5, a4
2010027c:	8fd9                	or	a5,a5,a4
C:/VSD_Sqd_Project/sifive_hifive1_BitNet_MNIST_App/freedom-metal/gloss/crt0.S:251
  csrw mstatus, a5
2010027e:	30079073          	csrw	mstatus,a5
C:/VSD_Sqd_Project/sifive_hifive1_BitNet_MNIST_App/freedom-metal/gloss/crt0.S:252
  csrwi fcsr, 0
20100282:	00305073          	csrw	fcsr,0
C:/VSD_Sqd_Project/sifive_hifive1_BitNet_MNIST_App/freedom-metal/gloss/crt0.S:273
#endif

  /* This is a C runtime, so main() is defined to have some arguments.  Since
   * there's nothing sane the METAL can pass we don't bother with that but
   * instead just setup as close to a NOP as we can. */
  li a0, 1     /* argc=1 */
20100286:	4505                	li	a0,1
C:/VSD_Sqd_Project/sifive_hifive1_BitNet_MNIST_App/freedom-metal/gloss/crt0.S:274
  la a1, argv  /* argv = {"libgloss", NULL} */
20100288:	00008597          	auipc	a1,0x8
2010028c:	75858593          	add	a1,a1,1880 # 201089e0 <argv>
C:/VSD_Sqd_Project/sifive_hifive1_BitNet_MNIST_App/freedom-metal/gloss/crt0.S:275
  la a2, envp  /* envp = {NULL} */
20100290:	00008617          	auipc	a2,0x8
20100294:	75460613          	add	a2,a2,1876 # 201089e4 <envp>
C:/VSD_Sqd_Project/sifive_hifive1_BitNet_MNIST_App/freedom-metal/gloss/crt0.S:276
  call secondary_main
20100298:	2031                	jal	201002a4 <secondary_main>
C:/VSD_Sqd_Project/sifive_hifive1_BitNet_MNIST_App/freedom-metal/gloss/crt0.S:282

  /* Call exit to handle libc's cleanup routines.  Under normal contains this
   * shouldn't even get called, but I'm still not using a tail call here
   * because returning to the METAL is the right thing to do in pathological
   * situations. */
  call exit
2010029a:	71f0a0ef          	jal	2010b1b8 <exit>
C:/VSD_Sqd_Project/sifive_hifive1_BitNet_MNIST_App/freedom-metal/gloss/crt0.S:287

  /* And here's where we return.  Again, it's a bit odd but the METAL defines
   * this as a bad idea (ie, as opposed to leaving it undefined) and at this
   * point it's really the only thing left to do. */
  mv ra, s0
2010029e:	80a2                	mv	ra,s0
C:/VSD_Sqd_Project/sifive_hifive1_BitNet_MNIST_App/freedom-metal/gloss/crt0.S:288
  ret
201002a0:	8082                	ret

201002a2 <_fini>:
_fini():
C:/VSD_Sqd_Project/sifive_hifive1_BitNet_MNIST_App/freedom-metal/gloss/crt0.S:300
.type   _init, @function
.global _fini
.type   _fini, @function
_init:
_fini:
  ret
201002a2:	8082                	ret

201002a4 <secondary_main>:
secondary_main():
C:/VSD_Sqd_Project/sifive_hifive1_BitNet_MNIST_App/freedom-metal/gloss/crt0.S:310
 * Users can redefine secondary_main themselves to run code on secondary harts */
.weak   secondary_main
.type   secondary_main, @function

secondary_main:
  addi sp, sp, -16
201002a4:	1141                	add	sp,sp,-16
C:/VSD_Sqd_Project/sifive_hifive1_BitNet_MNIST_App/freedom-metal/gloss/crt0.S:312
#if __riscv_xlen == 32
  sw ra, 4(sp)
201002a6:	c206                	sw	ra,4(sp)
C:/VSD_Sqd_Project/sifive_hifive1_BitNet_MNIST_App/freedom-metal/gloss/crt0.S:316
#else
  sd ra, 8(sp)
#endif
  csrr t0, mhartid
201002a8:	f14022f3          	csrr	t0,mhartid
C:/VSD_Sqd_Project/sifive_hifive1_BitNet_MNIST_App/freedom-metal/gloss/crt0.S:317
  la t1, __metal_boot_hart
201002ac:	00000313          	li	t1,0
C:/VSD_Sqd_Project/sifive_hifive1_BitNet_MNIST_App/freedom-metal/gloss/crt0.S:318
  beq t0, t1, 2f
201002b0:	00628563          	beq	t0,t1,201002ba <secondary_main+0x16>
C:/VSD_Sqd_Project/sifive_hifive1_BitNet_MNIST_App/freedom-metal/gloss/crt0.S:320
1:
  wfi
201002b4:	10500073          	wfi
C:/VSD_Sqd_Project/sifive_hifive1_BitNet_MNIST_App/freedom-metal/gloss/crt0.S:321
  j 1b
201002b8:	bff5                	j	201002b4 <secondary_main+0x10>
C:/VSD_Sqd_Project/sifive_hifive1_BitNet_MNIST_App/freedom-metal/gloss/crt0.S:323
2:
  call main
201002ba:	281090ef          	jal	20109d3a <main>
C:/VSD_Sqd_Project/sifive_hifive1_BitNet_MNIST_App/freedom-metal/gloss/crt0.S:325
#if __riscv_xlen == 32
  lw ra, 4(sp)
201002be:	4092                	lw	ra,4(sp)
C:/VSD_Sqd_Project/sifive_hifive1_BitNet_MNIST_App/freedom-metal/gloss/crt0.S:329
#else
  ld ra, 8(sp)
#endif
  addi sp, sp, 16
201002c0:	0141                	add	sp,sp,16
C:/VSD_Sqd_Project/sifive_hifive1_BitNet_MNIST_App/freedom-metal/gloss/crt0.S:330
  ret
201002c2:	8082                	ret

Disassembly of section .ctors:

201002d4 <metal_tty_init>:
metal_tty_init():
C:/VSD_Sqd_Project/sifive_hifive1_BitNet_MNIST_App/freedom-metal/src/tty.c:28

#ifndef __METAL_DT_STDOUT_UART_BAUD
#define __METAL_DT_STDOUT_UART_BAUD 115200
#endif

METAL_CONSTRUCTOR(metal_tty_init) {
201002d4:	1141                	add	sp,sp,-16
201002d6:	c606                	sw	ra,12(sp)
201002d8:	c422                	sw	s0,8(sp)
201002da:	0800                	add	s0,sp,16
C:/VSD_Sqd_Project/sifive_hifive1_BitNet_MNIST_App/freedom-metal/src/tty.c:29
    metal_uart_init(__METAL_DT_STDOUT_UART_HANDLE, __METAL_DT_STDOUT_UART_BAUD);
201002dc:	67f1                	lui	a5,0x1c
201002de:	20078593          	add	a1,a5,512 # 1c200 <__heap_size+0x1ba00>
201002e2:	800017b7          	lui	a5,0x80001
201002e6:	a2878513          	add	a0,a5,-1496 # 80000a28 <__metal_dt_serial_10013000>
201002ea:	2120b0ef          	jal	2010b4fc <metal_uart_init>
C:/VSD_Sqd_Project/sifive_hifive1_BitNet_MNIST_App/freedom-metal/src/tty.c:30
}
201002ee:	0001                	nop
201002f0:	40b2                	lw	ra,12(sp)
201002f2:	4422                	lw	s0,8(sp)
201002f4:	0141                	add	sp,sp,16
201002f6:	8082                	ret

201002f8 <metal_sifive_fe310_g000_pll_init>:
metal_sifive_fe310_g000_pll_init():
C:/VSD_Sqd_Project/sifive_hifive1_BitNet_MNIST_App/freedom-metal/src/drivers/sifive_fe310-g000_pll.c:151
    return pll_input_rate * config->multiplier / config->divisor;
}

#ifdef __METAL_DT_SIFIVE_FE310_G000_PLL_HANDLE

METAL_CONSTRUCTOR(metal_sifive_fe310_g000_pll_init) {
201002f8:	1101                	add	sp,sp,-32
201002fa:	ce06                	sw	ra,28(sp)
201002fc:	cc22                	sw	s0,24(sp)
201002fe:	1000                	add	s0,sp,32
C:/VSD_Sqd_Project/sifive_hifive1_BitNet_MNIST_App/freedom-metal/src/drivers/sifive_fe310-g000_pll.c:152
    long init_rate = __metal_driver_sifive_fe310_g000_pll_init_rate();
20100300:	71f0d0ef          	jal	2010e21e <__metal_driver_sifive_fe310_g000_pll_init_rate>
20100304:	fea42623          	sw	a0,-20(s0)
C:/VSD_Sqd_Project/sifive_hifive1_BitNet_MNIST_App/freedom-metal/src/drivers/sifive_fe310-g000_pll.c:154
    /* If the PLL init_rate is zero, don't initialize the PLL */
    if (init_rate != 0)
20100308:	fec42783          	lw	a5,-20(s0)
2010030c:	c799                	beqz	a5,2010031a <metal_sifive_fe310_g000_pll_init+0x22>
C:/VSD_Sqd_Project/sifive_hifive1_BitNet_MNIST_App/freedom-metal/src/drivers/sifive_fe310-g000_pll.c:155
        __metal_driver_sifive_fe310_g000_pll_init(
2010030e:	800017b7          	lui	a5,0x80001
20100312:	a6078513          	add	a0,a5,-1440 # 80000a60 <__metal_dt_clock_4>
20100316:	7950d0ef          	jal	2010e2aa <__metal_driver_sifive_fe310_g000_pll_init>
C:/VSD_Sqd_Project/sifive_hifive1_BitNet_MNIST_App/freedom-metal/src/drivers/sifive_fe310-g000_pll.c:157
            __METAL_DT_SIFIVE_FE310_G000_PLL_HANDLE);
}
2010031a:	0001                	nop
2010031c:	40f2                	lw	ra,28(sp)
2010031e:	4462                	lw	s0,24(sp)
20100320:	6105                	add	sp,sp,32
20100322:	8082                	ret

20100324 <use_hfxosc>:
use_hfxosc():
C:/VSD_Sqd_Project/sifive_hifive1_BitNet_MNIST_App/freedom-metal/src/drivers/sifive_fe310-g000_pll.c:389

    return __metal_driver_sifive_fe310_g000_pll_get_rate_hz(clock);
}

#ifdef __METAL_DT_SIFIVE_FE310_G000_PLL_HANDLE
METAL_CONSTRUCTOR(use_hfxosc) {
20100324:	1101                	add	sp,sp,-32
20100326:	ce06                	sw	ra,28(sp)
20100328:	cc22                	sw	s0,24(sp)
2010032a:	1000                	add	s0,sp,32
C:/VSD_Sqd_Project/sifive_hifive1_BitNet_MNIST_App/freedom-metal/src/drivers/sifive_fe310-g000_pll.c:390
    long init_rate = __metal_driver_sifive_fe310_g000_pll_init_rate();
2010032c:	6f30d0ef          	jal	2010e21e <__metal_driver_sifive_fe310_g000_pll_init_rate>
20100330:	fea42623          	sw	a0,-20(s0)
C:/VSD_Sqd_Project/sifive_hifive1_BitNet_MNIST_App/freedom-metal/src/drivers/sifive_fe310-g000_pll.c:391
    metal_clock_set_rate_hz(&__METAL_DT_SIFIVE_FE310_G000_PLL_HANDLE->clock,
20100334:	fec42583          	lw	a1,-20(s0)
20100338:	800017b7          	lui	a5,0x80001
2010033c:	a6078513          	add	a0,a5,-1440 # 80000a60 <__metal_dt_clock_4>
20100340:	5ce0f0ef          	jal	2010f90e <metal_clock_set_rate_hz>
C:/VSD_Sqd_Project/sifive_hifive1_BitNet_MNIST_App/freedom-metal/src/drivers/sifive_fe310-g000_pll.c:393
                            init_rate);
}
20100344:	0001                	nop
20100346:	40f2                	lw	ra,28(sp)
20100348:	4462                	lw	s0,24(sp)
2010034a:	6105                	add	sp,sp,32
2010034c:	8082                	ret

Disassembly of section .text:

20109580 <ReLUNorm>:
ReLUNorm():
C:\VSD_Sqd_Project\sifive_hifive1_BitNet_MNIST_App\src/app_inference.h:29
 * @param output Pointer to the output array of 8-bit integers.
 * @param n_input The number of elements in the input array.
 * @return The position of maximum value found in the input array before applying the ReLU activation.
 */

uint32_t ReLUNorm(int32_t *input, int8_t *output, uint32_t n_input) {
20109580:	715d                	add	sp,sp,-80
20109582:	c6a2                	sw	s0,76(sp)
20109584:	0880                	add	s0,sp,80
20109586:	faa42e23          	sw	a0,-68(s0)
2010958a:	fab42c23          	sw	a1,-72(s0)
2010958e:	fac42a23          	sw	a2,-76(s0)
C:\VSD_Sqd_Project\sifive_hifive1_BitNet_MNIST_App\src/app_inference.h:30
    int32_t max_val = 0; // Initialize to 0. For ReLU, we only care about positive max values.
20109592:	fe042623          	sw	zero,-20(s0)
C:\VSD_Sqd_Project\sifive_hifive1_BitNet_MNIST_App\src/app_inference.h:31
    uint32_t max_pos = 0; 
20109596:	fe042423          	sw	zero,-24(s0)
C:\VSD_Sqd_Project\sifive_hifive1_BitNet_MNIST_App\src/app_inference.h:33

    for (uint32_t i = 0; i < n_input; i++) {
2010959a:	fe042223          	sw	zero,-28(s0)
2010959e:	a835                	j	201095da <ReLUNorm+0x5a>
C:\VSD_Sqd_Project\sifive_hifive1_BitNet_MNIST_App\src/app_inference.h:34
        if (input[i] > max_val) {
201095a0:	fe442783          	lw	a5,-28(s0)
201095a4:	078a                	sll	a5,a5,0x2
201095a6:	fbc42703          	lw	a4,-68(s0)
201095aa:	97ba                	add	a5,a5,a4
201095ac:	439c                	lw	a5,0(a5)
201095ae:	fec42703          	lw	a4,-20(s0)
201095b2:	00f75f63          	bge	a4,a5,201095d0 <ReLUNorm+0x50>
C:\VSD_Sqd_Project\sifive_hifive1_BitNet_MNIST_App\src/app_inference.h:35
            max_val = input[i];
201095b6:	fe442783          	lw	a5,-28(s0)
201095ba:	078a                	sll	a5,a5,0x2
201095bc:	fbc42703          	lw	a4,-68(s0)
201095c0:	97ba                	add	a5,a5,a4
201095c2:	439c                	lw	a5,0(a5)
201095c4:	fef42623          	sw	a5,-20(s0)
C:\VSD_Sqd_Project\sifive_hifive1_BitNet_MNIST_App\src/app_inference.h:36
            max_pos = i;
201095c8:	fe442783          	lw	a5,-28(s0)
201095cc:	fef42423          	sw	a5,-24(s0)
C:\VSD_Sqd_Project\sifive_hifive1_BitNet_MNIST_App\src/app_inference.h:33 (discriminator 2)
    for (uint32_t i = 0; i < n_input; i++) {
201095d0:	fe442783          	lw	a5,-28(s0)
201095d4:	0785                	add	a5,a5,1
201095d6:	fef42223          	sw	a5,-28(s0)
C:\VSD_Sqd_Project\sifive_hifive1_BitNet_MNIST_App\src/app_inference.h:33 (discriminator 1)
201095da:	fe442703          	lw	a4,-28(s0)
201095de:	fb442783          	lw	a5,-76(s0)
201095e2:	faf76fe3          	bltu	a4,a5,201095a0 <ReLUNorm+0x20>
C:\VSD_Sqd_Project\sifive_hifive1_BitNet_MNIST_App\src/app_inference.h:40
        }
    }

    if (max_val <= 0) {
201095e6:	fec42783          	lw	a5,-20(s0)
201095ea:	02f04a63          	bgtz	a5,2010961e <ReLUNorm+0x9e>
C:\VSD_Sqd_Project\sifive_hifive1_BitNet_MNIST_App\src/app_inference.h:41
        for (uint32_t i = 0; i < n_input; i++) {
201095ee:	fe042023          	sw	zero,-32(s0)
201095f2:	a829                	j	2010960c <ReLUNorm+0x8c>
C:\VSD_Sqd_Project\sifive_hifive1_BitNet_MNIST_App\src/app_inference.h:42
            output[i] = 0;
201095f4:	fb842703          	lw	a4,-72(s0)
201095f8:	fe042783          	lw	a5,-32(s0)
201095fc:	97ba                	add	a5,a5,a4
201095fe:	00078023          	sb	zero,0(a5)
C:\VSD_Sqd_Project\sifive_hifive1_BitNet_MNIST_App\src/app_inference.h:41 (discriminator 3)
        for (uint32_t i = 0; i < n_input; i++) {
20109602:	fe042783          	lw	a5,-32(s0)
20109606:	0785                	add	a5,a5,1
20109608:	fef42023          	sw	a5,-32(s0)
C:\VSD_Sqd_Project\sifive_hifive1_BitNet_MNIST_App\src/app_inference.h:41 (discriminator 1)
2010960c:	fe042703          	lw	a4,-32(s0)
20109610:	fb442783          	lw	a5,-76(s0)
20109614:	fef760e3          	bltu	a4,a5,201095f4 <ReLUNorm+0x74>
C:\VSD_Sqd_Project\sifive_hifive1_BitNet_MNIST_App\src/app_inference.h:44
        }
        return max_pos;
20109618:	fe842783          	lw	a5,-24(s0)
2010961c:	a0cd                	j	201096fe <ReLUNorm+0x17e>
C:\VSD_Sqd_Project\sifive_hifive1_BitNet_MNIST_App\src/app_inference.h:47
    }

    uint32_t shift = 0;
2010961e:	fc042e23          	sw	zero,-36(s0)
C:\VSD_Sqd_Project\sifive_hifive1_BitNet_MNIST_App\src/app_inference.h:48
    uint32_t temp_max_val = (uint32_t)max_val; 
20109622:	fec42783          	lw	a5,-20(s0)
20109626:	fcf42c23          	sw	a5,-40(s0)
C:\VSD_Sqd_Project\sifive_hifive1_BitNet_MNIST_App\src/app_inference.h:50

    while (temp_max_val > 127) {
2010962a:	a819                	j	20109640 <ReLUNorm+0xc0>
C:\VSD_Sqd_Project\sifive_hifive1_BitNet_MNIST_App\src/app_inference.h:51
        temp_max_val >>= 1;
2010962c:	fd842783          	lw	a5,-40(s0)
20109630:	8385                	srl	a5,a5,0x1
20109632:	fcf42c23          	sw	a5,-40(s0)
C:\VSD_Sqd_Project\sifive_hifive1_BitNet_MNIST_App\src/app_inference.h:52
        shift++;
20109636:	fdc42783          	lw	a5,-36(s0)
2010963a:	0785                	add	a5,a5,1
2010963c:	fcf42e23          	sw	a5,-36(s0)
C:\VSD_Sqd_Project\sifive_hifive1_BitNet_MNIST_App\src/app_inference.h:50
    while (temp_max_val > 127) {
20109640:	fd842703          	lw	a4,-40(s0)
20109644:	07f00793          	li	a5,127
20109648:	fee7e2e3          	bltu	a5,a4,2010962c <ReLUNorm+0xac>
C:\VSD_Sqd_Project\sifive_hifive1_BitNet_MNIST_App\src/app_inference.h:55
    }

    int32_t rounding = (shift > 0) ? (1 << (shift - 1)) : 0;
2010964c:	fdc42783          	lw	a5,-36(s0)
20109650:	cb81                	beqz	a5,20109660 <ReLUNorm+0xe0>
C:\VSD_Sqd_Project\sifive_hifive1_BitNet_MNIST_App\src/app_inference.h:55 (discriminator 1)
20109652:	fdc42783          	lw	a5,-36(s0)
20109656:	17fd                	add	a5,a5,-1
20109658:	4705                	li	a4,1
2010965a:	00f717b3          	sll	a5,a4,a5
2010965e:	a011                	j	20109662 <ReLUNorm+0xe2>
C:\VSD_Sqd_Project\sifive_hifive1_BitNet_MNIST_App\src/app_inference.h:55 (discriminator 2)
20109660:	4781                	li	a5,0
C:\VSD_Sqd_Project\sifive_hifive1_BitNet_MNIST_App\src/app_inference.h:55 (discriminator 4)
20109662:	fcf42823          	sw	a5,-48(s0)
C:\VSD_Sqd_Project\sifive_hifive1_BitNet_MNIST_App\src/app_inference.h:57

    for (uint32_t i = 0; i < n_input; i++) {
20109666:	fc042a23          	sw	zero,-44(s0)
2010966a:	a051                	j	201096ee <ReLUNorm+0x16e>
C:\VSD_Sqd_Project\sifive_hifive1_BitNet_MNIST_App\src/app_inference.h:58
        if (input[i] < 0) {
2010966c:	fd442783          	lw	a5,-44(s0)
20109670:	078a                	sll	a5,a5,0x2
20109672:	fbc42703          	lw	a4,-68(s0)
20109676:	97ba                	add	a5,a5,a4
20109678:	439c                	lw	a5,0(a5)
2010967a:	0007da63          	bgez	a5,2010968e <ReLUNorm+0x10e>
C:\VSD_Sqd_Project\sifive_hifive1_BitNet_MNIST_App\src/app_inference.h:59
            output[i] = 0;
2010967e:	fb842703          	lw	a4,-72(s0)
20109682:	fd442783          	lw	a5,-44(s0)
20109686:	97ba                	add	a5,a5,a4
20109688:	00078023          	sb	zero,0(a5)
2010968c:	a8a1                	j	201096e4 <ReLUNorm+0x164>
C:\VSD_Sqd_Project\sifive_hifive1_BitNet_MNIST_App\src/app_inference.h:61
        } else {
            int32_t scaled_val = (input[i] + rounding) >> shift;
2010968e:	fd442783          	lw	a5,-44(s0)
20109692:	078a                	sll	a5,a5,0x2
20109694:	fbc42703          	lw	a4,-68(s0)
20109698:	97ba                	add	a5,a5,a4
2010969a:	4398                	lw	a4,0(a5)
2010969c:	fd042783          	lw	a5,-48(s0)
201096a0:	973e                	add	a4,a4,a5
201096a2:	fdc42783          	lw	a5,-36(s0)
201096a6:	40f757b3          	sra	a5,a4,a5
201096aa:	fcf42623          	sw	a5,-52(s0)
C:\VSD_Sqd_Project\sifive_hifive1_BitNet_MNIST_App\src/app_inference.h:63

            if (scaled_val > 127) {
201096ae:	fcc42703          	lw	a4,-52(s0)
201096b2:	07f00793          	li	a5,127
201096b6:	00e7dc63          	bge	a5,a4,201096ce <ReLUNorm+0x14e>
C:\VSD_Sqd_Project\sifive_hifive1_BitNet_MNIST_App\src/app_inference.h:64
                output[i] = 127;
201096ba:	fb842703          	lw	a4,-72(s0)
201096be:	fd442783          	lw	a5,-44(s0)
201096c2:	97ba                	add	a5,a5,a4
201096c4:	07f00713          	li	a4,127
201096c8:	00e78023          	sb	a4,0(a5)
201096cc:	a821                	j	201096e4 <ReLUNorm+0x164>
C:\VSD_Sqd_Project\sifive_hifive1_BitNet_MNIST_App\src/app_inference.h:66
            } else {
                output[i] = (int8_t)scaled_val;
201096ce:	fb842703          	lw	a4,-72(s0)
201096d2:	fd442783          	lw	a5,-44(s0)
201096d6:	97ba                	add	a5,a5,a4
201096d8:	fcc42703          	lw	a4,-52(s0)
201096dc:	0762                	sll	a4,a4,0x18
201096de:	8761                	sra	a4,a4,0x18
201096e0:	00e78023          	sb	a4,0(a5)
C:\VSD_Sqd_Project\sifive_hifive1_BitNet_MNIST_App\src/app_inference.h:57 (discriminator 2)
    for (uint32_t i = 0; i < n_input; i++) {
201096e4:	fd442783          	lw	a5,-44(s0)
201096e8:	0785                	add	a5,a5,1
201096ea:	fcf42a23          	sw	a5,-44(s0)
C:\VSD_Sqd_Project\sifive_hifive1_BitNet_MNIST_App\src/app_inference.h:57 (discriminator 1)
201096ee:	fd442703          	lw	a4,-44(s0)
201096f2:	fb442783          	lw	a5,-76(s0)
201096f6:	f6f76be3          	bltu	a4,a5,2010966c <ReLUNorm+0xec>
C:\VSD_Sqd_Project\sifive_hifive1_BitNet_MNIST_App\src/app_inference.h:70
            }
        }
    }
    return max_pos;
201096fa:	fe842783          	lw	a5,-24(s0)
C:\VSD_Sqd_Project\sifive_hifive1_BitNet_MNIST_App\src/app_inference.h:71
}
201096fe:	853e                	mv	a0,a5
20109700:	4436                	lw	s0,76(sp)
20109702:	6161                	add	sp,sp,80
20109704:	8082                	ret

20109706 <processfclayer>:
processfclayer():
C:\VSD_Sqd_Project\sifive_hifive1_BitNet_MNIST_App\src/app_inference.h:84
 * @param n_input The number of input neurons.
 * @param n_output The number of output neurons.
 * @param output Pointer to the output array (32-bit sum).
 */
void processfclayer(int8_t *activations, const uint32_t *weights,
                   const int32_t *biases, uint32_t n_input, uint32_t n_output, int32_t *output) {
20109706:	715d                	add	sp,sp,-80
20109708:	c6a2                	sw	s0,76(sp)
2010970a:	0880                	add	s0,sp,80
2010970c:	fca42623          	sw	a0,-52(s0)
20109710:	fcb42423          	sw	a1,-56(s0)
20109714:	fcc42223          	sw	a2,-60(s0)
20109718:	fcd42023          	sw	a3,-64(s0)
2010971c:	fae42e23          	sw	a4,-68(s0)
20109720:	faf42c23          	sw	a5,-72(s0)
C:\VSD_Sqd_Project\sifive_hifive1_BitNet_MNIST_App\src/app_inference.h:89
    // This corrected implementation assumes 8-bit weights packed into uint32_t
    // where each uint32_t contains 4 int8 weights.
    // The original code was overly complex and had incorrect indexing for weights.

    for (uint32_t o = 0; o < n_output; o++) {
20109724:	fe042623          	sw	zero,-20(s0)
20109728:	aa81                	j	20109878 <processfclayer+0x172>
C:\VSD_Sqd_Project\sifive_hifive1_BitNet_MNIST_App\src/app_inference.h:90
        int32_t sum = biases[o];
2010972a:	fec42783          	lw	a5,-20(s0)
2010972e:	078a                	sll	a5,a5,0x2
20109730:	fc442703          	lw	a4,-60(s0)
20109734:	97ba                	add	a5,a5,a4
20109736:	439c                	lw	a5,0(a5)
20109738:	fef42423          	sw	a5,-24(s0)
C:\VSD_Sqd_Project\sifive_hifive1_BitNet_MNIST_App\src/app_inference.h:93

        // Process all inputs for the current output neuron
        for (uint32_t i = 0; i < n_input; i += 4) {
2010973c:	fe042223          	sw	zero,-28(s0)
20109740:	aa01                	j	20109850 <processfclayer+0x14a>
C:\VSD_Sqd_Project\sifive_hifive1_BitNet_MNIST_App\src/app_inference.h:94
            uint32_t packed_weights = weights[(o * n_input / 4) + (i / 4)];
20109742:	fec42703          	lw	a4,-20(s0)
20109746:	fc042783          	lw	a5,-64(s0)
2010974a:	02f707b3          	mul	a5,a4,a5
2010974e:	0027d713          	srl	a4,a5,0x2
20109752:	fe442783          	lw	a5,-28(s0)
20109756:	8389                	srl	a5,a5,0x2
20109758:	97ba                	add	a5,a5,a4
2010975a:	078a                	sll	a5,a5,0x2
2010975c:	fc842703          	lw	a4,-56(s0)
20109760:	97ba                	add	a5,a5,a4
20109762:	439c                	lw	a5,0(a5)
20109764:	fef42023          	sw	a5,-32(s0)
C:\VSD_Sqd_Project\sifive_hifive1_BitNet_MNIST_App\src/app_inference.h:95
            int8_t weight_0 = (int8_t)((packed_weights >> 24) & 0xFF);
20109768:	fe042783          	lw	a5,-32(s0)
2010976c:	83e1                	srl	a5,a5,0x18
2010976e:	fcf40fa3          	sb	a5,-33(s0)
C:\VSD_Sqd_Project\sifive_hifive1_BitNet_MNIST_App\src/app_inference.h:96
            int8_t weight_1 = (int8_t)((packed_weights >> 16) & 0xFF);
20109772:	fe042783          	lw	a5,-32(s0)
20109776:	83c1                	srl	a5,a5,0x10
20109778:	fcf40f23          	sb	a5,-34(s0)
C:\VSD_Sqd_Project\sifive_hifive1_BitNet_MNIST_App\src/app_inference.h:97
            int8_t weight_2 = (int8_t)((packed_weights >> 8) & 0xFF);
2010977c:	fe042783          	lw	a5,-32(s0)
20109780:	83a1                	srl	a5,a5,0x8
20109782:	fcf40ea3          	sb	a5,-35(s0)
C:\VSD_Sqd_Project\sifive_hifive1_BitNet_MNIST_App\src/app_inference.h:98
            int8_t weight_3 = (int8_t)(packed_weights & 0xFF);
20109786:	fe042783          	lw	a5,-32(s0)
2010978a:	fcf40e23          	sb	a5,-36(s0)
C:\VSD_Sqd_Project\sifive_hifive1_BitNet_MNIST_App\src/app_inference.h:100

            sum += (int32_t)activations[i] * weight_0;
2010978e:	fcc42703          	lw	a4,-52(s0)
20109792:	fe442783          	lw	a5,-28(s0)
20109796:	97ba                	add	a5,a5,a4
20109798:	00078783          	lb	a5,0(a5)
2010979c:	873e                	mv	a4,a5
2010979e:	fdf40783          	lb	a5,-33(s0)
201097a2:	02f707b3          	mul	a5,a4,a5
201097a6:	fe842703          	lw	a4,-24(s0)
201097aa:	97ba                	add	a5,a5,a4
201097ac:	fef42423          	sw	a5,-24(s0)
C:\VSD_Sqd_Project\sifive_hifive1_BitNet_MNIST_App\src/app_inference.h:101
            if ((i + 1) < n_input) sum += (int32_t)activations[i+1] * weight_1;
201097b0:	fe442783          	lw	a5,-28(s0)
201097b4:	0785                	add	a5,a5,1
201097b6:	fc042703          	lw	a4,-64(s0)
201097ba:	02e7f463          	bgeu	a5,a4,201097e2 <processfclayer+0xdc>
C:\VSD_Sqd_Project\sifive_hifive1_BitNet_MNIST_App\src/app_inference.h:101 (discriminator 1)
201097be:	fe442783          	lw	a5,-28(s0)
201097c2:	0785                	add	a5,a5,1
201097c4:	fcc42703          	lw	a4,-52(s0)
201097c8:	97ba                	add	a5,a5,a4
201097ca:	00078783          	lb	a5,0(a5)
201097ce:	873e                	mv	a4,a5
201097d0:	fde40783          	lb	a5,-34(s0)
201097d4:	02f707b3          	mul	a5,a4,a5
201097d8:	fe842703          	lw	a4,-24(s0)
201097dc:	97ba                	add	a5,a5,a4
201097de:	fef42423          	sw	a5,-24(s0)
C:\VSD_Sqd_Project\sifive_hifive1_BitNet_MNIST_App\src/app_inference.h:102
            if ((i + 2) < n_input) sum += (int32_t)activations[i+2] * weight_2;
201097e2:	fe442783          	lw	a5,-28(s0)
201097e6:	0789                	add	a5,a5,2
201097e8:	fc042703          	lw	a4,-64(s0)
201097ec:	02e7f463          	bgeu	a5,a4,20109814 <processfclayer+0x10e>
C:\VSD_Sqd_Project\sifive_hifive1_BitNet_MNIST_App\src/app_inference.h:102 (discriminator 1)
201097f0:	fe442783          	lw	a5,-28(s0)
201097f4:	0789                	add	a5,a5,2
201097f6:	fcc42703          	lw	a4,-52(s0)
201097fa:	97ba                	add	a5,a5,a4
201097fc:	00078783          	lb	a5,0(a5)
20109800:	873e                	mv	a4,a5
20109802:	fdd40783          	lb	a5,-35(s0)
20109806:	02f707b3          	mul	a5,a4,a5
2010980a:	fe842703          	lw	a4,-24(s0)
2010980e:	97ba                	add	a5,a5,a4
20109810:	fef42423          	sw	a5,-24(s0)
C:\VSD_Sqd_Project\sifive_hifive1_BitNet_MNIST_App\src/app_inference.h:103
            if ((i + 3) < n_input) sum += (int32_t)activations[i+3] * weight_3;
20109814:	fe442783          	lw	a5,-28(s0)
20109818:	078d                	add	a5,a5,3
2010981a:	fc042703          	lw	a4,-64(s0)
2010981e:	02e7f463          	bgeu	a5,a4,20109846 <processfclayer+0x140>
C:\VSD_Sqd_Project\sifive_hifive1_BitNet_MNIST_App\src/app_inference.h:103 (discriminator 1)
20109822:	fe442783          	lw	a5,-28(s0)
20109826:	078d                	add	a5,a5,3
20109828:	fcc42703          	lw	a4,-52(s0)
2010982c:	97ba                	add	a5,a5,a4
2010982e:	00078783          	lb	a5,0(a5)
20109832:	873e                	mv	a4,a5
20109834:	fdc40783          	lb	a5,-36(s0)
20109838:	02f707b3          	mul	a5,a4,a5
2010983c:	fe842703          	lw	a4,-24(s0)
20109840:	97ba                	add	a5,a5,a4
20109842:	fef42423          	sw	a5,-24(s0)
C:\VSD_Sqd_Project\sifive_hifive1_BitNet_MNIST_App\src/app_inference.h:93 (discriminator 2)
        for (uint32_t i = 0; i < n_input; i += 4) {
20109846:	fe442783          	lw	a5,-28(s0)
2010984a:	0791                	add	a5,a5,4
2010984c:	fef42223          	sw	a5,-28(s0)
C:\VSD_Sqd_Project\sifive_hifive1_BitNet_MNIST_App\src/app_inference.h:93 (discriminator 1)
20109850:	fe442703          	lw	a4,-28(s0)
20109854:	fc042783          	lw	a5,-64(s0)
20109858:	eef765e3          	bltu	a4,a5,20109742 <processfclayer+0x3c>
C:\VSD_Sqd_Project\sifive_hifive1_BitNet_MNIST_App\src/app_inference.h:106
        }

        output[o] = sum;
2010985c:	fec42783          	lw	a5,-20(s0)
20109860:	078a                	sll	a5,a5,0x2
20109862:	fb842703          	lw	a4,-72(s0)
20109866:	97ba                	add	a5,a5,a4
20109868:	fe842703          	lw	a4,-24(s0)
2010986c:	c398                	sw	a4,0(a5)
C:\VSD_Sqd_Project\sifive_hifive1_BitNet_MNIST_App\src/app_inference.h:89 (discriminator 2)
    for (uint32_t o = 0; o < n_output; o++) {
2010986e:	fec42783          	lw	a5,-20(s0)
20109872:	0785                	add	a5,a5,1
20109874:	fef42623          	sw	a5,-20(s0)
C:\VSD_Sqd_Project\sifive_hifive1_BitNet_MNIST_App\src/app_inference.h:89 (discriminator 1)
20109878:	fec42703          	lw	a4,-20(s0)
2010987c:	fbc42783          	lw	a5,-68(s0)
20109880:	eaf765e3          	bltu	a4,a5,2010972a <processfclayer+0x24>
C:\VSD_Sqd_Project\sifive_hifive1_BitNet_MNIST_App\src/app_inference.h:108
    }
}
20109884:	0001                	nop
20109886:	0001                	nop
20109888:	4436                	lw	s0,76(sp)
2010988a:	6161                	add	sp,sp,80
2010988c:	8082                	ret

2010988e <display_banner>:
display_banner():
C:\VSD_Sqd_Project\sifive_hifive1_BitNet_MNIST_App\src/main.c:24
    for (volatile int i = 0; i < cycles; i++) {
        __asm__("nop");
    }
}

void display_banner (void) {
2010988e:	1141                	add	sp,sp,-16
20109890:	c606                	sw	ra,12(sp)
20109892:	c422                	sw	s0,8(sp)
20109894:	0800                	add	s0,sp,16
C:\VSD_Sqd_Project\sifive_hifive1_BitNet_MNIST_App\src/main.c:25
    printf("\n");
20109896:	4529                	li	a0,10
20109898:	23e9                	jal	20109e62 <putchar>
C:\VSD_Sqd_Project\sifive_hifive1_BitNet_MNIST_App\src/main.c:26
    printf("\n");
2010989a:	4529                	li	a0,10
2010989c:	23d9                	jal	20109e62 <putchar>
C:\VSD_Sqd_Project\sifive_hifive1_BitNet_MNIST_App\src/main.c:27
    printf("BitNet MNIST Dataset Handwritten Digit Classification on sifive-hifive1.\n");
2010989e:	201007b7          	lui	a5,0x20100
201098a2:	35078513          	add	a0,a5,848 # 20100350 <use_hfxosc+0x2c>
201098a6:	2d85                	jal	20109f16 <puts>
C:\VSD_Sqd_Project\sifive_hifive1_BitNet_MNIST_App\src/main.c:28
    printf("\n");
201098a8:	4529                	li	a0,10
201098aa:	2b65                	jal	20109e62 <putchar>
C:\VSD_Sqd_Project\sifive_hifive1_BitNet_MNIST_App\src/main.c:29
    printf("\n");
201098ac:	4529                	li	a0,10
201098ae:	2b55                	jal	20109e62 <putchar>
C:\VSD_Sqd_Project\sifive_hifive1_BitNet_MNIST_App\src/main.c:30
    printf("\n");
201098b0:	4529                	li	a0,10
201098b2:	2b45                	jal	20109e62 <putchar>
C:\VSD_Sqd_Project\sifive_hifive1_BitNet_MNIST_App\src/main.c:31
    printf("By Shwetank Shekhar\n");
201098b4:	201007b7          	lui	a5,0x20100
201098b8:	39c78513          	add	a0,a5,924 # 2010039c <use_hfxosc+0x78>
201098bc:	2da9                	jal	20109f16 <puts>
C:\VSD_Sqd_Project\sifive_hifive1_BitNet_MNIST_App\src/main.c:32
}
201098be:	0001                	nop
201098c0:	40b2                	lw	ra,12(sp)
201098c2:	4422                	lw	s0,8(sp)
201098c4:	0141                	add	sp,sp,16
201098c6:	8082                	ret

201098c8 <BitMnistInference>:
BitMnistInference():
C:\VSD_Sqd_Project\sifive_hifive1_BitNet_MNIST_App\src/main.c:34

void BitMnistInference(const int8_t *input, const uint8_t label, const uint8_t sample) {
201098c8:	7115                	add	sp,sp,-224
201098ca:	cf86                	sw	ra,220(sp)
201098cc:	cda2                	sw	s0,216(sp)
201098ce:	cba6                	sw	s1,212(sp)
201098d0:	c9ca                	sw	s2,208(sp)
201098d2:	c7ce                	sw	s3,204(sp)
201098d4:	c5d2                	sw	s4,200(sp)
201098d6:	c3d6                	sw	s5,196(sp)
201098d8:	c1da                	sw	s6,192(sp)
201098da:	df5e                	sw	s7,188(sp)
201098dc:	dd62                	sw	s8,184(sp)
201098de:	db66                	sw	s9,180(sp)
201098e0:	d96a                	sw	s10,176(sp)
201098e2:	d76e                	sw	s11,172(sp)
201098e4:	1180                	add	s0,sp,224
201098e6:	f6a42e23          	sw	a0,-132(s0)
201098ea:	87ae                	mv	a5,a1
201098ec:	8732                	mv	a4,a2
201098ee:	f6f40da3          	sb	a5,-133(s0)
201098f2:	87ba                	mv	a5,a4
201098f4:	f6f40d23          	sb	a5,-134(s0)
201098f8:	878a                	mv	a5,sp
201098fa:	84be                	mv	s1,a5
C:\VSD_Sqd_Project\sifive_hifive1_BitNet_MNIST_App\src/main.c:37
    // Corrected to use local arrays to avoid static VLA error
    // MAX_N_ACTIVATIONS is sufficient for layer 2 output (16) and layer 3 output (10)
    int32_t layer1_sum[L1_outgoing_weights]; // 32 neurons
201098fc:	201097b7          	lui	a5,0x20109
20109900:	5347a783          	lw	a5,1332(a5) # 20109534 <L1_outgoing_weights>
20109904:	17fd                	add	a5,a5,-1
20109906:	faf42823          	sw	a5,-80(s0)
2010990a:	201097b7          	lui	a5,0x20109
2010990e:	5347a783          	lw	a5,1332(a5) # 20109534 <L1_outgoing_weights>
20109912:	833e                	mv	t1,a5
20109914:	4381                	li	t2,0
20109916:	01b35793          	srl	a5,t1,0x1b
2010991a:	00539893          	sll	a7,t2,0x5
2010991e:	0117e8b3          	or	a7,a5,a7
20109922:	00531813          	sll	a6,t1,0x5
20109926:	201097b7          	lui	a5,0x20109
2010992a:	5347a783          	lw	a5,1332(a5) # 20109534 <L1_outgoing_weights>
2010992e:	8f3e                	mv	t5,a5
20109930:	4f81                	li	t6,0
20109932:	01bf5793          	srl	a5,t5,0x1b
20109936:	005f9e93          	sll	t4,t6,0x5
2010993a:	01d7eeb3          	or	t4,a5,t4
2010993e:	005f1e13          	sll	t3,t5,0x5
20109942:	201097b7          	lui	a5,0x20109
20109946:	5347a783          	lw	a5,1332(a5) # 20109534 <L1_outgoing_weights>
2010994a:	078a                	sll	a5,a5,0x2
2010994c:	07bd                	add	a5,a5,15
2010994e:	8391                	srl	a5,a5,0x4
20109950:	0792                	sll	a5,a5,0x4
20109952:	40f10133          	sub	sp,sp,a5
20109956:	878a                	mv	a5,sp
20109958:	078d                	add	a5,a5,3
2010995a:	8389                	srl	a5,a5,0x2
2010995c:	078a                	sll	a5,a5,0x2
2010995e:	faf42623          	sw	a5,-84(s0)
C:\VSD_Sqd_Project\sifive_hifive1_BitNet_MNIST_App\src/main.c:38
    int8_t layer1_out[L1_outgoing_weights];
20109962:	201097b7          	lui	a5,0x20109
20109966:	5347a783          	lw	a5,1332(a5) # 20109534 <L1_outgoing_weights>
2010996a:	17fd                	add	a5,a5,-1
2010996c:	faf42423          	sw	a5,-88(s0)
20109970:	201097b7          	lui	a5,0x20109
20109974:	5347a783          	lw	a5,1332(a5) # 20109534 <L1_outgoing_weights>
20109978:	f4f42c23          	sw	a5,-168(s0)
2010997c:	f4042e23          	sw	zero,-164(s0)
20109980:	f5842603          	lw	a2,-168(s0)
20109984:	f5c42683          	lw	a3,-164(s0)
20109988:	87b2                	mv	a5,a2
2010998a:	83f5                	srl	a5,a5,0x1d
2010998c:	8736                	mv	a4,a3
2010998e:	00371993          	sll	s3,a4,0x3
20109992:	0137e9b3          	or	s3,a5,s3
20109996:	87b2                	mv	a5,a2
20109998:	00379913          	sll	s2,a5,0x3
2010999c:	201097b7          	lui	a5,0x20109
201099a0:	5347a783          	lw	a5,1332(a5) # 20109534 <L1_outgoing_weights>
201099a4:	f4f42823          	sw	a5,-176(s0)
201099a8:	f4042a23          	sw	zero,-172(s0)
201099ac:	f5042603          	lw	a2,-176(s0)
201099b0:	f5442683          	lw	a3,-172(s0)
201099b4:	87b2                	mv	a5,a2
201099b6:	83f5                	srl	a5,a5,0x1d
201099b8:	8736                	mv	a4,a3
201099ba:	070e                	sll	a4,a4,0x3
201099bc:	f6e42a23          	sw	a4,-140(s0)
201099c0:	f7442703          	lw	a4,-140(s0)
201099c4:	8fd9                	or	a5,a5,a4
201099c6:	f6f42a23          	sw	a5,-140(s0)
201099ca:	87b2                	mv	a5,a2
201099cc:	078e                	sll	a5,a5,0x3
201099ce:	f6f42823          	sw	a5,-144(s0)
201099d2:	201097b7          	lui	a5,0x20109
201099d6:	5347a783          	lw	a5,1332(a5) # 20109534 <L1_outgoing_weights>
201099da:	07bd                	add	a5,a5,15
201099dc:	8391                	srl	a5,a5,0x4
201099de:	0792                	sll	a5,a5,0x4
201099e0:	40f10133          	sub	sp,sp,a5
201099e4:	878a                	mv	a5,sp
201099e6:	87be                	mv	a5,a5
201099e8:	faf42223          	sw	a5,-92(s0)
C:\VSD_Sqd_Project\sifive_hifive1_BitNet_MNIST_App\src/main.c:40
    
    int32_t layer2_sum[L2_outgoing_weights]; // 16 neurons
201099ec:	201097b7          	lui	a5,0x20109
201099f0:	53c7a783          	lw	a5,1340(a5) # 2010953c <L2_outgoing_weights>
201099f4:	17fd                	add	a5,a5,-1
201099f6:	faf42023          	sw	a5,-96(s0)
201099fa:	201097b7          	lui	a5,0x20109
201099fe:	53c7a783          	lw	a5,1340(a5) # 2010953c <L2_outgoing_weights>
20109a02:	f4f42423          	sw	a5,-184(s0)
20109a06:	f4042623          	sw	zero,-180(s0)
20109a0a:	f4842603          	lw	a2,-184(s0)
20109a0e:	f4c42683          	lw	a3,-180(s0)
20109a12:	87b2                	mv	a5,a2
20109a14:	83ed                	srl	a5,a5,0x1b
20109a16:	8736                	mv	a4,a3
20109a18:	0716                	sll	a4,a4,0x5
20109a1a:	f6e42623          	sw	a4,-148(s0)
20109a1e:	f6c42703          	lw	a4,-148(s0)
20109a22:	8fd9                	or	a5,a5,a4
20109a24:	f6f42623          	sw	a5,-148(s0)
20109a28:	87b2                	mv	a5,a2
20109a2a:	0796                	sll	a5,a5,0x5
20109a2c:	f6f42423          	sw	a5,-152(s0)
20109a30:	201097b7          	lui	a5,0x20109
20109a34:	53c7a783          	lw	a5,1340(a5) # 2010953c <L2_outgoing_weights>
20109a38:	f4f42023          	sw	a5,-192(s0)
20109a3c:	f4042223          	sw	zero,-188(s0)
20109a40:	f4042603          	lw	a2,-192(s0)
20109a44:	f4442683          	lw	a3,-188(s0)
20109a48:	87b2                	mv	a5,a2
20109a4a:	83ed                	srl	a5,a5,0x1b
20109a4c:	8736                	mv	a4,a3
20109a4e:	0716                	sll	a4,a4,0x5
20109a50:	f6e42223          	sw	a4,-156(s0)
20109a54:	f6442703          	lw	a4,-156(s0)
20109a58:	8fd9                	or	a5,a5,a4
20109a5a:	f6f42223          	sw	a5,-156(s0)
20109a5e:	87b2                	mv	a5,a2
20109a60:	0796                	sll	a5,a5,0x5
20109a62:	f6f42023          	sw	a5,-160(s0)
20109a66:	201097b7          	lui	a5,0x20109
20109a6a:	53c7a783          	lw	a5,1340(a5) # 2010953c <L2_outgoing_weights>
20109a6e:	078a                	sll	a5,a5,0x2
20109a70:	07bd                	add	a5,a5,15
20109a72:	8391                	srl	a5,a5,0x4
20109a74:	0792                	sll	a5,a5,0x4
20109a76:	40f10133          	sub	sp,sp,a5
20109a7a:	878a                	mv	a5,sp
20109a7c:	078d                	add	a5,a5,3
20109a7e:	8389                	srl	a5,a5,0x2
20109a80:	078a                	sll	a5,a5,0x2
20109a82:	f8f42e23          	sw	a5,-100(s0)
C:\VSD_Sqd_Project\sifive_hifive1_BitNet_MNIST_App\src/main.c:41
    int8_t layer2_out[L2_outgoing_weights];
20109a86:	201097b7          	lui	a5,0x20109
20109a8a:	53c7a783          	lw	a5,1340(a5) # 2010953c <L2_outgoing_weights>
20109a8e:	17fd                	add	a5,a5,-1
20109a90:	f8f42c23          	sw	a5,-104(s0)
20109a94:	201097b7          	lui	a5,0x20109
20109a98:	53c7a783          	lw	a5,1340(a5) # 2010953c <L2_outgoing_weights>
20109a9c:	f2f42c23          	sw	a5,-200(s0)
20109aa0:	f2042e23          	sw	zero,-196(s0)
20109aa4:	f3842603          	lw	a2,-200(s0)
20109aa8:	f3c42683          	lw	a3,-196(s0)
20109aac:	87b2                	mv	a5,a2
20109aae:	83f5                	srl	a5,a5,0x1d
20109ab0:	8736                	mv	a4,a3
20109ab2:	00371d93          	sll	s11,a4,0x3
20109ab6:	01b7edb3          	or	s11,a5,s11
20109aba:	87b2                	mv	a5,a2
20109abc:	00379d13          	sll	s10,a5,0x3
20109ac0:	201097b7          	lui	a5,0x20109
20109ac4:	53c7a783          	lw	a5,1340(a5) # 2010953c <L2_outgoing_weights>
20109ac8:	f2f42823          	sw	a5,-208(s0)
20109acc:	f2042a23          	sw	zero,-204(s0)
20109ad0:	f3042603          	lw	a2,-208(s0)
20109ad4:	f3442683          	lw	a3,-204(s0)
20109ad8:	87b2                	mv	a5,a2
20109ada:	83f5                	srl	a5,a5,0x1d
20109adc:	8736                	mv	a4,a3
20109ade:	00371c93          	sll	s9,a4,0x3
20109ae2:	0197ecb3          	or	s9,a5,s9
20109ae6:	87b2                	mv	a5,a2
20109ae8:	00379c13          	sll	s8,a5,0x3
20109aec:	201097b7          	lui	a5,0x20109
20109af0:	53c7a783          	lw	a5,1340(a5) # 2010953c <L2_outgoing_weights>
20109af4:	07bd                	add	a5,a5,15
20109af6:	8391                	srl	a5,a5,0x4
20109af8:	0792                	sll	a5,a5,0x4
20109afa:	40f10133          	sub	sp,sp,a5
20109afe:	878a                	mv	a5,sp
20109b00:	87be                	mv	a5,a5
20109b02:	f8f42a23          	sw	a5,-108(s0)
C:\VSD_Sqd_Project\sifive_hifive1_BitNet_MNIST_App\src/main.c:43
    
    int32_t layer3_sum[L3_outgoing_weights]; // 10 neurons
20109b06:	201097b7          	lui	a5,0x20109
20109b0a:	5447a783          	lw	a5,1348(a5) # 20109544 <L3_outgoing_weights>
20109b0e:	17fd                	add	a5,a5,-1
20109b10:	f8f42823          	sw	a5,-112(s0)
20109b14:	201097b7          	lui	a5,0x20109
20109b18:	5447a783          	lw	a5,1348(a5) # 20109544 <L3_outgoing_weights>
20109b1c:	f2f42423          	sw	a5,-216(s0)
20109b20:	f2042623          	sw	zero,-212(s0)
20109b24:	f2842603          	lw	a2,-216(s0)
20109b28:	f2c42683          	lw	a3,-212(s0)
20109b2c:	87b2                	mv	a5,a2
20109b2e:	83ed                	srl	a5,a5,0x1b
20109b30:	8736                	mv	a4,a3
20109b32:	00571b93          	sll	s7,a4,0x5
20109b36:	0177ebb3          	or	s7,a5,s7
20109b3a:	87b2                	mv	a5,a2
20109b3c:	00579b13          	sll	s6,a5,0x5
20109b40:	201097b7          	lui	a5,0x20109
20109b44:	5447a783          	lw	a5,1348(a5) # 20109544 <L3_outgoing_weights>
20109b48:	f2f42023          	sw	a5,-224(s0)
20109b4c:	f2042223          	sw	zero,-220(s0)
20109b50:	f2042603          	lw	a2,-224(s0)
20109b54:	f2442683          	lw	a3,-220(s0)
20109b58:	87b2                	mv	a5,a2
20109b5a:	83ed                	srl	a5,a5,0x1b
20109b5c:	8736                	mv	a4,a3
20109b5e:	00571a93          	sll	s5,a4,0x5
20109b62:	0157eab3          	or	s5,a5,s5
20109b66:	87b2                	mv	a5,a2
20109b68:	00579a13          	sll	s4,a5,0x5
20109b6c:	201097b7          	lui	a5,0x20109
20109b70:	5447a783          	lw	a5,1348(a5) # 20109544 <L3_outgoing_weights>
20109b74:	078a                	sll	a5,a5,0x2
20109b76:	07bd                	add	a5,a5,15
20109b78:	8391                	srl	a5,a5,0x4
20109b7a:	0792                	sll	a5,a5,0x4
20109b7c:	40f10133          	sub	sp,sp,a5
20109b80:	878a                	mv	a5,sp
20109b82:	078d                	add	a5,a5,3
20109b84:	8389                	srl	a5,a5,0x2
20109b86:	078a                	sll	a5,a5,0x2
20109b88:	f8f42623          	sw	a5,-116(s0)
C:\VSD_Sqd_Project\sifive_hifive1_BitNet_MNIST_App\src/main.c:46
    uint32_t pred_digit;

    printf("Processing input for sample %d\n", sample);
20109b8c:	f7a44783          	lbu	a5,-134(s0)
20109b90:	85be                	mv	a1,a5
20109b92:	201007b7          	lui	a5,0x20100
20109b96:	3b078513          	add	a0,a5,944 # 201003b0 <use_hfxosc+0x8c>
20109b9a:	2c71                	jal	20109e36 <iprintf>
C:\VSD_Sqd_Project\sifive_hifive1_BitNet_MNIST_App\src/main.c:49

    // --- Layer 1 Processing ---
    printf("Debug: Starting first layer processing\n");
20109b9c:	201007b7          	lui	a5,0x20100
20109ba0:	3d078513          	add	a0,a5,976 # 201003d0 <use_hfxosc+0xac>
20109ba4:	2e8d                	jal	20109f16 <puts>
C:\VSD_Sqd_Project\sifive_hifive1_BitNet_MNIST_App\src/main.c:50
    processfclayer((int8_t*)input, L1_weights, L1_biases, L1_incoming_weights, L1_outgoing_weights, layer1_sum);
20109ba6:	201097b7          	lui	a5,0x20109
20109baa:	5307a683          	lw	a3,1328(a5) # 20109530 <L1_incoming_weights>
20109bae:	201097b7          	lui	a5,0x20109
20109bb2:	5347a703          	lw	a4,1332(a5) # 20109534 <L1_outgoing_weights>
20109bb6:	fac42783          	lw	a5,-84(s0)
20109bba:	20106637          	lui	a2,0x20106
20109bbe:	72060613          	add	a2,a2,1824 # 20106720 <L1_biases>
20109bc2:	201005b7          	lui	a1,0x20100
20109bc6:	52058593          	add	a1,a1,1312 # 20100520 <L1_weights>
20109bca:	f7c42503          	lw	a0,-132(s0)
20109bce:	3e25                	jal	20109706 <processfclayer>
C:\VSD_Sqd_Project\sifive_hifive1_BitNet_MNIST_App\src/main.c:52
    
    printf("Debug: First layer complete, applying ReLU\n");
20109bd0:	201007b7          	lui	a5,0x20100
20109bd4:	3f878513          	add	a0,a5,1016 # 201003f8 <use_hfxosc+0xd4>
20109bd8:	2e3d                	jal	20109f16 <puts>
C:\VSD_Sqd_Project\sifive_hifive1_BitNet_MNIST_App\src/main.c:53
    ReLUNorm(layer1_sum, layer1_out, L1_outgoing_weights);
20109bda:	201097b7          	lui	a5,0x20109
20109bde:	5347a783          	lw	a5,1332(a5) # 20109534 <L1_outgoing_weights>
20109be2:	863e                	mv	a2,a5
20109be4:	fa442583          	lw	a1,-92(s0)
20109be8:	fac42503          	lw	a0,-84(s0)
20109bec:	3a51                	jal	20109580 <ReLUNorm>
C:\VSD_Sqd_Project\sifive_hifive1_BitNet_MNIST_App\src/main.c:56

    // --- Layer 2 Processing ---
    printf("Debug: Starting second layer\n");
20109bee:	201007b7          	lui	a5,0x20100
20109bf2:	42478513          	add	a0,a5,1060 # 20100424 <use_hfxosc+0x100>
20109bf6:	2605                	jal	20109f16 <puts>
C:\VSD_Sqd_Project\sifive_hifive1_BitNet_MNIST_App\src/main.c:57
    processfclayer(layer1_out, L2_weights, L2_biases, L2_incoming_weights, L2_outgoing_weights, layer2_sum);
20109bf8:	201097b7          	lui	a5,0x20109
20109bfc:	5387a683          	lw	a3,1336(a5) # 20109538 <L2_incoming_weights>
20109c00:	201097b7          	lui	a5,0x20109
20109c04:	53c7a703          	lw	a4,1340(a5) # 2010953c <L2_outgoing_weights>
20109c08:	f9c42783          	lw	a5,-100(s0)
20109c0c:	20107637          	lui	a2,0x20107
20109c10:	9a060613          	add	a2,a2,-1632 # 201069a0 <L2_biases>
20109c14:	201065b7          	lui	a1,0x20106
20109c18:	7a058593          	add	a1,a1,1952 # 201067a0 <L2_weights>
20109c1c:	fa442503          	lw	a0,-92(s0)
20109c20:	34dd                	jal	20109706 <processfclayer>
C:\VSD_Sqd_Project\sifive_hifive1_BitNet_MNIST_App\src/main.c:59
    
    printf("Debug: Second layer complete, applying ReLU\n");
20109c22:	201007b7          	lui	a5,0x20100
20109c26:	44478513          	add	a0,a5,1092 # 20100444 <use_hfxosc+0x120>
20109c2a:	24f5                	jal	20109f16 <puts>
C:\VSD_Sqd_Project\sifive_hifive1_BitNet_MNIST_App\src/main.c:60
    ReLUNorm(layer2_sum, layer2_out, L2_outgoing_weights);
20109c2c:	201097b7          	lui	a5,0x20109
20109c30:	53c7a783          	lw	a5,1340(a5) # 2010953c <L2_outgoing_weights>
20109c34:	863e                	mv	a2,a5
20109c36:	f9442583          	lw	a1,-108(s0)
20109c3a:	f9c42503          	lw	a0,-100(s0)
20109c3e:	3289                	jal	20109580 <ReLUNorm>
C:\VSD_Sqd_Project\sifive_hifive1_BitNet_MNIST_App\src/main.c:63
    
    // --- Layer 3 Processing (Final Output Layer) ---
    printf("Debug: Starting third layer\n");
20109c40:	201007b7          	lui	a5,0x20100
20109c44:	47078513          	add	a0,a5,1136 # 20100470 <use_hfxosc+0x14c>
20109c48:	24f9                	jal	20109f16 <puts>
C:\VSD_Sqd_Project\sifive_hifive1_BitNet_MNIST_App\src/main.c:64
    processfclayer(layer2_out, L3_weights, L3_biases, L3_incoming_weights, L3_outgoing_weights, layer3_sum);
20109c4a:	201097b7          	lui	a5,0x20109
20109c4e:	5407a683          	lw	a3,1344(a5) # 20109540 <L3_incoming_weights>
20109c52:	201097b7          	lui	a5,0x20109
20109c56:	5447a703          	lw	a4,1348(a5) # 20109544 <L3_outgoing_weights>
20109c5a:	f8c42783          	lw	a5,-116(s0)
20109c5e:	20107637          	lui	a2,0x20107
20109c62:	a8060613          	add	a2,a2,-1408 # 20106a80 <L3_biases>
20109c66:	201075b7          	lui	a1,0x20107
20109c6a:	9e058593          	add	a1,a1,-1568 # 201069e0 <L3_weights>
20109c6e:	f9442503          	lw	a0,-108(s0)
20109c72:	3c51                	jal	20109706 <processfclayer>
C:\VSD_Sqd_Project\sifive_hifive1_BitNet_MNIST_App\src/main.c:66

    printf("Debug: Third layer complete, scaling outputs\n");
20109c74:	201007b7          	lui	a5,0x20100
20109c78:	48c78513          	add	a0,a5,1164 # 2010048c <use_hfxosc+0x168>
20109c7c:	2c69                	jal	20109f16 <puts>
C:\VSD_Sqd_Project\sifive_hifive1_BitNet_MNIST_App\src/main.c:69
    
    // Final prediction using a custom scaling function (not ReLUNorm)
    int32_t max_val = layer3_sum[0];
20109c7e:	f8c42783          	lw	a5,-116(s0)
20109c82:	439c                	lw	a5,0(a5)
20109c84:	faf42c23          	sw	a5,-72(s0)
C:\VSD_Sqd_Project\sifive_hifive1_BitNet_MNIST_App\src/main.c:70
    pred_digit = 0;
20109c88:	fa042e23          	sw	zero,-68(s0)
C:\VSD_Sqd_Project\sifive_hifive1_BitNet_MNIST_App\src/main.c:72
    
    for (int i = 1; i < L3_outgoing_weights; i++) {
20109c8c:	4785                	li	a5,1
20109c8e:	faf42a23          	sw	a5,-76(s0)
20109c92:	a835                	j	20109cce <BitMnistInference+0x406>
C:\VSD_Sqd_Project\sifive_hifive1_BitNet_MNIST_App\src/main.c:73
        if (layer3_sum[i] > max_val) {
20109c94:	f8c42703          	lw	a4,-116(s0)
20109c98:	fb442783          	lw	a5,-76(s0)
20109c9c:	078a                	sll	a5,a5,0x2
20109c9e:	97ba                	add	a5,a5,a4
20109ca0:	439c                	lw	a5,0(a5)
20109ca2:	fb842703          	lw	a4,-72(s0)
20109ca6:	00f75f63          	bge	a4,a5,20109cc4 <BitMnistInference+0x3fc>
C:\VSD_Sqd_Project\sifive_hifive1_BitNet_MNIST_App\src/main.c:74
            max_val = layer3_sum[i];
20109caa:	f8c42703          	lw	a4,-116(s0)
20109cae:	fb442783          	lw	a5,-76(s0)
20109cb2:	078a                	sll	a5,a5,0x2
20109cb4:	97ba                	add	a5,a5,a4
20109cb6:	439c                	lw	a5,0(a5)
20109cb8:	faf42c23          	sw	a5,-72(s0)
C:\VSD_Sqd_Project\sifive_hifive1_BitNet_MNIST_App\src/main.c:75
            pred_digit = i;
20109cbc:	fb442783          	lw	a5,-76(s0)
20109cc0:	faf42e23          	sw	a5,-68(s0)
C:\VSD_Sqd_Project\sifive_hifive1_BitNet_MNIST_App\src/main.c:72 (discriminator 2)
    for (int i = 1; i < L3_outgoing_weights; i++) {
20109cc4:	fb442783          	lw	a5,-76(s0)
20109cc8:	0785                	add	a5,a5,1
20109cca:	faf42a23          	sw	a5,-76(s0)
C:\VSD_Sqd_Project\sifive_hifive1_BitNet_MNIST_App\src/main.c:72 (discriminator 1)
20109cce:	fb442703          	lw	a4,-76(s0)
20109cd2:	201097b7          	lui	a5,0x20109
20109cd6:	5447a783          	lw	a5,1348(a5) # 20109544 <L3_outgoing_weights>
20109cda:	faf76de3          	bltu	a4,a5,20109c94 <BitMnistInference+0x3cc>
C:\VSD_Sqd_Project\sifive_hifive1_BitNet_MNIST_App\src/main.c:80
        }
    }
    
    // Print results for validation
    printf("Predicted digit: %d, True Label: %d, Status: %s\n",
20109cde:	f7b44603          	lbu	a2,-133(s0)
C:\VSD_Sqd_Project\sifive_hifive1_BitNet_MNIST_App\src/main.c:81
           pred_digit, label, (pred_digit == label) ? "PASS" : "FAIL");
20109ce2:	f7b44783          	lbu	a5,-133(s0)
C:\VSD_Sqd_Project\sifive_hifive1_BitNet_MNIST_App\src/main.c:80
    printf("Predicted digit: %d, True Label: %d, Status: %s\n",
20109ce6:	fbc42703          	lw	a4,-68(s0)
20109cea:	00f71763          	bne	a4,a5,20109cf8 <BitMnistInference+0x430>
C:\VSD_Sqd_Project\sifive_hifive1_BitNet_MNIST_App\src/main.c:80 (discriminator 1)
20109cee:	201007b7          	lui	a5,0x20100
20109cf2:	4bc78793          	add	a5,a5,1212 # 201004bc <use_hfxosc+0x198>
20109cf6:	a029                	j	20109d00 <BitMnistInference+0x438>
C:\VSD_Sqd_Project\sifive_hifive1_BitNet_MNIST_App\src/main.c:80 (discriminator 2)
20109cf8:	201007b7          	lui	a5,0x20100
20109cfc:	4c478793          	add	a5,a5,1220 # 201004c4 <use_hfxosc+0x1a0>
C:\VSD_Sqd_Project\sifive_hifive1_BitNet_MNIST_App\src/main.c:80 (discriminator 4)
20109d00:	86be                	mv	a3,a5
20109d02:	fbc42583          	lw	a1,-68(s0)
20109d06:	201007b7          	lui	a5,0x20100
20109d0a:	4cc78513          	add	a0,a5,1228 # 201004cc <use_hfxosc+0x1a8>
20109d0e:	2225                	jal	20109e36 <iprintf>
C:\VSD_Sqd_Project\sifive_hifive1_BitNet_MNIST_App\src/main.c:82
    printf("\n");
20109d10:	4529                	li	a0,10
20109d12:	2a81                	jal	20109e62 <putchar>
20109d14:	8126                	mv	sp,s1
C:\VSD_Sqd_Project\sifive_hifive1_BitNet_MNIST_App\src/main.c:83
}
20109d16:	0001                	nop
20109d18:	f2040113          	add	sp,s0,-224
20109d1c:	40fe                	lw	ra,220(sp)
20109d1e:	446e                	lw	s0,216(sp)
20109d20:	44de                	lw	s1,212(sp)
20109d22:	494e                	lw	s2,208(sp)
20109d24:	49be                	lw	s3,204(sp)
20109d26:	4a2e                	lw	s4,200(sp)
20109d28:	4a9e                	lw	s5,196(sp)
20109d2a:	4b0e                	lw	s6,192(sp)
20109d2c:	5bfa                	lw	s7,188(sp)
20109d2e:	5c6a                	lw	s8,184(sp)
20109d30:	5cda                	lw	s9,180(sp)
20109d32:	5d4a                	lw	s10,176(sp)
20109d34:	5dba                	lw	s11,172(sp)
20109d36:	612d                	add	sp,sp,224
20109d38:	8082                	ret

20109d3a <main>:
main():
C:\VSD_Sqd_Project\sifive_hifive1_BitNet_MNIST_App\src/main.c:85

int main (void) {
20109d3a:	1141                	add	sp,sp,-16
20109d3c:	c606                	sw	ra,12(sp)
20109d3e:	c422                	sw	s0,8(sp)
20109d40:	0800                	add	s0,sp,16
C:\VSD_Sqd_Project\sifive_hifive1_BitNet_MNIST_App\src/main.c:86
    display_banner();
20109d42:	36b1                	jal	2010988e <display_banner>
C:\VSD_Sqd_Project\sifive_hifive1_BitNet_MNIST_App\src/main.c:87
    printf("Starting MNIST inference...\n");
20109d44:	201007b7          	lui	a5,0x20100
20109d48:	50078513          	add	a0,a5,1280 # 20100500 <use_hfxosc+0x1dc>
20109d4c:	22e9                	jal	20109f16 <puts>
C:\VSD_Sqd_Project\sifive_hifive1_BitNet_MNIST_App\src/main.c:89

    BitMnistInference((const int8_t*)input_data_0, label_0, 1);
20109d4e:	201097b7          	lui	a5,0x20109
20109d52:	5487c783          	lbu	a5,1352(a5) # 20109548 <label_0>
20109d56:	4605                	li	a2,1
20109d58:	85be                	mv	a1,a5
20109d5a:	201077b7          	lui	a5,0x20107
20109d5e:	aa878513          	add	a0,a5,-1368 # 20106aa8 <input_data_0>
20109d62:	369d                	jal	201098c8 <BitMnistInference>
C:\VSD_Sqd_Project\sifive_hifive1_BitNet_MNIST_App\src/main.c:90
    BitMnistInference((const int8_t*)input_data_1, label_1, 2);
20109d64:	201097b7          	lui	a5,0x20109
20109d68:	5497c783          	lbu	a5,1353(a5) # 20109549 <label_1>
20109d6c:	4609                	li	a2,2
20109d6e:	85be                	mv	a1,a5
20109d70:	201077b7          	lui	a5,0x20107
20109d74:	db878513          	add	a0,a5,-584 # 20106db8 <input_data_1>
20109d78:	3e81                	jal	201098c8 <BitMnistInference>
C:\VSD_Sqd_Project\sifive_hifive1_BitNet_MNIST_App\src/main.c:91
    BitMnistInference((const int8_t*)input_data_2, label_2, 3);
20109d7a:	201097b7          	lui	a5,0x20109
20109d7e:	54a7c783          	lbu	a5,1354(a5) # 2010954a <label_2>
20109d82:	460d                	li	a2,3
20109d84:	85be                	mv	a1,a5
20109d86:	201077b7          	lui	a5,0x20107
20109d8a:	0c878513          	add	a0,a5,200 # 201070c8 <input_data_2>
20109d8e:	3e2d                	jal	201098c8 <BitMnistInference>
C:\VSD_Sqd_Project\sifive_hifive1_BitNet_MNIST_App\src/main.c:92
    BitMnistInference((const int8_t*)input_data_3, label_3, 4);
20109d90:	201097b7          	lui	a5,0x20109
20109d94:	54b7c783          	lbu	a5,1355(a5) # 2010954b <label_3>
20109d98:	4611                	li	a2,4
20109d9a:	85be                	mv	a1,a5
20109d9c:	201077b7          	lui	a5,0x20107
20109da0:	3d878513          	add	a0,a5,984 # 201073d8 <input_data_3>
20109da4:	3615                	jal	201098c8 <BitMnistInference>
C:\VSD_Sqd_Project\sifive_hifive1_BitNet_MNIST_App\src/main.c:93
    BitMnistInference((const int8_t*)input_data_4, label_4, 5);
20109da6:	201097b7          	lui	a5,0x20109
20109daa:	54c7c783          	lbu	a5,1356(a5) # 2010954c <label_4>
20109dae:	4615                	li	a2,5
20109db0:	85be                	mv	a1,a5
20109db2:	201077b7          	lui	a5,0x20107
20109db6:	6e878513          	add	a0,a5,1768 # 201076e8 <input_data_4>
20109dba:	3639                	jal	201098c8 <BitMnistInference>
C:\VSD_Sqd_Project\sifive_hifive1_BitNet_MNIST_App\src/main.c:94
    BitMnistInference((const int8_t*)input_data_5, label_5, 6);
20109dbc:	201097b7          	lui	a5,0x20109
20109dc0:	54d7c783          	lbu	a5,1357(a5) # 2010954d <label_5>
20109dc4:	4619                	li	a2,6
20109dc6:	85be                	mv	a1,a5
20109dc8:	201087b7          	lui	a5,0x20108
20109dcc:	9f878513          	add	a0,a5,-1544 # 201079f8 <input_data_5>
20109dd0:	3ce5                	jal	201098c8 <BitMnistInference>
C:\VSD_Sqd_Project\sifive_hifive1_BitNet_MNIST_App\src/main.c:95
    BitMnistInference((const int8_t*)input_data_6, label_6, 7);
20109dd2:	201097b7          	lui	a5,0x20109
20109dd6:	54e7c783          	lbu	a5,1358(a5) # 2010954e <label_6>
20109dda:	461d                	li	a2,7
20109ddc:	85be                	mv	a1,a5
20109dde:	201087b7          	lui	a5,0x20108
20109de2:	d0878513          	add	a0,a5,-760 # 20107d08 <input_data_6>
20109de6:	34cd                	jal	201098c8 <BitMnistInference>
C:\VSD_Sqd_Project\sifive_hifive1_BitNet_MNIST_App\src/main.c:96
    BitMnistInference((const int8_t*)input_data_7, label_7, 8);
20109de8:	201097b7          	lui	a5,0x20109
20109dec:	54f7c783          	lbu	a5,1359(a5) # 2010954f <label_7>
20109df0:	4621                	li	a2,8
20109df2:	85be                	mv	a1,a5
20109df4:	201087b7          	lui	a5,0x20108
20109df8:	01878513          	add	a0,a5,24 # 20108018 <input_data_7>
20109dfc:	34f1                	jal	201098c8 <BitMnistInference>
C:\VSD_Sqd_Project\sifive_hifive1_BitNet_MNIST_App\src/main.c:97
    BitMnistInference((const int8_t*)input_data_8, label_8, 9);
20109dfe:	201097b7          	lui	a5,0x20109
20109e02:	5507c783          	lbu	a5,1360(a5) # 20109550 <label_8>
20109e06:	4625                	li	a2,9
20109e08:	85be                	mv	a1,a5
20109e0a:	201087b7          	lui	a5,0x20108
20109e0e:	32878513          	add	a0,a5,808 # 20108328 <input_data_8>
20109e12:	3c5d                	jal	201098c8 <BitMnistInference>
C:\VSD_Sqd_Project\sifive_hifive1_BitNet_MNIST_App\src/main.c:98
    BitMnistInference((const int8_t*)input_data_9, label_9, 10);
20109e14:	201097b7          	lui	a5,0x20109
20109e18:	5517c783          	lbu	a5,1361(a5) # 20109551 <label_9>
20109e1c:	4629                	li	a2,10
20109e1e:	85be                	mv	a1,a5
20109e20:	201087b7          	lui	a5,0x20108
20109e24:	63878513          	add	a0,a5,1592 # 20108638 <input_data_9>
20109e28:	3445                	jal	201098c8 <BitMnistInference>
C:\VSD_Sqd_Project\sifive_hifive1_BitNet_MNIST_App\src/main.c:100

    return 0;
20109e2a:	4781                	li	a5,0
C:\VSD_Sqd_Project\sifive_hifive1_BitNet_MNIST_App\src/main.c:101
}
20109e2c:	853e                	mv	a0,a5
20109e2e:	40b2                	lw	ra,12(sp)
20109e30:	4422                	lw	s0,8(sp)
20109e32:	0141                	add	sp,sp,16
20109e34:	8082                	ret

20109e36 <iprintf>:
printf():
20109e36:	7139                	add	sp,sp,-64
20109e38:	d432                	sw	a2,40(sp)
20109e3a:	d636                	sw	a3,44(sp)
20109e3c:	da3e                	sw	a5,52(sp)
20109e3e:	d22e                	sw	a1,36(sp)
20109e40:	d83a                	sw	a4,48(sp)
20109e42:	dc42                	sw	a6,56(sp)
20109e44:	de46                	sw	a7,60(sp)
20109e46:	5fef7797          	auipc	a5,0x5fef7
20109e4a:	c2a7a783          	lw	a5,-982(a5) # 80000a70 <_impure_ptr>
20109e4e:	478c                	lw	a1,8(a5)
20109e50:	1054                	add	a3,sp,36
20109e52:	862a                	mv	a2,a0
20109e54:	853e                	mv	a0,a5
20109e56:	ce06                	sw	ra,28(sp)
20109e58:	c636                	sw	a3,12(sp)
20109e5a:	21c9                	jal	2010a31c <_vfiprintf_r>
20109e5c:	40f2                	lw	ra,28(sp)
20109e5e:	6121                	add	sp,sp,64
20109e60:	8082                	ret

20109e62 <putchar>:
putchar():
20109e62:	85aa                	mv	a1,a0
20109e64:	5fef7517          	auipc	a0,0x5fef7
20109e68:	c0c52503          	lw	a0,-1012(a0) # 80000a70 <_impure_ptr>
20109e6c:	4510                	lw	a2,8(a0)
20109e6e:	6770006f          	j	2010ace4 <_putc_r>

20109e72 <_puts_r>:
_puts_r():
20109e72:	511c                	lw	a5,32(a0)
20109e74:	1101                	add	sp,sp,-32
20109e76:	cc22                	sw	s0,24(sp)
20109e78:	ca26                	sw	s1,20(sp)
20109e7a:	c84a                	sw	s2,16(sp)
20109e7c:	ce06                	sw	ra,28(sp)
20109e7e:	c64e                	sw	s3,12(sp)
20109e80:	c452                	sw	s4,8(sp)
20109e82:	4500                	lw	s0,8(a0)
20109e84:	84aa                	mv	s1,a0
20109e86:	892e                	mv	s2,a1
20109e88:	e399                	bnez	a5,20109e8e <_puts_r+0x1c>
20109e8a:	4e3000ef          	jal	2010ab6c <__sinit>
20109e8e:	00c45783          	lhu	a5,12(s0)
20109e92:	8ba1                	and	a5,a5,8
20109e94:	c399                	beqz	a5,20109e9a <_puts_r+0x28>
20109e96:	481c                	lw	a5,16(s0)
20109e98:	e7a5                	bnez	a5,20109f00 <_puts_r+0x8e>
20109e9a:	85a2                	mv	a1,s0
20109e9c:	8526                	mv	a0,s1
20109e9e:	2205                	jal	20109fbe <__swsetup_r>
20109ea0:	c125                	beqz	a0,20109f00 <_puts_r+0x8e>
20109ea2:	557d                	li	a0,-1
20109ea4:	40f2                	lw	ra,28(sp)
20109ea6:	4462                	lw	s0,24(sp)
20109ea8:	44d2                	lw	s1,20(sp)
20109eaa:	4942                	lw	s2,16(sp)
20109eac:	49b2                	lw	s3,12(sp)
20109eae:	4a22                	lw	s4,8(sp)
20109eb0:	6105                	add	sp,sp,32
20109eb2:	8082                	ret
20109eb4:	c41c                	sw	a5,8(s0)
20109eb6:	0905                	add	s2,s2,1
20109eb8:	0007d763          	bgez	a5,20109ec6 <_puts_r+0x54>
20109ebc:	4c18                	lw	a4,24(s0)
20109ebe:	02e7cb63          	blt	a5,a4,20109ef4 <_puts_r+0x82>
20109ec2:	03458963          	beq	a1,s4,20109ef4 <_puts_r+0x82>
20109ec6:	401c                	lw	a5,0(s0)
20109ec8:	00178713          	add	a4,a5,1
20109ecc:	c018                	sw	a4,0(s0)
20109ece:	00b78023          	sb	a1,0(a5)
20109ed2:	441c                	lw	a5,8(s0)
20109ed4:	00094583          	lbu	a1,0(s2)
20109ed8:	17fd                	add	a5,a5,-1
20109eda:	fde9                	bnez	a1,20109eb4 <_puts_r+0x42>
20109edc:	c41c                	sw	a5,8(s0)
20109ede:	0207d463          	bgez	a5,20109f06 <_puts_r+0x94>
20109ee2:	8622                	mv	a2,s0
20109ee4:	45a9                	li	a1,10
20109ee6:	8526                	mv	a0,s1
20109ee8:	282d                	jal	20109f22 <__swbuf_r>
20109eea:	57fd                	li	a5,-1
20109eec:	faf50be3          	beq	a0,a5,20109ea2 <_puts_r+0x30>
20109ef0:	4529                	li	a0,10
20109ef2:	bf4d                	j	20109ea4 <_puts_r+0x32>
20109ef4:	8622                	mv	a2,s0
20109ef6:	8526                	mv	a0,s1
20109ef8:	202d                	jal	20109f22 <__swbuf_r>
20109efa:	fd351ce3          	bne	a0,s3,20109ed2 <_puts_r+0x60>
20109efe:	b755                	j	20109ea2 <_puts_r+0x30>
20109f00:	59fd                	li	s3,-1
20109f02:	4a29                	li	s4,10
20109f04:	b7f9                	j	20109ed2 <_puts_r+0x60>
20109f06:	401c                	lw	a5,0(s0)
20109f08:	00178713          	add	a4,a5,1
20109f0c:	c018                	sw	a4,0(s0)
20109f0e:	4729                	li	a4,10
20109f10:	00e78023          	sb	a4,0(a5)
20109f14:	bff1                	j	20109ef0 <_puts_r+0x7e>

20109f16 <puts>:
puts():
20109f16:	85aa                	mv	a1,a0
20109f18:	5fef7517          	auipc	a0,0x5fef7
20109f1c:	b5852503          	lw	a0,-1192(a0) # 80000a70 <_impure_ptr>
20109f20:	bf89                	j	20109e72 <_puts_r>

20109f22 <__swbuf_r>:
__swbuf_r():
20109f22:	1101                	add	sp,sp,-32
20109f24:	cc22                	sw	s0,24(sp)
20109f26:	ca26                	sw	s1,20(sp)
20109f28:	c84a                	sw	s2,16(sp)
20109f2a:	ce06                	sw	ra,28(sp)
20109f2c:	c64e                	sw	s3,12(sp)
20109f2e:	892a                	mv	s2,a0
20109f30:	84ae                	mv	s1,a1
20109f32:	8432                	mv	s0,a2
20109f34:	c509                	beqz	a0,20109f3e <__swbuf_r+0x1c>
20109f36:	511c                	lw	a5,32(a0)
20109f38:	e399                	bnez	a5,20109f3e <__swbuf_r+0x1c>
20109f3a:	433000ef          	jal	2010ab6c <__sinit>
20109f3e:	4c1c                	lw	a5,24(s0)
20109f40:	c41c                	sw	a5,8(s0)
20109f42:	00c45783          	lhu	a5,12(s0)
20109f46:	8ba1                	and	a5,a5,8
20109f48:	c399                	beqz	a5,20109f4e <__swbuf_r+0x2c>
20109f4a:	481c                	lw	a5,16(s0)
20109f4c:	ef91                	bnez	a5,20109f68 <__swbuf_r+0x46>
20109f4e:	85a2                	mv	a1,s0
20109f50:	854a                	mv	a0,s2
20109f52:	20b5                	jal	20109fbe <__swsetup_r>
20109f54:	c911                	beqz	a0,20109f68 <__swbuf_r+0x46>
20109f56:	54fd                	li	s1,-1
20109f58:	40f2                	lw	ra,28(sp)
20109f5a:	4462                	lw	s0,24(sp)
20109f5c:	4942                	lw	s2,16(sp)
20109f5e:	49b2                	lw	s3,12(sp)
20109f60:	8526                	mv	a0,s1
20109f62:	44d2                	lw	s1,20(sp)
20109f64:	6105                	add	sp,sp,32
20109f66:	8082                	ret
20109f68:	401c                	lw	a5,0(s0)
20109f6a:	4818                	lw	a4,16(s0)
20109f6c:	0ff4f993          	zext.b	s3,s1
20109f70:	0ff4f493          	zext.b	s1,s1
20109f74:	40e78533          	sub	a0,a5,a4
20109f78:	485c                	lw	a5,20(s0)
20109f7a:	00f54763          	blt	a0,a5,20109f88 <__swbuf_r+0x66>
20109f7e:	85a2                	mv	a1,s0
20109f80:	854a                	mv	a0,s2
20109f82:	2af000ef          	jal	2010aa30 <_fflush_r>
20109f86:	f961                	bnez	a0,20109f56 <__swbuf_r+0x34>
20109f88:	441c                	lw	a5,8(s0)
20109f8a:	17fd                	add	a5,a5,-1
20109f8c:	c41c                	sw	a5,8(s0)
20109f8e:	401c                	lw	a5,0(s0)
20109f90:	00178713          	add	a4,a5,1
20109f94:	c018                	sw	a4,0(s0)
20109f96:	01378023          	sb	s3,0(a5)
20109f9a:	4858                	lw	a4,20(s0)
20109f9c:	00150793          	add	a5,a0,1
20109fa0:	00f70963          	beq	a4,a5,20109fb2 <__swbuf_r+0x90>
20109fa4:	00c45783          	lhu	a5,12(s0)
20109fa8:	8b85                	and	a5,a5,1
20109faa:	d7dd                	beqz	a5,20109f58 <__swbuf_r+0x36>
20109fac:	47a9                	li	a5,10
20109fae:	faf495e3          	bne	s1,a5,20109f58 <__swbuf_r+0x36>
20109fb2:	85a2                	mv	a1,s0
20109fb4:	854a                	mv	a0,s2
20109fb6:	27b000ef          	jal	2010aa30 <_fflush_r>
20109fba:	dd59                	beqz	a0,20109f58 <__swbuf_r+0x36>
20109fbc:	bf69                	j	20109f56 <__swbuf_r+0x34>

20109fbe <__swsetup_r>:
__swsetup_r():
20109fbe:	1141                	add	sp,sp,-16
20109fc0:	c422                	sw	s0,8(sp)
20109fc2:	c226                	sw	s1,4(sp)
20109fc4:	c606                	sw	ra,12(sp)
20109fc6:	84aa                	mv	s1,a0
20109fc8:	5fef7517          	auipc	a0,0x5fef7
20109fcc:	aa852503          	lw	a0,-1368(a0) # 80000a70 <_impure_ptr>
20109fd0:	842e                	mv	s0,a1
20109fd2:	c509                	beqz	a0,20109fdc <__swsetup_r+0x1e>
20109fd4:	511c                	lw	a5,32(a0)
20109fd6:	e399                	bnez	a5,20109fdc <__swsetup_r+0x1e>
20109fd8:	395000ef          	jal	2010ab6c <__sinit>
20109fdc:	00c41783          	lh	a5,12(s0)
20109fe0:	0087f713          	and	a4,a5,8
20109fe4:	eb21                	bnez	a4,2010a034 <__swsetup_r+0x76>
20109fe6:	0107f713          	and	a4,a5,16
20109fea:	eb09                	bnez	a4,20109ffc <__swsetup_r+0x3e>
20109fec:	4725                	li	a4,9
20109fee:	c098                	sw	a4,0(s1)
20109ff0:	0407e793          	or	a5,a5,64
20109ff4:	00f41623          	sh	a5,12(s0)
20109ff8:	557d                	li	a0,-1
20109ffa:	a8a5                	j	2010a072 <__swsetup_r+0xb4>
20109ffc:	8b91                	and	a5,a5,4
20109ffe:	c78d                	beqz	a5,2010a028 <__swsetup_r+0x6a>
2010a000:	584c                	lw	a1,52(s0)
2010a002:	c989                	beqz	a1,2010a014 <__swsetup_r+0x56>
2010a004:	04440793          	add	a5,s0,68
2010a008:	00f58463          	beq	a1,a5,2010a010 <__swsetup_r+0x52>
2010a00c:	8526                	mv	a0,s1
2010a00e:	28b5                	jal	2010a08a <_free_r>
2010a010:	02042a23          	sw	zero,52(s0)
2010a014:	00c45783          	lhu	a5,12(s0)
2010a018:	00042223          	sw	zero,4(s0)
2010a01c:	fdb7f793          	and	a5,a5,-37
2010a020:	00f41623          	sh	a5,12(s0)
2010a024:	481c                	lw	a5,16(s0)
2010a026:	c01c                	sw	a5,0(s0)
2010a028:	00c45783          	lhu	a5,12(s0)
2010a02c:	0087e793          	or	a5,a5,8
2010a030:	00f41623          	sh	a5,12(s0)
2010a034:	481c                	lw	a5,16(s0)
2010a036:	ef89                	bnez	a5,2010a050 <__swsetup_r+0x92>
2010a038:	00c45783          	lhu	a5,12(s0)
2010a03c:	20000713          	li	a4,512
2010a040:	2807f793          	and	a5,a5,640
2010a044:	00e78663          	beq	a5,a4,2010a050 <__swsetup_r+0x92>
2010a048:	85a2                	mv	a1,s0
2010a04a:	8526                	mv	a0,s1
2010a04c:	3ff000ef          	jal	2010ac4a <__smakebuf_r>
2010a050:	00c41783          	lh	a5,12(s0)
2010a054:	0017f713          	and	a4,a5,1
2010a058:	c315                	beqz	a4,2010a07c <__swsetup_r+0xbe>
2010a05a:	4858                	lw	a4,20(s0)
2010a05c:	00042423          	sw	zero,8(s0)
2010a060:	40e00733          	neg	a4,a4
2010a064:	cc18                	sw	a4,24(s0)
2010a066:	4818                	lw	a4,16(s0)
2010a068:	4501                	li	a0,0
2010a06a:	e701                	bnez	a4,2010a072 <__swsetup_r+0xb4>
2010a06c:	0807f713          	and	a4,a5,128
2010a070:	f341                	bnez	a4,20109ff0 <__swsetup_r+0x32>
2010a072:	40b2                	lw	ra,12(sp)
2010a074:	4422                	lw	s0,8(sp)
2010a076:	4492                	lw	s1,4(sp)
2010a078:	0141                	add	sp,sp,16
2010a07a:	8082                	ret
2010a07c:	0027f713          	and	a4,a5,2
2010a080:	4681                	li	a3,0
2010a082:	e311                	bnez	a4,2010a086 <__swsetup_r+0xc8>
2010a084:	4854                	lw	a3,20(s0)
2010a086:	c414                	sw	a3,8(s0)
2010a088:	bff9                	j	2010a066 <__swsetup_r+0xa8>

2010a08a <_free_r>:
_free_r():
2010a08a:	c1c5                	beqz	a1,2010a12a <_free_r+0xa0>
2010a08c:	ffc5a783          	lw	a5,-4(a1)
2010a090:	1101                	add	sp,sp,-32
2010a092:	cc22                	sw	s0,24(sp)
2010a094:	ce06                	sw	ra,28(sp)
2010a096:	ffc58413          	add	s0,a1,-4
2010a09a:	0007d363          	bgez	a5,2010a0a0 <_free_r+0x16>
2010a09e:	943e                	add	s0,s0,a5
2010a0a0:	c62a                	sw	a0,12(sp)
2010a0a2:	2431                	jal	2010a2ae <__malloc_lock>
2010a0a4:	5fef7717          	auipc	a4,0x5fef7
2010a0a8:	9f870713          	add	a4,a4,-1544 # 80000a9c <__malloc_free_list>
2010a0ac:	431c                	lw	a5,0(a4)
2010a0ae:	4532                	lw	a0,12(sp)
2010a0b0:	eb81                	bnez	a5,2010a0c0 <_free_r+0x36>
2010a0b2:	00042223          	sw	zero,4(s0)
2010a0b6:	c300                	sw	s0,0(a4)
2010a0b8:	4462                	lw	s0,24(sp)
2010a0ba:	40f2                	lw	ra,28(sp)
2010a0bc:	6105                	add	sp,sp,32
2010a0be:	aacd                	j	2010a2b0 <__malloc_unlock>
2010a0c0:	00f47d63          	bgeu	s0,a5,2010a0da <_free_r+0x50>
2010a0c4:	4010                	lw	a2,0(s0)
2010a0c6:	00c406b3          	add	a3,s0,a2
2010a0ca:	00d79663          	bne	a5,a3,2010a0d6 <_free_r+0x4c>
2010a0ce:	4394                	lw	a3,0(a5)
2010a0d0:	43dc                	lw	a5,4(a5)
2010a0d2:	96b2                	add	a3,a3,a2
2010a0d4:	c014                	sw	a3,0(s0)
2010a0d6:	c05c                	sw	a5,4(s0)
2010a0d8:	bff9                	j	2010a0b6 <_free_r+0x2c>
2010a0da:	873e                	mv	a4,a5
2010a0dc:	43dc                	lw	a5,4(a5)
2010a0de:	c399                	beqz	a5,2010a0e4 <_free_r+0x5a>
2010a0e0:	fef47de3          	bgeu	s0,a5,2010a0da <_free_r+0x50>
2010a0e4:	4314                	lw	a3,0(a4)
2010a0e6:	00d70633          	add	a2,a4,a3
2010a0ea:	00861f63          	bne	a2,s0,2010a108 <_free_r+0x7e>
2010a0ee:	4010                	lw	a2,0(s0)
2010a0f0:	96b2                	add	a3,a3,a2
2010a0f2:	c314                	sw	a3,0(a4)
2010a0f4:	00d70633          	add	a2,a4,a3
2010a0f8:	fcc790e3          	bne	a5,a2,2010a0b8 <_free_r+0x2e>
2010a0fc:	4390                	lw	a2,0(a5)
2010a0fe:	43dc                	lw	a5,4(a5)
2010a100:	96b2                	add	a3,a3,a2
2010a102:	c314                	sw	a3,0(a4)
2010a104:	c35c                	sw	a5,4(a4)
2010a106:	bf4d                	j	2010a0b8 <_free_r+0x2e>
2010a108:	00c47563          	bgeu	s0,a2,2010a112 <_free_r+0x88>
2010a10c:	47b1                	li	a5,12
2010a10e:	c11c                	sw	a5,0(a0)
2010a110:	b765                	j	2010a0b8 <_free_r+0x2e>
2010a112:	4010                	lw	a2,0(s0)
2010a114:	00c406b3          	add	a3,s0,a2
2010a118:	00d79663          	bne	a5,a3,2010a124 <_free_r+0x9a>
2010a11c:	4394                	lw	a3,0(a5)
2010a11e:	43dc                	lw	a5,4(a5)
2010a120:	96b2                	add	a3,a3,a2
2010a122:	c014                	sw	a3,0(s0)
2010a124:	c05c                	sw	a5,4(s0)
2010a126:	c340                	sw	s0,4(a4)
2010a128:	bf41                	j	2010a0b8 <_free_r+0x2e>
2010a12a:	8082                	ret

2010a12c <sbrk_aligned>:
sbrk_aligned():
2010a12c:	1141                	add	sp,sp,-16
2010a12e:	c04a                	sw	s2,0(sp)
2010a130:	5fef7917          	auipc	s2,0x5fef7
2010a134:	96890913          	add	s2,s2,-1688 # 80000a98 <__malloc_sbrk_start>
2010a138:	00092783          	lw	a5,0(s2)
2010a13c:	c422                	sw	s0,8(sp)
2010a13e:	c226                	sw	s1,4(sp)
2010a140:	c606                	sw	ra,12(sp)
2010a142:	84aa                	mv	s1,a0
2010a144:	842e                	mv	s0,a1
2010a146:	e791                	bnez	a5,2010a152 <sbrk_aligned+0x26>
2010a148:	4581                	li	a1,0
2010a14a:	5b5000ef          	jal	2010aefe <_sbrk_r>
2010a14e:	00a92023          	sw	a0,0(s2)
2010a152:	85a2                	mv	a1,s0
2010a154:	8526                	mv	a0,s1
2010a156:	5a9000ef          	jal	2010aefe <_sbrk_r>
2010a15a:	597d                	li	s2,-1
2010a15c:	01251a63          	bne	a0,s2,2010a170 <sbrk_aligned+0x44>
2010a160:	547d                	li	s0,-1
2010a162:	40b2                	lw	ra,12(sp)
2010a164:	8522                	mv	a0,s0
2010a166:	4422                	lw	s0,8(sp)
2010a168:	4492                	lw	s1,4(sp)
2010a16a:	4902                	lw	s2,0(sp)
2010a16c:	0141                	add	sp,sp,16
2010a16e:	8082                	ret
2010a170:	00350413          	add	s0,a0,3
2010a174:	9871                	and	s0,s0,-4
2010a176:	fe8506e3          	beq	a0,s0,2010a162 <sbrk_aligned+0x36>
2010a17a:	40a405b3          	sub	a1,s0,a0
2010a17e:	8526                	mv	a0,s1
2010a180:	57f000ef          	jal	2010aefe <_sbrk_r>
2010a184:	fd251fe3          	bne	a0,s2,2010a162 <sbrk_aligned+0x36>
2010a188:	bfe1                	j	2010a160 <sbrk_aligned+0x34>

2010a18a <_malloc_r>:
_malloc_r():
2010a18a:	1101                	add	sp,sp,-32
2010a18c:	ca26                	sw	s1,20(sp)
2010a18e:	00358493          	add	s1,a1,3
2010a192:	98f1                	and	s1,s1,-4
2010a194:	c84a                	sw	s2,16(sp)
2010a196:	ce06                	sw	ra,28(sp)
2010a198:	cc22                	sw	s0,24(sp)
2010a19a:	c64e                	sw	s3,12(sp)
2010a19c:	c452                	sw	s4,8(sp)
2010a19e:	04a1                	add	s1,s1,8
2010a1a0:	47b1                	li	a5,12
2010a1a2:	892a                	mv	s2,a0
2010a1a4:	06f4f863          	bgeu	s1,a5,2010a214 <_malloc_r+0x8a>
2010a1a8:	44b1                	li	s1,12
2010a1aa:	06b4e763          	bltu	s1,a1,2010a218 <_malloc_r+0x8e>
2010a1ae:	854a                	mv	a0,s2
2010a1b0:	28fd                	jal	2010a2ae <__malloc_lock>
2010a1b2:	5fef7997          	auipc	s3,0x5fef7
2010a1b6:	8ea98993          	add	s3,s3,-1814 # 80000a9c <__malloc_free_list>
2010a1ba:	0009a783          	lw	a5,0(s3)
2010a1be:	843e                	mv	s0,a5
2010a1c0:	e825                	bnez	s0,2010a230 <_malloc_r+0xa6>
2010a1c2:	85a6                	mv	a1,s1
2010a1c4:	854a                	mv	a0,s2
2010a1c6:	379d                	jal	2010a12c <sbrk_aligned>
2010a1c8:	57fd                	li	a5,-1
2010a1ca:	842a                	mv	s0,a0
2010a1cc:	0cf51f63          	bne	a0,a5,2010a2aa <_malloc_r+0x120>
2010a1d0:	0009a403          	lw	s0,0(s3)
2010a1d4:	87a2                	mv	a5,s0
2010a1d6:	ebd5                	bnez	a5,2010a28a <_malloc_r+0x100>
2010a1d8:	c079                	beqz	s0,2010a29e <_malloc_r+0x114>
2010a1da:	00042a03          	lw	s4,0(s0)
2010a1de:	4581                	li	a1,0
2010a1e0:	854a                	mv	a0,s2
2010a1e2:	9a22                	add	s4,s4,s0
2010a1e4:	51b000ef          	jal	2010aefe <_sbrk_r>
2010a1e8:	0aaa1b63          	bne	s4,a0,2010a29e <_malloc_r+0x114>
2010a1ec:	401c                	lw	a5,0(s0)
2010a1ee:	854a                	mv	a0,s2
2010a1f0:	8c9d                	sub	s1,s1,a5
2010a1f2:	85a6                	mv	a1,s1
2010a1f4:	3f25                	jal	2010a12c <sbrk_aligned>
2010a1f6:	57fd                	li	a5,-1
2010a1f8:	0af50363          	beq	a0,a5,2010a29e <_malloc_r+0x114>
2010a1fc:	401c                	lw	a5,0(s0)
2010a1fe:	97a6                	add	a5,a5,s1
2010a200:	c01c                	sw	a5,0(s0)
2010a202:	0009a783          	lw	a5,0(s3)
2010a206:	43d8                	lw	a4,4(a5)
2010a208:	e741                	bnez	a4,2010a290 <_malloc_r+0x106>
2010a20a:	5fef7797          	auipc	a5,0x5fef7
2010a20e:	8807a923          	sw	zero,-1902(a5) # 80000a9c <__malloc_free_list>
2010a212:	a081                	j	2010a252 <_malloc_r+0xc8>
2010a214:	f804dbe3          	bgez	s1,2010a1aa <_malloc_r+0x20>
2010a218:	47b1                	li	a5,12
2010a21a:	00f92023          	sw	a5,0(s2)
2010a21e:	4501                	li	a0,0
2010a220:	40f2                	lw	ra,28(sp)
2010a222:	4462                	lw	s0,24(sp)
2010a224:	44d2                	lw	s1,20(sp)
2010a226:	4942                	lw	s2,16(sp)
2010a228:	49b2                	lw	s3,12(sp)
2010a22a:	4a22                	lw	s4,8(sp)
2010a22c:	6105                	add	sp,sp,32
2010a22e:	8082                	ret
2010a230:	4014                	lw	a3,0(s0)
2010a232:	8e85                	sub	a3,a3,s1
2010a234:	0406c863          	bltz	a3,2010a284 <_malloc_r+0xfa>
2010a238:	472d                	li	a4,11
2010a23a:	02d77d63          	bgeu	a4,a3,2010a274 <_malloc_r+0xea>
2010a23e:	c004                	sw	s1,0(s0)
2010a240:	00940733          	add	a4,s0,s1
2010a244:	02879663          	bne	a5,s0,2010a270 <_malloc_r+0xe6>
2010a248:	00e9a023          	sw	a4,0(s3)
2010a24c:	405c                	lw	a5,4(s0)
2010a24e:	c314                	sw	a3,0(a4)
2010a250:	c35c                	sw	a5,4(a4)
2010a252:	854a                	mv	a0,s2
2010a254:	28b1                	jal	2010a2b0 <__malloc_unlock>
2010a256:	00b40513          	add	a0,s0,11
2010a25a:	00440793          	add	a5,s0,4
2010a25e:	9961                	and	a0,a0,-8
2010a260:	40f50733          	sub	a4,a0,a5
2010a264:	faf50ee3          	beq	a0,a5,2010a220 <_malloc_r+0x96>
2010a268:	943a                	add	s0,s0,a4
2010a26a:	8f89                	sub	a5,a5,a0
2010a26c:	c01c                	sw	a5,0(s0)
2010a26e:	bf4d                	j	2010a220 <_malloc_r+0x96>
2010a270:	c3d8                	sw	a4,4(a5)
2010a272:	bfe9                	j	2010a24c <_malloc_r+0xc2>
2010a274:	4058                	lw	a4,4(s0)
2010a276:	00879563          	bne	a5,s0,2010a280 <_malloc_r+0xf6>
2010a27a:	00e9a023          	sw	a4,0(s3)
2010a27e:	bfd1                	j	2010a252 <_malloc_r+0xc8>
2010a280:	c3d8                	sw	a4,4(a5)
2010a282:	bfc1                	j	2010a252 <_malloc_r+0xc8>
2010a284:	87a2                	mv	a5,s0
2010a286:	4040                	lw	s0,4(s0)
2010a288:	bf25                	j	2010a1c0 <_malloc_r+0x36>
2010a28a:	843e                	mv	s0,a5
2010a28c:	43dc                	lw	a5,4(a5)
2010a28e:	b7a1                	j	2010a1d6 <_malloc_r+0x4c>
2010a290:	873e                	mv	a4,a5
2010a292:	43dc                	lw	a5,4(a5)
2010a294:	fe879ee3          	bne	a5,s0,2010a290 <_malloc_r+0x106>
2010a298:	00072223          	sw	zero,4(a4)
2010a29c:	bf5d                	j	2010a252 <_malloc_r+0xc8>
2010a29e:	47b1                	li	a5,12
2010a2a0:	00f92023          	sw	a5,0(s2)
2010a2a4:	854a                	mv	a0,s2
2010a2a6:	2029                	jal	2010a2b0 <__malloc_unlock>
2010a2a8:	bf9d                	j	2010a21e <_malloc_r+0x94>
2010a2aa:	c104                	sw	s1,0(a0)
2010a2ac:	b75d                	j	2010a252 <_malloc_r+0xc8>

2010a2ae <__malloc_lock>:
__malloc_lock():
2010a2ae:	8082                	ret

2010a2b0 <__malloc_unlock>:
__malloc_unlock():
2010a2b0:	8082                	ret

2010a2b2 <__sfputc_r>:
__sfputc_r():
2010a2b2:	461c                	lw	a5,8(a2)
2010a2b4:	17fd                	add	a5,a5,-1
2010a2b6:	c61c                	sw	a5,8(a2)
2010a2b8:	0007d963          	bgez	a5,2010a2ca <__sfputc_r+0x18>
2010a2bc:	4e18                	lw	a4,24(a2)
2010a2be:	00e7c563          	blt	a5,a4,2010a2c8 <__sfputc_r+0x16>
2010a2c2:	47a9                	li	a5,10
2010a2c4:	00f59363          	bne	a1,a5,2010a2ca <__sfputc_r+0x18>
2010a2c8:	b9a9                	j	20109f22 <__swbuf_r>
2010a2ca:	421c                	lw	a5,0(a2)
2010a2cc:	852e                	mv	a0,a1
2010a2ce:	00178713          	add	a4,a5,1
2010a2d2:	c218                	sw	a4,0(a2)
2010a2d4:	00b78023          	sb	a1,0(a5)
2010a2d8:	8082                	ret

2010a2da <__sfputs_r>:
__sfputs_r():
2010a2da:	1101                	add	sp,sp,-32
2010a2dc:	cc22                	sw	s0,24(sp)
2010a2de:	ca26                	sw	s1,20(sp)
2010a2e0:	c84a                	sw	s2,16(sp)
2010a2e2:	c64e                	sw	s3,12(sp)
2010a2e4:	c452                	sw	s4,8(sp)
2010a2e6:	ce06                	sw	ra,28(sp)
2010a2e8:	892a                	mv	s2,a0
2010a2ea:	89ae                	mv	s3,a1
2010a2ec:	8432                	mv	s0,a2
2010a2ee:	00d604b3          	add	s1,a2,a3
2010a2f2:	5a7d                	li	s4,-1
2010a2f4:	00941463          	bne	s0,s1,2010a2fc <__sfputs_r+0x22>
2010a2f8:	4501                	li	a0,0
2010a2fa:	a809                	j	2010a30c <__sfputs_r+0x32>
2010a2fc:	00044583          	lbu	a1,0(s0)
2010a300:	864e                	mv	a2,s3
2010a302:	854a                	mv	a0,s2
2010a304:	377d                	jal	2010a2b2 <__sfputc_r>
2010a306:	0405                	add	s0,s0,1
2010a308:	ff4516e3          	bne	a0,s4,2010a2f4 <__sfputs_r+0x1a>
2010a30c:	40f2                	lw	ra,28(sp)
2010a30e:	4462                	lw	s0,24(sp)
2010a310:	44d2                	lw	s1,20(sp)
2010a312:	4942                	lw	s2,16(sp)
2010a314:	49b2                	lw	s3,12(sp)
2010a316:	4a22                	lw	s4,8(sp)
2010a318:	6105                	add	sp,sp,32
2010a31a:	8082                	ret

2010a31c <_vfiprintf_r>:
_vfiprintf_r():
2010a31c:	7135                	add	sp,sp,-160
2010a31e:	cd22                	sw	s0,152(sp)
2010a320:	cb26                	sw	s1,148(sp)
2010a322:	c94a                	sw	s2,144(sp)
2010a324:	c74e                	sw	s3,140(sp)
2010a326:	cf06                	sw	ra,156(sp)
2010a328:	c552                	sw	s4,136(sp)
2010a32a:	c356                	sw	s5,132(sp)
2010a32c:	c15a                	sw	s6,128(sp)
2010a32e:	dede                	sw	s7,124(sp)
2010a330:	dce2                	sw	s8,120(sp)
2010a332:	dae6                	sw	s9,116(sp)
2010a334:	89aa                	mv	s3,a0
2010a336:	892e                	mv	s2,a1
2010a338:	84b2                	mv	s1,a2
2010a33a:	8436                	mv	s0,a3
2010a33c:	c509                	beqz	a0,2010a346 <_vfiprintf_r+0x2a>
2010a33e:	511c                	lw	a5,32(a0)
2010a340:	e399                	bnez	a5,2010a346 <_vfiprintf_r+0x2a>
2010a342:	02b000ef          	jal	2010ab6c <__sinit>
2010a346:	00c95783          	lhu	a5,12(s2)
2010a34a:	8ba1                	and	a5,a5,8
2010a34c:	c7f1                	beqz	a5,2010a418 <_vfiprintf_r+0xfc>
2010a34e:	01092783          	lw	a5,16(s2)
2010a352:	c3f9                	beqz	a5,2010a418 <_vfiprintf_r+0xfc>
2010a354:	02000793          	li	a5,32
2010a358:	02f104a3          	sb	a5,41(sp)
2010a35c:	03000793          	li	a5,48
2010a360:	d202                	sw	zero,36(sp)
2010a362:	02f10523          	sb	a5,42(sp)
2010a366:	c622                	sw	s0,12(sp)
2010a368:	02500b93          	li	s7,37
2010a36c:	ffffea97          	auipc	s5,0xffffe
2010a370:	5dca8a93          	add	s5,s5,1500 # 20108948 <input_data_9+0x310>
2010a374:	4c05                	li	s8,1
2010a376:	4b29                	li	s6,10
2010a378:	8426                	mv	s0,s1
2010a37a:	00044783          	lbu	a5,0(s0)
2010a37e:	c399                	beqz	a5,2010a384 <_vfiprintf_r+0x68>
2010a380:	0b779e63          	bne	a5,s7,2010a43c <_vfiprintf_r+0x120>
2010a384:	40940cb3          	sub	s9,s0,s1
2010a388:	00940d63          	beq	s0,s1,2010a3a2 <_vfiprintf_r+0x86>
2010a38c:	86e6                	mv	a3,s9
2010a38e:	8626                	mv	a2,s1
2010a390:	85ca                	mv	a1,s2
2010a392:	854e                	mv	a0,s3
2010a394:	3799                	jal	2010a2da <__sfputs_r>
2010a396:	57fd                	li	a5,-1
2010a398:	1cf50363          	beq	a0,a5,2010a55e <_vfiprintf_r+0x242>
2010a39c:	5792                	lw	a5,36(sp)
2010a39e:	97e6                	add	a5,a5,s9
2010a3a0:	d23e                	sw	a5,36(sp)
2010a3a2:	00044783          	lbu	a5,0(s0)
2010a3a6:	1a078c63          	beqz	a5,2010a55e <_vfiprintf_r+0x242>
2010a3aa:	57fd                	li	a5,-1
2010a3ac:	00140493          	add	s1,s0,1
2010a3b0:	c802                	sw	zero,16(sp)
2010a3b2:	ce02                	sw	zero,28(sp)
2010a3b4:	ca3e                	sw	a5,20(sp)
2010a3b6:	cc02                	sw	zero,24(sp)
2010a3b8:	040109a3          	sb	zero,83(sp)
2010a3bc:	d482                	sw	zero,104(sp)
2010a3be:	0004c583          	lbu	a1,0(s1)
2010a3c2:	4615                	li	a2,5
2010a3c4:	8556                	mv	a0,s5
2010a3c6:	22f000ef          	jal	2010adf4 <memchr>
2010a3ca:	47c2                	lw	a5,16(sp)
2010a3cc:	00148413          	add	s0,s1,1
2010a3d0:	e925                	bnez	a0,2010a440 <_vfiprintf_r+0x124>
2010a3d2:	0107f713          	and	a4,a5,16
2010a3d6:	c709                	beqz	a4,2010a3e0 <_vfiprintf_r+0xc4>
2010a3d8:	02000713          	li	a4,32
2010a3dc:	04e109a3          	sb	a4,83(sp)
2010a3e0:	0087f713          	and	a4,a5,8
2010a3e4:	c709                	beqz	a4,2010a3ee <_vfiprintf_r+0xd2>
2010a3e6:	02b00713          	li	a4,43
2010a3ea:	04e109a3          	sb	a4,83(sp)
2010a3ee:	0004c683          	lbu	a3,0(s1)
2010a3f2:	02a00713          	li	a4,42
2010a3f6:	04e68d63          	beq	a3,a4,2010a450 <_vfiprintf_r+0x134>
2010a3fa:	47f2                	lw	a5,28(sp)
2010a3fc:	8426                	mv	s0,s1
2010a3fe:	4681                	li	a3,0
2010a400:	4625                	li	a2,9
2010a402:	00044703          	lbu	a4,0(s0)
2010a406:	00140593          	add	a1,s0,1
2010a40a:	fd070713          	add	a4,a4,-48
2010a40e:	08e67763          	bgeu	a2,a4,2010a49c <_vfiprintf_r+0x180>
2010a412:	c6b9                	beqz	a3,2010a460 <_vfiprintf_r+0x144>
2010a414:	ce3e                	sw	a5,28(sp)
2010a416:	a0a9                	j	2010a460 <_vfiprintf_r+0x144>
2010a418:	85ca                	mv	a1,s2
2010a41a:	854e                	mv	a0,s3
2010a41c:	364d                	jal	20109fbe <__swsetup_r>
2010a41e:	d91d                	beqz	a0,2010a354 <_vfiprintf_r+0x38>
2010a420:	557d                	li	a0,-1
2010a422:	40fa                	lw	ra,156(sp)
2010a424:	446a                	lw	s0,152(sp)
2010a426:	44da                	lw	s1,148(sp)
2010a428:	494a                	lw	s2,144(sp)
2010a42a:	49ba                	lw	s3,140(sp)
2010a42c:	4a2a                	lw	s4,136(sp)
2010a42e:	4a9a                	lw	s5,132(sp)
2010a430:	4b0a                	lw	s6,128(sp)
2010a432:	5bf6                	lw	s7,124(sp)
2010a434:	5c66                	lw	s8,120(sp)
2010a436:	5cd6                	lw	s9,116(sp)
2010a438:	610d                	add	sp,sp,160
2010a43a:	8082                	ret
2010a43c:	0405                	add	s0,s0,1
2010a43e:	bf35                	j	2010a37a <_vfiprintf_r+0x5e>
2010a440:	41550533          	sub	a0,a0,s5
2010a444:	00ac1533          	sll	a0,s8,a0
2010a448:	8fc9                	or	a5,a5,a0
2010a44a:	c83e                	sw	a5,16(sp)
2010a44c:	84a2                	mv	s1,s0
2010a44e:	bf85                	j	2010a3be <_vfiprintf_r+0xa2>
2010a450:	4732                	lw	a4,12(sp)
2010a452:	00470693          	add	a3,a4,4
2010a456:	4318                	lw	a4,0(a4)
2010a458:	c636                	sw	a3,12(sp)
2010a45a:	02074a63          	bltz	a4,2010a48e <_vfiprintf_r+0x172>
2010a45e:	ce3a                	sw	a4,28(sp)
2010a460:	00044703          	lbu	a4,0(s0)
2010a464:	02e00793          	li	a5,46
2010a468:	04f71e63          	bne	a4,a5,2010a4c4 <_vfiprintf_r+0x1a8>
2010a46c:	00144703          	lbu	a4,1(s0)
2010a470:	02a00793          	li	a5,42
2010a474:	02f71a63          	bne	a4,a5,2010a4a8 <_vfiprintf_r+0x18c>
2010a478:	47b2                	lw	a5,12(sp)
2010a47a:	0409                	add	s0,s0,2
2010a47c:	00478713          	add	a4,a5,4
2010a480:	439c                	lw	a5,0(a5)
2010a482:	c63a                	sw	a4,12(sp)
2010a484:	0007d363          	bgez	a5,2010a48a <_vfiprintf_r+0x16e>
2010a488:	57fd                	li	a5,-1
2010a48a:	ca3e                	sw	a5,20(sp)
2010a48c:	a825                	j	2010a4c4 <_vfiprintf_r+0x1a8>
2010a48e:	40e00733          	neg	a4,a4
2010a492:	0027e793          	or	a5,a5,2
2010a496:	ce3a                	sw	a4,28(sp)
2010a498:	c83e                	sw	a5,16(sp)
2010a49a:	b7d9                	j	2010a460 <_vfiprintf_r+0x144>
2010a49c:	036787b3          	mul	a5,a5,s6
2010a4a0:	842e                	mv	s0,a1
2010a4a2:	4685                	li	a3,1
2010a4a4:	97ba                	add	a5,a5,a4
2010a4a6:	bfb1                	j	2010a402 <_vfiprintf_r+0xe6>
2010a4a8:	0405                	add	s0,s0,1
2010a4aa:	ca02                	sw	zero,20(sp)
2010a4ac:	4681                	li	a3,0
2010a4ae:	4781                	li	a5,0
2010a4b0:	4625                	li	a2,9
2010a4b2:	00044703          	lbu	a4,0(s0)
2010a4b6:	00140593          	add	a1,s0,1
2010a4ba:	fd070713          	add	a4,a4,-48
2010a4be:	06e67663          	bgeu	a2,a4,2010a52a <_vfiprintf_r+0x20e>
2010a4c2:	f6e1                	bnez	a3,2010a48a <_vfiprintf_r+0x16e>
2010a4c4:	00044583          	lbu	a1,0(s0)
2010a4c8:	460d                	li	a2,3
2010a4ca:	ffffe517          	auipc	a0,0xffffe
2010a4ce:	48650513          	add	a0,a0,1158 # 20108950 <input_data_9+0x318>
2010a4d2:	123000ef          	jal	2010adf4 <memchr>
2010a4d6:	cd11                	beqz	a0,2010a4f2 <_vfiprintf_r+0x1d6>
2010a4d8:	ffffe797          	auipc	a5,0xffffe
2010a4dc:	47878793          	add	a5,a5,1144 # 20108950 <input_data_9+0x318>
2010a4e0:	8d1d                	sub	a0,a0,a5
2010a4e2:	47c2                	lw	a5,16(sp)
2010a4e4:	04000713          	li	a4,64
2010a4e8:	00a71733          	sll	a4,a4,a0
2010a4ec:	8fd9                	or	a5,a5,a4
2010a4ee:	0405                	add	s0,s0,1
2010a4f0:	c83e                	sw	a5,16(sp)
2010a4f2:	00044583          	lbu	a1,0(s0)
2010a4f6:	4619                	li	a2,6
2010a4f8:	ffffe517          	auipc	a0,0xffffe
2010a4fc:	45c50513          	add	a0,a0,1116 # 20108954 <input_data_9+0x31c>
2010a500:	00140493          	add	s1,s0,1
2010a504:	02b10423          	sb	a1,40(sp)
2010a508:	0ed000ef          	jal	2010adf4 <memchr>
2010a50c:	c12d                	beqz	a0,2010a56e <_vfiprintf_r+0x252>
2010a50e:	00000793          	li	a5,0
2010a512:	e795                	bnez	a5,2010a53e <_vfiprintf_r+0x222>
2010a514:	4742                	lw	a4,16(sp)
2010a516:	47b2                	lw	a5,12(sp)
2010a518:	10077713          	and	a4,a4,256
2010a51c:	cf09                	beqz	a4,2010a536 <_vfiprintf_r+0x21a>
2010a51e:	0791                	add	a5,a5,4
2010a520:	c63e                	sw	a5,12(sp)
2010a522:	5792                	lw	a5,36(sp)
2010a524:	97d2                	add	a5,a5,s4
2010a526:	d23e                	sw	a5,36(sp)
2010a528:	bd81                	j	2010a378 <_vfiprintf_r+0x5c>
2010a52a:	036787b3          	mul	a5,a5,s6
2010a52e:	842e                	mv	s0,a1
2010a530:	4685                	li	a3,1
2010a532:	97ba                	add	a5,a5,a4
2010a534:	bfbd                	j	2010a4b2 <_vfiprintf_r+0x196>
2010a536:	079d                	add	a5,a5,7
2010a538:	9be1                	and	a5,a5,-8
2010a53a:	07a1                	add	a5,a5,8
2010a53c:	b7d5                	j	2010a520 <_vfiprintf_r+0x204>
2010a53e:	0078                	add	a4,sp,12
2010a540:	00000697          	auipc	a3,0x0
2010a544:	d9a68693          	add	a3,a3,-614 # 2010a2da <__sfputs_r>
2010a548:	864a                	mv	a2,s2
2010a54a:	080c                	add	a1,sp,16
2010a54c:	854e                	mv	a0,s3
2010a54e:	00000097          	auipc	ra,0x0
2010a552:	000000e7          	jalr	zero # 0 <__metal_boot_hart>
2010a556:	57fd                	li	a5,-1
2010a558:	8a2a                	mv	s4,a0
2010a55a:	fcf514e3          	bne	a0,a5,2010a522 <_vfiprintf_r+0x206>
2010a55e:	00c95783          	lhu	a5,12(s2)
2010a562:	0407f793          	and	a5,a5,64
2010a566:	ea079de3          	bnez	a5,2010a420 <_vfiprintf_r+0x104>
2010a56a:	5512                	lw	a0,36(sp)
2010a56c:	bd5d                	j	2010a422 <_vfiprintf_r+0x106>
2010a56e:	0078                	add	a4,sp,12
2010a570:	00000697          	auipc	a3,0x0
2010a574:	d6a68693          	add	a3,a3,-662 # 2010a2da <__sfputs_r>
2010a578:	864a                	mv	a2,s2
2010a57a:	080c                	add	a1,sp,16
2010a57c:	854e                	mv	a0,s3
2010a57e:	2a11                	jal	2010a692 <_printf_i>
2010a580:	bfd9                	j	2010a556 <_vfiprintf_r+0x23a>

2010a582 <_printf_common>:
_printf_common():
2010a582:	7179                	add	sp,sp,-48
2010a584:	ca56                	sw	s5,20(sp)
2010a586:	499c                	lw	a5,16(a1)
2010a588:	8aba                	mv	s5,a4
2010a58a:	4598                	lw	a4,8(a1)
2010a58c:	d422                	sw	s0,40(sp)
2010a58e:	d04a                	sw	s2,32(sp)
2010a590:	ce4e                	sw	s3,28(sp)
2010a592:	cc52                	sw	s4,24(sp)
2010a594:	d606                	sw	ra,44(sp)
2010a596:	d226                	sw	s1,36(sp)
2010a598:	c85a                	sw	s6,16(sp)
2010a59a:	c65e                	sw	s7,12(sp)
2010a59c:	89aa                	mv	s3,a0
2010a59e:	842e                	mv	s0,a1
2010a5a0:	8932                	mv	s2,a2
2010a5a2:	8a36                	mv	s4,a3
2010a5a4:	00e7d363          	bge	a5,a4,2010a5aa <_printf_common+0x28>
2010a5a8:	87ba                	mv	a5,a4
2010a5aa:	00f92023          	sw	a5,0(s2)
2010a5ae:	04344703          	lbu	a4,67(s0)
2010a5b2:	c701                	beqz	a4,2010a5ba <_printf_common+0x38>
2010a5b4:	0785                	add	a5,a5,1
2010a5b6:	00f92023          	sw	a5,0(s2)
2010a5ba:	401c                	lw	a5,0(s0)
2010a5bc:	0207f793          	and	a5,a5,32
2010a5c0:	c791                	beqz	a5,2010a5cc <_printf_common+0x4a>
2010a5c2:	00092783          	lw	a5,0(s2)
2010a5c6:	0789                	add	a5,a5,2
2010a5c8:	00f92023          	sw	a5,0(s2)
2010a5cc:	4004                	lw	s1,0(s0)
2010a5ce:	8899                	and	s1,s1,6
2010a5d0:	e891                	bnez	s1,2010a5e4 <_printf_common+0x62>
2010a5d2:	01940b13          	add	s6,s0,25
2010a5d6:	5bfd                	li	s7,-1
2010a5d8:	445c                	lw	a5,12(s0)
2010a5da:	00092703          	lw	a4,0(s2)
2010a5de:	8f99                	sub	a5,a5,a4
2010a5e0:	04f4cc63          	blt	s1,a5,2010a638 <_printf_common+0xb6>
2010a5e4:	04344783          	lbu	a5,67(s0)
2010a5e8:	00f036b3          	snez	a3,a5
2010a5ec:	401c                	lw	a5,0(s0)
2010a5ee:	0207f793          	and	a5,a5,32
2010a5f2:	eba5                	bnez	a5,2010a662 <_printf_common+0xe0>
2010a5f4:	04340613          	add	a2,s0,67
2010a5f8:	85d2                	mv	a1,s4
2010a5fa:	854e                	mv	a0,s3
2010a5fc:	9a82                	jalr	s5
2010a5fe:	57fd                	li	a5,-1
2010a600:	04f50363          	beq	a0,a5,2010a646 <_printf_common+0xc4>
2010a604:	401c                	lw	a5,0(s0)
2010a606:	4711                	li	a4,4
2010a608:	4481                	li	s1,0
2010a60a:	8b99                	and	a5,a5,6
2010a60c:	00e79963          	bne	a5,a4,2010a61e <_printf_common+0x9c>
2010a610:	4444                	lw	s1,12(s0)
2010a612:	00092783          	lw	a5,0(s2)
2010a616:	8c9d                	sub	s1,s1,a5
2010a618:	0004d363          	bgez	s1,2010a61e <_printf_common+0x9c>
2010a61c:	4481                	li	s1,0
2010a61e:	441c                	lw	a5,8(s0)
2010a620:	4818                	lw	a4,16(s0)
2010a622:	00f75463          	bge	a4,a5,2010a62a <_printf_common+0xa8>
2010a626:	8f99                	sub	a5,a5,a4
2010a628:	94be                	add	s1,s1,a5
2010a62a:	4901                	li	s2,0
2010a62c:	0469                	add	s0,s0,26
2010a62e:	5b7d                	li	s6,-1
2010a630:	05249863          	bne	s1,s2,2010a680 <_printf_common+0xfe>
2010a634:	4501                	li	a0,0
2010a636:	a809                	j	2010a648 <_printf_common+0xc6>
2010a638:	4685                	li	a3,1
2010a63a:	865a                	mv	a2,s6
2010a63c:	85d2                	mv	a1,s4
2010a63e:	854e                	mv	a0,s3
2010a640:	9a82                	jalr	s5
2010a642:	01751e63          	bne	a0,s7,2010a65e <_printf_common+0xdc>
2010a646:	557d                	li	a0,-1
2010a648:	50b2                	lw	ra,44(sp)
2010a64a:	5422                	lw	s0,40(sp)
2010a64c:	5492                	lw	s1,36(sp)
2010a64e:	5902                	lw	s2,32(sp)
2010a650:	49f2                	lw	s3,28(sp)
2010a652:	4a62                	lw	s4,24(sp)
2010a654:	4ad2                	lw	s5,20(sp)
2010a656:	4b42                	lw	s6,16(sp)
2010a658:	4bb2                	lw	s7,12(sp)
2010a65a:	6145                	add	sp,sp,48
2010a65c:	8082                	ret
2010a65e:	0485                	add	s1,s1,1
2010a660:	bfa5                	j	2010a5d8 <_printf_common+0x56>
2010a662:	00d40733          	add	a4,s0,a3
2010a666:	03000613          	li	a2,48
2010a66a:	04c701a3          	sb	a2,67(a4)
2010a66e:	04544703          	lbu	a4,69(s0)
2010a672:	00168793          	add	a5,a3,1
2010a676:	97a2                	add	a5,a5,s0
2010a678:	0689                	add	a3,a3,2
2010a67a:	04e781a3          	sb	a4,67(a5)
2010a67e:	bf9d                	j	2010a5f4 <_printf_common+0x72>
2010a680:	4685                	li	a3,1
2010a682:	8622                	mv	a2,s0
2010a684:	85d2                	mv	a1,s4
2010a686:	854e                	mv	a0,s3
2010a688:	9a82                	jalr	s5
2010a68a:	fb650ee3          	beq	a0,s6,2010a646 <_printf_common+0xc4>
2010a68e:	0905                	add	s2,s2,1
2010a690:	b745                	j	2010a630 <_printf_common+0xae>

2010a692 <_printf_i>:
_printf_i():
2010a692:	7179                	add	sp,sp,-48
2010a694:	d422                	sw	s0,40(sp)
2010a696:	d226                	sw	s1,36(sp)
2010a698:	d04a                	sw	s2,32(sp)
2010a69a:	ce4e                	sw	s3,28(sp)
2010a69c:	d606                	sw	ra,44(sp)
2010a69e:	cc52                	sw	s4,24(sp)
2010a6a0:	ca56                	sw	s5,20(sp)
2010a6a2:	c85a                	sw	s6,16(sp)
2010a6a4:	0185c803          	lbu	a6,24(a1)
2010a6a8:	07800793          	li	a5,120
2010a6ac:	84aa                	mv	s1,a0
2010a6ae:	842e                	mv	s0,a1
2010a6b0:	8932                	mv	s2,a2
2010a6b2:	89b6                	mv	s3,a3
2010a6b4:	0307e263          	bltu	a5,a6,2010a6d8 <_printf_i+0x46>
2010a6b8:	06200793          	li	a5,98
2010a6bc:	04358693          	add	a3,a1,67
2010a6c0:	0307e163          	bltu	a5,a6,2010a6e2 <_printf_i+0x50>
2010a6c4:	1a080e63          	beqz	a6,2010a880 <_printf_i+0x1ee>
2010a6c8:	05800793          	li	a5,88
2010a6cc:	ffffe617          	auipc	a2,0xffffe
2010a6d0:	29060613          	add	a2,a2,656 # 2010895c <input_data_9+0x324>
2010a6d4:	14f80163          	beq	a6,a5,2010a816 <_printf_i+0x184>
2010a6d8:	04240a93          	add	s5,s0,66
2010a6dc:	05040123          	sb	a6,66(s0)
2010a6e0:	a815                	j	2010a714 <_printf_i+0x82>
2010a6e2:	f9d80793          	add	a5,a6,-99
2010a6e6:	0ff7f793          	zext.b	a5,a5
2010a6ea:	4655                	li	a2,21
2010a6ec:	fef666e3          	bltu	a2,a5,2010a6d8 <_printf_i+0x46>
2010a6f0:	ffffe617          	auipc	a2,0xffffe
2010a6f4:	29460613          	add	a2,a2,660 # 20108984 <input_data_9+0x34c>
2010a6f8:	078a                	sll	a5,a5,0x2
2010a6fa:	97b2                	add	a5,a5,a2
2010a6fc:	439c                	lw	a5,0(a5)
2010a6fe:	97b2                	add	a5,a5,a2
2010a700:	8782                	jr	a5
2010a702:	431c                	lw	a5,0(a4)
2010a704:	04258a93          	add	s5,a1,66
2010a708:	00478693          	add	a3,a5,4
2010a70c:	439c                	lw	a5,0(a5)
2010a70e:	c314                	sw	a3,0(a4)
2010a710:	04f58123          	sb	a5,66(a1)
2010a714:	4785                	li	a5,1
2010a716:	aa41                	j	2010a8a6 <_printf_i+0x214>
2010a718:	419c                	lw	a5,0(a1)
2010a71a:	4308                	lw	a0,0(a4)
2010a71c:	0807f613          	and	a2,a5,128
2010a720:	00450593          	add	a1,a0,4
2010a724:	c20d                	beqz	a2,2010a746 <_printf_i+0xb4>
2010a726:	411c                	lw	a5,0(a0)
2010a728:	c30c                	sw	a1,0(a4)
2010a72a:	0007d863          	bgez	a5,2010a73a <_printf_i+0xa8>
2010a72e:	02d00713          	li	a4,45
2010a732:	40f007b3          	neg	a5,a5
2010a736:	04e401a3          	sb	a4,67(s0)
2010a73a:	ffffe617          	auipc	a2,0xffffe
2010a73e:	22260613          	add	a2,a2,546 # 2010895c <input_data_9+0x324>
2010a742:	4829                	li	a6,10
2010a744:	a089                	j	2010a786 <_printf_i+0xf4>
2010a746:	0407f613          	and	a2,a5,64
2010a74a:	411c                	lw	a5,0(a0)
2010a74c:	c30c                	sw	a1,0(a4)
2010a74e:	de71                	beqz	a2,2010a72a <_printf_i+0x98>
2010a750:	07c2                	sll	a5,a5,0x10
2010a752:	87c1                	sra	a5,a5,0x10
2010a754:	bfd9                	j	2010a72a <_printf_i+0x98>
2010a756:	418c                	lw	a1,0(a1)
2010a758:	4310                	lw	a2,0(a4)
2010a75a:	0805f513          	and	a0,a1,128
2010a75e:	421c                	lw	a5,0(a2)
2010a760:	0611                	add	a2,a2,4
2010a762:	e511                	bnez	a0,2010a76e <_printf_i+0xdc>
2010a764:	0405f593          	and	a1,a1,64
2010a768:	c199                	beqz	a1,2010a76e <_printf_i+0xdc>
2010a76a:	07c2                	sll	a5,a5,0x10
2010a76c:	83c1                	srl	a5,a5,0x10
2010a76e:	c310                	sw	a2,0(a4)
2010a770:	06f00713          	li	a4,111
2010a774:	ffffe617          	auipc	a2,0xffffe
2010a778:	1e860613          	add	a2,a2,488 # 2010895c <input_data_9+0x324>
2010a77c:	0ce81c63          	bne	a6,a4,2010a854 <_printf_i+0x1c2>
2010a780:	4821                	li	a6,8
2010a782:	040401a3          	sb	zero,67(s0)
2010a786:	4058                	lw	a4,4(s0)
2010a788:	c418                	sw	a4,8(s0)
2010a78a:	00074863          	bltz	a4,2010a79a <_printf_i+0x108>
2010a78e:	400c                	lw	a1,0(s0)
2010a790:	8f5d                	or	a4,a4,a5
2010a792:	8ab6                	mv	s5,a3
2010a794:	99ed                	and	a1,a1,-5
2010a796:	c00c                	sw	a1,0(s0)
2010a798:	cf19                	beqz	a4,2010a7b6 <_printf_i+0x124>
2010a79a:	8ab6                	mv	s5,a3
2010a79c:	0307f733          	remu	a4,a5,a6
2010a7a0:	1afd                	add	s5,s5,-1
2010a7a2:	9732                	add	a4,a4,a2
2010a7a4:	00074703          	lbu	a4,0(a4)
2010a7a8:	00ea8023          	sb	a4,0(s5)
2010a7ac:	873e                	mv	a4,a5
2010a7ae:	0307d7b3          	divu	a5,a5,a6
2010a7b2:	ff0775e3          	bgeu	a4,a6,2010a79c <_printf_i+0x10a>
2010a7b6:	47a1                	li	a5,8
2010a7b8:	00f81e63          	bne	a6,a5,2010a7d4 <_printf_i+0x142>
2010a7bc:	401c                	lw	a5,0(s0)
2010a7be:	8b85                	and	a5,a5,1
2010a7c0:	cb91                	beqz	a5,2010a7d4 <_printf_i+0x142>
2010a7c2:	4058                	lw	a4,4(s0)
2010a7c4:	481c                	lw	a5,16(s0)
2010a7c6:	00e7c763          	blt	a5,a4,2010a7d4 <_printf_i+0x142>
2010a7ca:	03000793          	li	a5,48
2010a7ce:	fefa8fa3          	sb	a5,-1(s5)
2010a7d2:	1afd                	add	s5,s5,-1
2010a7d4:	415686b3          	sub	a3,a3,s5
2010a7d8:	c814                	sw	a3,16(s0)
2010a7da:	874e                	mv	a4,s3
2010a7dc:	86ca                	mv	a3,s2
2010a7de:	0070                	add	a2,sp,12
2010a7e0:	85a2                	mv	a1,s0
2010a7e2:	8526                	mv	a0,s1
2010a7e4:	3b79                	jal	2010a582 <_printf_common>
2010a7e6:	5a7d                	li	s4,-1
2010a7e8:	0d451363          	bne	a0,s4,2010a8ae <_printf_i+0x21c>
2010a7ec:	557d                	li	a0,-1
2010a7ee:	50b2                	lw	ra,44(sp)
2010a7f0:	5422                	lw	s0,40(sp)
2010a7f2:	5492                	lw	s1,36(sp)
2010a7f4:	5902                	lw	s2,32(sp)
2010a7f6:	49f2                	lw	s3,28(sp)
2010a7f8:	4a62                	lw	s4,24(sp)
2010a7fa:	4ad2                	lw	s5,20(sp)
2010a7fc:	4b42                	lw	s6,16(sp)
2010a7fe:	6145                	add	sp,sp,48
2010a800:	8082                	ret
2010a802:	419c                	lw	a5,0(a1)
2010a804:	0207e793          	or	a5,a5,32
2010a808:	c19c                	sw	a5,0(a1)
2010a80a:	07800813          	li	a6,120
2010a80e:	ffffe617          	auipc	a2,0xffffe
2010a812:	16260613          	add	a2,a2,354 # 20108970 <input_data_9+0x338>
2010a816:	050402a3          	sb	a6,69(s0)
2010a81a:	400c                	lw	a1,0(s0)
2010a81c:	4308                	lw	a0,0(a4)
2010a81e:	0805f813          	and	a6,a1,128
2010a822:	411c                	lw	a5,0(a0)
2010a824:	0511                	add	a0,a0,4
2010a826:	00081863          	bnez	a6,2010a836 <_printf_i+0x1a4>
2010a82a:	0405f813          	and	a6,a1,64
2010a82e:	00080463          	beqz	a6,2010a836 <_printf_i+0x1a4>
2010a832:	07c2                	sll	a5,a5,0x10
2010a834:	83c1                	srl	a5,a5,0x10
2010a836:	c308                	sw	a0,0(a4)
2010a838:	0015f713          	and	a4,a1,1
2010a83c:	c701                	beqz	a4,2010a844 <_printf_i+0x1b2>
2010a83e:	0205e593          	or	a1,a1,32
2010a842:	c00c                	sw	a1,0(s0)
2010a844:	c399                	beqz	a5,2010a84a <_printf_i+0x1b8>
2010a846:	4841                	li	a6,16
2010a848:	bf2d                	j	2010a782 <_printf_i+0xf0>
2010a84a:	4018                	lw	a4,0(s0)
2010a84c:	fdf77713          	and	a4,a4,-33
2010a850:	c018                	sw	a4,0(s0)
2010a852:	bfd5                	j	2010a846 <_printf_i+0x1b4>
2010a854:	4829                	li	a6,10
2010a856:	b735                	j	2010a782 <_printf_i+0xf0>
2010a858:	4190                	lw	a2,0(a1)
2010a85a:	431c                	lw	a5,0(a4)
2010a85c:	49cc                	lw	a1,20(a1)
2010a85e:	08067813          	and	a6,a2,128
2010a862:	00478513          	add	a0,a5,4
2010a866:	00080663          	beqz	a6,2010a872 <_printf_i+0x1e0>
2010a86a:	c308                	sw	a0,0(a4)
2010a86c:	439c                	lw	a5,0(a5)
2010a86e:	c38c                	sw	a1,0(a5)
2010a870:	a801                	j	2010a880 <_printf_i+0x1ee>
2010a872:	c308                	sw	a0,0(a4)
2010a874:	04067613          	and	a2,a2,64
2010a878:	439c                	lw	a5,0(a5)
2010a87a:	da75                	beqz	a2,2010a86e <_printf_i+0x1dc>
2010a87c:	00b79023          	sh	a1,0(a5)
2010a880:	00042823          	sw	zero,16(s0)
2010a884:	8ab6                	mv	s5,a3
2010a886:	bf91                	j	2010a7da <_printf_i+0x148>
2010a888:	431c                	lw	a5,0(a4)
2010a88a:	41d0                	lw	a2,4(a1)
2010a88c:	4581                	li	a1,0
2010a88e:	00478693          	add	a3,a5,4
2010a892:	c314                	sw	a3,0(a4)
2010a894:	0007aa83          	lw	s5,0(a5)
2010a898:	8556                	mv	a0,s5
2010a89a:	2ba9                	jal	2010adf4 <memchr>
2010a89c:	c501                	beqz	a0,2010a8a4 <_printf_i+0x212>
2010a89e:	41550533          	sub	a0,a0,s5
2010a8a2:	c048                	sw	a0,4(s0)
2010a8a4:	405c                	lw	a5,4(s0)
2010a8a6:	c81c                	sw	a5,16(s0)
2010a8a8:	040401a3          	sb	zero,67(s0)
2010a8ac:	b73d                	j	2010a7da <_printf_i+0x148>
2010a8ae:	4814                	lw	a3,16(s0)
2010a8b0:	8656                	mv	a2,s5
2010a8b2:	85ca                	mv	a1,s2
2010a8b4:	8526                	mv	a0,s1
2010a8b6:	9982                	jalr	s3
2010a8b8:	f3450ae3          	beq	a0,s4,2010a7ec <_printf_i+0x15a>
2010a8bc:	401c                	lw	a5,0(s0)
2010a8be:	8b89                	and	a5,a5,2
2010a8c0:	e78d                	bnez	a5,2010a8ea <_printf_i+0x258>
2010a8c2:	47b2                	lw	a5,12(sp)
2010a8c4:	4448                	lw	a0,12(s0)
2010a8c6:	f2f554e3          	bge	a0,a5,2010a7ee <_printf_i+0x15c>
2010a8ca:	853e                	mv	a0,a5
2010a8cc:	b70d                	j	2010a7ee <_printf_i+0x15c>
2010a8ce:	4685                	li	a3,1
2010a8d0:	8656                	mv	a2,s5
2010a8d2:	85ca                	mv	a1,s2
2010a8d4:	8526                	mv	a0,s1
2010a8d6:	9982                	jalr	s3
2010a8d8:	f1650ae3          	beq	a0,s6,2010a7ec <_printf_i+0x15a>
2010a8dc:	0a05                	add	s4,s4,1
2010a8de:	445c                	lw	a5,12(s0)
2010a8e0:	4732                	lw	a4,12(sp)
2010a8e2:	8f99                	sub	a5,a5,a4
2010a8e4:	fefa45e3          	blt	s4,a5,2010a8ce <_printf_i+0x23c>
2010a8e8:	bfe9                	j	2010a8c2 <_printf_i+0x230>
2010a8ea:	4a01                	li	s4,0
2010a8ec:	01940a93          	add	s5,s0,25
2010a8f0:	5b7d                	li	s6,-1
2010a8f2:	b7f5                	j	2010a8de <_printf_i+0x24c>

2010a8f4 <__sflush_r>:
__sflush_r():
2010a8f4:	00c59783          	lh	a5,12(a1)
2010a8f8:	1101                	add	sp,sp,-32
2010a8fa:	cc22                	sw	s0,24(sp)
2010a8fc:	ca26                	sw	s1,20(sp)
2010a8fe:	ce06                	sw	ra,28(sp)
2010a900:	c84a                	sw	s2,16(sp)
2010a902:	c64e                	sw	s3,12(sp)
2010a904:	0087f713          	and	a4,a5,8
2010a908:	84aa                	mv	s1,a0
2010a90a:	842e                	mv	s0,a1
2010a90c:	e779                	bnez	a4,2010a9da <__sflush_r+0xe6>
2010a90e:	41d8                	lw	a4,4(a1)
2010a910:	00e04563          	bgtz	a4,2010a91a <__sflush_r+0x26>
2010a914:	41b8                	lw	a4,64(a1)
2010a916:	0ae05b63          	blez	a4,2010a9cc <__sflush_r+0xd8>
2010a91a:	5458                	lw	a4,44(s0)
2010a91c:	cb45                	beqz	a4,2010a9cc <__sflush_r+0xd8>
2010a91e:	0004a903          	lw	s2,0(s1)
2010a922:	01379693          	sll	a3,a5,0x13
2010a926:	0004a023          	sw	zero,0(s1)
2010a92a:	500c                	lw	a1,32(s0)
2010a92c:	0606de63          	bgez	a3,2010a9a8 <__sflush_r+0xb4>
2010a930:	4870                	lw	a2,84(s0)
2010a932:	00c45783          	lhu	a5,12(s0)
2010a936:	8b91                	and	a5,a5,4
2010a938:	c799                	beqz	a5,2010a946 <__sflush_r+0x52>
2010a93a:	405c                	lw	a5,4(s0)
2010a93c:	8e1d                	sub	a2,a2,a5
2010a93e:	585c                	lw	a5,52(s0)
2010a940:	c399                	beqz	a5,2010a946 <__sflush_r+0x52>
2010a942:	403c                	lw	a5,64(s0)
2010a944:	8e1d                	sub	a2,a2,a5
2010a946:	545c                	lw	a5,44(s0)
2010a948:	500c                	lw	a1,32(s0)
2010a94a:	4681                	li	a3,0
2010a94c:	8526                	mv	a0,s1
2010a94e:	9782                	jalr	a5
2010a950:	577d                	li	a4,-1
2010a952:	00c45783          	lhu	a5,12(s0)
2010a956:	00e51d63          	bne	a0,a4,2010a970 <__sflush_r+0x7c>
2010a95a:	4094                	lw	a3,0(s1)
2010a95c:	4775                	li	a4,29
2010a95e:	06d76963          	bltu	a4,a3,2010a9d0 <__sflush_r+0xdc>
2010a962:	20400737          	lui	a4,0x20400
2010a966:	0705                	add	a4,a4,1 # 20400001 <metal_segment_data_source_start+0x2f0449>
2010a968:	00d75733          	srl	a4,a4,a3
2010a96c:	8b05                	and	a4,a4,1
2010a96e:	c32d                	beqz	a4,2010a9d0 <__sflush_r+0xdc>
2010a970:	4818                	lw	a4,16(s0)
2010a972:	00042223          	sw	zero,4(s0)
2010a976:	c018                	sw	a4,0(s0)
2010a978:	01379713          	sll	a4,a5,0x13
2010a97c:	00075863          	bgez	a4,2010a98c <__sflush_r+0x98>
2010a980:	57fd                	li	a5,-1
2010a982:	00f51463          	bne	a0,a5,2010a98a <__sflush_r+0x96>
2010a986:	409c                	lw	a5,0(s1)
2010a988:	e391                	bnez	a5,2010a98c <__sflush_r+0x98>
2010a98a:	c868                	sw	a0,84(s0)
2010a98c:	584c                	lw	a1,52(s0)
2010a98e:	0124a023          	sw	s2,0(s1)
2010a992:	cd8d                	beqz	a1,2010a9cc <__sflush_r+0xd8>
2010a994:	04440793          	add	a5,s0,68
2010a998:	00f58563          	beq	a1,a5,2010a9a2 <__sflush_r+0xae>
2010a99c:	8526                	mv	a0,s1
2010a99e:	eecff0ef          	jal	2010a08a <_free_r>
2010a9a2:	02042a23          	sw	zero,52(s0)
2010a9a6:	a01d                	j	2010a9cc <__sflush_r+0xd8>
2010a9a8:	4601                	li	a2,0
2010a9aa:	4685                	li	a3,1
2010a9ac:	8526                	mv	a0,s1
2010a9ae:	9702                	jalr	a4
2010a9b0:	57fd                	li	a5,-1
2010a9b2:	862a                	mv	a2,a0
2010a9b4:	f6f51fe3          	bne	a0,a5,2010a932 <__sflush_r+0x3e>
2010a9b8:	409c                	lw	a5,0(s1)
2010a9ba:	dfa5                	beqz	a5,2010a932 <__sflush_r+0x3e>
2010a9bc:	4775                	li	a4,29
2010a9be:	00e78563          	beq	a5,a4,2010a9c8 <__sflush_r+0xd4>
2010a9c2:	4759                	li	a4,22
2010a9c4:	04e79463          	bne	a5,a4,2010aa0c <__sflush_r+0x118>
2010a9c8:	0124a023          	sw	s2,0(s1)
2010a9cc:	4501                	li	a0,0
2010a9ce:	a0b1                	j	2010aa1a <__sflush_r+0x126>
2010a9d0:	0407e793          	or	a5,a5,64
2010a9d4:	07c2                	sll	a5,a5,0x10
2010a9d6:	87c1                	sra	a5,a5,0x10
2010a9d8:	a835                	j	2010aa14 <__sflush_r+0x120>
2010a9da:	0105a983          	lw	s3,16(a1)
2010a9de:	fe0987e3          	beqz	s3,2010a9cc <__sflush_r+0xd8>
2010a9e2:	0005a903          	lw	s2,0(a1)
2010a9e6:	8b8d                	and	a5,a5,3
2010a9e8:	0135a023          	sw	s3,0(a1)
2010a9ec:	41390933          	sub	s2,s2,s3
2010a9f0:	4701                	li	a4,0
2010a9f2:	e391                	bnez	a5,2010a9f6 <__sflush_r+0x102>
2010a9f4:	49d8                	lw	a4,20(a1)
2010a9f6:	c418                	sw	a4,8(s0)
2010a9f8:	fd205ae3          	blez	s2,2010a9cc <__sflush_r+0xd8>
2010a9fc:	541c                	lw	a5,40(s0)
2010a9fe:	500c                	lw	a1,32(s0)
2010aa00:	86ca                	mv	a3,s2
2010aa02:	864e                	mv	a2,s3
2010aa04:	8526                	mv	a0,s1
2010aa06:	9782                	jalr	a5
2010aa08:	02a04063          	bgtz	a0,2010aa28 <__sflush_r+0x134>
2010aa0c:	00c41783          	lh	a5,12(s0)
2010aa10:	0407e793          	or	a5,a5,64
2010aa14:	00f41623          	sh	a5,12(s0)
2010aa18:	557d                	li	a0,-1
2010aa1a:	40f2                	lw	ra,28(sp)
2010aa1c:	4462                	lw	s0,24(sp)
2010aa1e:	44d2                	lw	s1,20(sp)
2010aa20:	4942                	lw	s2,16(sp)
2010aa22:	49b2                	lw	s3,12(sp)
2010aa24:	6105                	add	sp,sp,32
2010aa26:	8082                	ret
2010aa28:	99aa                	add	s3,s3,a0
2010aa2a:	40a90933          	sub	s2,s2,a0
2010aa2e:	b7e9                	j	2010a9f8 <__sflush_r+0x104>

2010aa30 <_fflush_r>:
_fflush_r():
2010aa30:	499c                	lw	a5,16(a1)
2010aa32:	cb85                	beqz	a5,2010aa62 <_fflush_r+0x32>
2010aa34:	1101                	add	sp,sp,-32
2010aa36:	cc22                	sw	s0,24(sp)
2010aa38:	ce06                	sw	ra,28(sp)
2010aa3a:	842a                	mv	s0,a0
2010aa3c:	c511                	beqz	a0,2010aa48 <_fflush_r+0x18>
2010aa3e:	511c                	lw	a5,32(a0)
2010aa40:	e781                	bnez	a5,2010aa48 <_fflush_r+0x18>
2010aa42:	c62e                	sw	a1,12(sp)
2010aa44:	2225                	jal	2010ab6c <__sinit>
2010aa46:	45b2                	lw	a1,12(sp)
2010aa48:	00c59783          	lh	a5,12(a1)
2010aa4c:	c791                	beqz	a5,2010aa58 <_fflush_r+0x28>
2010aa4e:	8522                	mv	a0,s0
2010aa50:	4462                	lw	s0,24(sp)
2010aa52:	40f2                	lw	ra,28(sp)
2010aa54:	6105                	add	sp,sp,32
2010aa56:	bd79                	j	2010a8f4 <__sflush_r>
2010aa58:	40f2                	lw	ra,28(sp)
2010aa5a:	4462                	lw	s0,24(sp)
2010aa5c:	4501                	li	a0,0
2010aa5e:	6105                	add	sp,sp,32
2010aa60:	8082                	ret
2010aa62:	4501                	li	a0,0
2010aa64:	8082                	ret

2010aa66 <std>:
std():
2010aa66:	1141                	add	sp,sp,-16
2010aa68:	c422                	sw	s0,8(sp)
2010aa6a:	c606                	sw	ra,12(sp)
2010aa6c:	842a                	mv	s0,a0
2010aa6e:	00b51623          	sh	a1,12(a0)
2010aa72:	00c51723          	sh	a2,14(a0)
2010aa76:	00052023          	sw	zero,0(a0)
2010aa7a:	00052223          	sw	zero,4(a0)
2010aa7e:	00052423          	sw	zero,8(a0)
2010aa82:	06052223          	sw	zero,100(a0)
2010aa86:	00052823          	sw	zero,16(a0)
2010aa8a:	00052a23          	sw	zero,20(a0)
2010aa8e:	00052c23          	sw	zero,24(a0)
2010aa92:	4621                	li	a2,8
2010aa94:	4581                	li	a1,0
2010aa96:	05c50513          	add	a0,a0,92
2010aa9a:	21d1                	jal	2010af5e <memset>
2010aa9c:	00000797          	auipc	a5,0x0
2010aaa0:	29e78793          	add	a5,a5,670 # 2010ad3a <__sread>
2010aaa4:	d05c                	sw	a5,36(s0)
2010aaa6:	00000797          	auipc	a5,0x0
2010aaaa:	2c478793          	add	a5,a5,708 # 2010ad6a <__swrite>
2010aaae:	d41c                	sw	a5,40(s0)
2010aab0:	00000797          	auipc	a5,0x0
2010aab4:	30878793          	add	a5,a5,776 # 2010adb8 <__sseek>
2010aab8:	d45c                	sw	a5,44(s0)
2010aaba:	00000797          	auipc	a5,0x0
2010aabe:	33478793          	add	a5,a5,820 # 2010adee <__sclose>
2010aac2:	40b2                	lw	ra,12(sp)
2010aac4:	d000                	sw	s0,32(s0)
2010aac6:	d81c                	sw	a5,48(s0)
2010aac8:	4422                	lw	s0,8(sp)
2010aaca:	0141                	add	sp,sp,16
2010aacc:	8082                	ret

2010aace <stdio_exit_handler>:
stdio_exit_handler():
2010aace:	5fef5617          	auipc	a2,0x5fef5
2010aad2:	57e60613          	add	a2,a2,1406 # 8000004c <__sglue>
2010aad6:	00000597          	auipc	a1,0x0
2010aada:	f5a58593          	add	a1,a1,-166 # 2010aa30 <_fflush_r>
2010aade:	5fef5517          	auipc	a0,0x5fef5
2010aae2:	52250513          	add	a0,a0,1314 # 80000000 <_impure_data>
2010aae6:	a04d                	j	2010ab88 <_fwalk_sglue>

2010aae8 <cleanup_stdio>:
cleanup_stdio():
2010aae8:	414c                	lw	a1,4(a0)
2010aaea:	1141                	add	sp,sp,-16
2010aaec:	c422                	sw	s0,8(sp)
2010aaee:	c606                	sw	ra,12(sp)
2010aaf0:	5fef6797          	auipc	a5,0x5fef6
2010aaf4:	fc478793          	add	a5,a5,-60 # 80000ab4 <__sf>
2010aaf8:	842a                	mv	s0,a0
2010aafa:	00f58363          	beq	a1,a5,2010ab00 <cleanup_stdio+0x18>
2010aafe:	3f0d                	jal	2010aa30 <_fflush_r>
2010ab00:	440c                	lw	a1,8(s0)
2010ab02:	5fef6797          	auipc	a5,0x5fef6
2010ab06:	01a78793          	add	a5,a5,26 # 80000b1c <__sf+0x68>
2010ab0a:	00f58463          	beq	a1,a5,2010ab12 <cleanup_stdio+0x2a>
2010ab0e:	8522                	mv	a0,s0
2010ab10:	3705                	jal	2010aa30 <_fflush_r>
2010ab12:	444c                	lw	a1,12(s0)
2010ab14:	91418793          	add	a5,gp,-1772 # 80000b84 <__sf+0xd0>
2010ab18:	00f58763          	beq	a1,a5,2010ab26 <cleanup_stdio+0x3e>
2010ab1c:	8522                	mv	a0,s0
2010ab1e:	4422                	lw	s0,8(sp)
2010ab20:	40b2                	lw	ra,12(sp)
2010ab22:	0141                	add	sp,sp,16
2010ab24:	b731                	j	2010aa30 <_fflush_r>
2010ab26:	40b2                	lw	ra,12(sp)
2010ab28:	4422                	lw	s0,8(sp)
2010ab2a:	0141                	add	sp,sp,16
2010ab2c:	8082                	ret

2010ab2e <global_stdio_init.part.0>:
global_stdio_init.part.0():
2010ab2e:	1141                	add	sp,sp,-16
2010ab30:	00000797          	auipc	a5,0x0
2010ab34:	f9e78793          	add	a5,a5,-98 # 2010aace <stdio_exit_handler>
2010ab38:	4601                	li	a2,0
2010ab3a:	4591                	li	a1,4
2010ab3c:	5fef6517          	auipc	a0,0x5fef6
2010ab40:	f7850513          	add	a0,a0,-136 # 80000ab4 <__sf>
2010ab44:	c606                	sw	ra,12(sp)
2010ab46:	5fef6717          	auipc	a4,0x5fef6
2010ab4a:	f4f72d23          	sw	a5,-166(a4) # 80000aa0 <__stdio_exit_handler>
2010ab4e:	3f21                	jal	2010aa66 <std>
2010ab50:	4605                	li	a2,1
2010ab52:	45a5                	li	a1,9
2010ab54:	5fef6517          	auipc	a0,0x5fef6
2010ab58:	fc850513          	add	a0,a0,-56 # 80000b1c <__sf+0x68>
2010ab5c:	3729                	jal	2010aa66 <std>
2010ab5e:	40b2                	lw	ra,12(sp)
2010ab60:	4609                	li	a2,2
2010ab62:	45c9                	li	a1,18
2010ab64:	91418513          	add	a0,gp,-1772 # 80000b84 <__sf+0xd0>
2010ab68:	0141                	add	sp,sp,16
2010ab6a:	bdf5                	j	2010aa66 <std>

2010ab6c <__sinit>:
__sinit():
2010ab6c:	511c                	lw	a5,32(a0)
2010ab6e:	ef81                	bnez	a5,2010ab86 <__sinit+0x1a>
2010ab70:	00000797          	auipc	a5,0x0
2010ab74:	f7878793          	add	a5,a5,-136 # 2010aae8 <cleanup_stdio>
2010ab78:	d11c                	sw	a5,32(a0)
2010ab7a:	5fef6797          	auipc	a5,0x5fef6
2010ab7e:	f267a783          	lw	a5,-218(a5) # 80000aa0 <__stdio_exit_handler>
2010ab82:	e391                	bnez	a5,2010ab86 <__sinit+0x1a>
2010ab84:	b76d                	j	2010ab2e <global_stdio_init.part.0>
2010ab86:	8082                	ret

2010ab88 <_fwalk_sglue>:
_fwalk_sglue():
2010ab88:	7179                	add	sp,sp,-48
2010ab8a:	d422                	sw	s0,40(sp)
2010ab8c:	d04a                	sw	s2,32(sp)
2010ab8e:	ce4e                	sw	s3,28(sp)
2010ab90:	cc52                	sw	s4,24(sp)
2010ab92:	c85a                	sw	s6,16(sp)
2010ab94:	c65e                	sw	s7,12(sp)
2010ab96:	d606                	sw	ra,44(sp)
2010ab98:	d226                	sw	s1,36(sp)
2010ab9a:	ca56                	sw	s5,20(sp)
2010ab9c:	89aa                	mv	s3,a0
2010ab9e:	8a2e                	mv	s4,a1
2010aba0:	8432                	mv	s0,a2
2010aba2:	4901                	li	s2,0
2010aba4:	4b05                	li	s6,1
2010aba6:	5bfd                	li	s7,-1
2010aba8:	4404                	lw	s1,8(s0)
2010abaa:	00442a83          	lw	s5,4(s0)
2010abae:	1afd                	add	s5,s5,-1
2010abb0:	020ad063          	bgez	s5,2010abd0 <_fwalk_sglue+0x48>
2010abb4:	4000                	lw	s0,0(s0)
2010abb6:	f86d                	bnez	s0,2010aba8 <_fwalk_sglue+0x20>
2010abb8:	50b2                	lw	ra,44(sp)
2010abba:	5422                	lw	s0,40(sp)
2010abbc:	5492                	lw	s1,36(sp)
2010abbe:	49f2                	lw	s3,28(sp)
2010abc0:	4a62                	lw	s4,24(sp)
2010abc2:	4ad2                	lw	s5,20(sp)
2010abc4:	4b42                	lw	s6,16(sp)
2010abc6:	4bb2                	lw	s7,12(sp)
2010abc8:	854a                	mv	a0,s2
2010abca:	5902                	lw	s2,32(sp)
2010abcc:	6145                	add	sp,sp,48
2010abce:	8082                	ret
2010abd0:	00c4d783          	lhu	a5,12(s1)
2010abd4:	00fb7b63          	bgeu	s6,a5,2010abea <_fwalk_sglue+0x62>
2010abd8:	00e49783          	lh	a5,14(s1)
2010abdc:	01778763          	beq	a5,s7,2010abea <_fwalk_sglue+0x62>
2010abe0:	85a6                	mv	a1,s1
2010abe2:	854e                	mv	a0,s3
2010abe4:	9a02                	jalr	s4
2010abe6:	00a96933          	or	s2,s2,a0
2010abea:	06848493          	add	s1,s1,104
2010abee:	b7c1                	j	2010abae <_fwalk_sglue+0x26>

2010abf0 <__swhatbuf_r>:
__swhatbuf_r():
2010abf0:	7159                	add	sp,sp,-112
2010abf2:	d4a2                	sw	s0,104(sp)
2010abf4:	842e                	mv	s0,a1
2010abf6:	00e59583          	lh	a1,14(a1)
2010abfa:	d2a6                	sw	s1,100(sp)
2010abfc:	d0ca                	sw	s2,96(sp)
2010abfe:	d686                	sw	ra,108(sp)
2010ac00:	84b2                	mv	s1,a2
2010ac02:	8936                	mv	s2,a3
2010ac04:	0205d363          	bgez	a1,2010ac2a <__swhatbuf_r+0x3a>
2010ac08:	00c45783          	lhu	a5,12(s0)
2010ac0c:	0807f793          	and	a5,a5,128
2010ac10:	eb8d                	bnez	a5,2010ac42 <__swhatbuf_r+0x52>
2010ac12:	40000713          	li	a4,1024
2010ac16:	50b6                	lw	ra,108(sp)
2010ac18:	5426                	lw	s0,104(sp)
2010ac1a:	00f92023          	sw	a5,0(s2)
2010ac1e:	c098                	sw	a4,0(s1)
2010ac20:	5906                	lw	s2,96(sp)
2010ac22:	5496                	lw	s1,100(sp)
2010ac24:	4501                	li	a0,0
2010ac26:	6165                	add	sp,sp,112
2010ac28:	8082                	ret
2010ac2a:	0030                	add	a2,sp,8
2010ac2c:	2c01                	jal	2010ae3c <_fstat_r>
2010ac2e:	fc054de3          	bltz	a0,2010ac08 <__swhatbuf_r+0x18>
2010ac32:	4732                	lw	a4,12(sp)
2010ac34:	67bd                	lui	a5,0xf
2010ac36:	8ff9                	and	a5,a5,a4
2010ac38:	7779                	lui	a4,0xffffe
2010ac3a:	97ba                	add	a5,a5,a4
2010ac3c:	0017b793          	seqz	a5,a5
2010ac40:	bfc9                	j	2010ac12 <__swhatbuf_r+0x22>
2010ac42:	4781                	li	a5,0
2010ac44:	04000713          	li	a4,64
2010ac48:	b7f9                	j	2010ac16 <__swhatbuf_r+0x26>

2010ac4a <__smakebuf_r>:
__smakebuf_r():
2010ac4a:	00c5d783          	lhu	a5,12(a1)
2010ac4e:	7179                	add	sp,sp,-48
2010ac50:	d422                	sw	s0,40(sp)
2010ac52:	d606                	sw	ra,44(sp)
2010ac54:	d226                	sw	s1,36(sp)
2010ac56:	d04a                	sw	s2,32(sp)
2010ac58:	ce4e                	sw	s3,28(sp)
2010ac5a:	8b89                	and	a5,a5,2
2010ac5c:	842e                	mv	s0,a1
2010ac5e:	cf91                	beqz	a5,2010ac7a <__smakebuf_r+0x30>
2010ac60:	04740793          	add	a5,s0,71
2010ac64:	c01c                	sw	a5,0(s0)
2010ac66:	c81c                	sw	a5,16(s0)
2010ac68:	4785                	li	a5,1
2010ac6a:	c85c                	sw	a5,20(s0)
2010ac6c:	50b2                	lw	ra,44(sp)
2010ac6e:	5422                	lw	s0,40(sp)
2010ac70:	5492                	lw	s1,36(sp)
2010ac72:	5902                	lw	s2,32(sp)
2010ac74:	49f2                	lw	s3,28(sp)
2010ac76:	6145                	add	sp,sp,48
2010ac78:	8082                	ret
2010ac7a:	0074                	add	a3,sp,12
2010ac7c:	0030                	add	a2,sp,8
2010ac7e:	84aa                	mv	s1,a0
2010ac80:	3f85                	jal	2010abf0 <__swhatbuf_r>
2010ac82:	49a2                	lw	s3,8(sp)
2010ac84:	892a                	mv	s2,a0
2010ac86:	8526                	mv	a0,s1
2010ac88:	85ce                	mv	a1,s3
2010ac8a:	d00ff0ef          	jal	2010a18a <_malloc_r>
2010ac8e:	ed01                	bnez	a0,2010aca6 <__smakebuf_r+0x5c>
2010ac90:	00c41783          	lh	a5,12(s0)
2010ac94:	2007f713          	and	a4,a5,512
2010ac98:	fb71                	bnez	a4,2010ac6c <__smakebuf_r+0x22>
2010ac9a:	9bf1                	and	a5,a5,-4
2010ac9c:	0027e793          	or	a5,a5,2
2010aca0:	00f41623          	sh	a5,12(s0)
2010aca4:	bf75                	j	2010ac60 <__smakebuf_r+0x16>
2010aca6:	00c45783          	lhu	a5,12(s0)
2010acaa:	c008                	sw	a0,0(s0)
2010acac:	c808                	sw	a0,16(s0)
2010acae:	0807e793          	or	a5,a5,128
2010acb2:	00f41623          	sh	a5,12(s0)
2010acb6:	47b2                	lw	a5,12(sp)
2010acb8:	01342a23          	sw	s3,20(s0)
2010acbc:	cf89                	beqz	a5,2010acd6 <__smakebuf_r+0x8c>
2010acbe:	00e41583          	lh	a1,14(s0)
2010acc2:	8526                	mv	a0,s1
2010acc4:	2265                	jal	2010ae6c <_isatty_r>
2010acc6:	c901                	beqz	a0,2010acd6 <__smakebuf_r+0x8c>
2010acc8:	00c45783          	lhu	a5,12(s0)
2010accc:	9bf1                	and	a5,a5,-4
2010acce:	0017e793          	or	a5,a5,1
2010acd2:	00f41623          	sh	a5,12(s0)
2010acd6:	00c45783          	lhu	a5,12(s0)
2010acda:	0127e533          	or	a0,a5,s2
2010acde:	00a41623          	sh	a0,12(s0)
2010ace2:	b769                	j	2010ac6c <__smakebuf_r+0x22>

2010ace4 <_putc_r>:
_putc_r():
2010ace4:	1101                	add	sp,sp,-32
2010ace6:	cc22                	sw	s0,24(sp)
2010ace8:	ce06                	sw	ra,28(sp)
2010acea:	842a                	mv	s0,a0
2010acec:	c901                	beqz	a0,2010acfc <_putc_r+0x18>
2010acee:	511c                	lw	a5,32(a0)
2010acf0:	e791                	bnez	a5,2010acfc <_putc_r+0x18>
2010acf2:	c632                	sw	a2,12(sp)
2010acf4:	c42e                	sw	a1,8(sp)
2010acf6:	3d9d                	jal	2010ab6c <__sinit>
2010acf8:	4632                	lw	a2,12(sp)
2010acfa:	45a2                	lw	a1,8(sp)
2010acfc:	461c                	lw	a5,8(a2)
2010acfe:	17fd                	add	a5,a5,-1 # efff <__heap_size+0xe7ff>
2010ad00:	c61c                	sw	a5,8(a2)
2010ad02:	0207d063          	bgez	a5,2010ad22 <_putc_r+0x3e>
2010ad06:	4e18                	lw	a4,24(a2)
2010ad08:	00e7c763          	blt	a5,a4,2010ad16 <_putc_r+0x32>
2010ad0c:	0ff5f793          	zext.b	a5,a1
2010ad10:	4729                	li	a4,10
2010ad12:	00e79863          	bne	a5,a4,2010ad22 <_putc_r+0x3e>
2010ad16:	8522                	mv	a0,s0
2010ad18:	4462                	lw	s0,24(sp)
2010ad1a:	40f2                	lw	ra,28(sp)
2010ad1c:	6105                	add	sp,sp,32
2010ad1e:	a04ff06f          	j	20109f22 <__swbuf_r>
2010ad22:	421c                	lw	a5,0(a2)
2010ad24:	0ff5f513          	zext.b	a0,a1
2010ad28:	00178713          	add	a4,a5,1
2010ad2c:	c218                	sw	a4,0(a2)
2010ad2e:	00b78023          	sb	a1,0(a5)
2010ad32:	40f2                	lw	ra,28(sp)
2010ad34:	4462                	lw	s0,24(sp)
2010ad36:	6105                	add	sp,sp,32
2010ad38:	8082                	ret

2010ad3a <__sread>:
__sread():
2010ad3a:	1141                	add	sp,sp,-16
2010ad3c:	c422                	sw	s0,8(sp)
2010ad3e:	842e                	mv	s0,a1
2010ad40:	00e59583          	lh	a1,14(a1)
2010ad44:	c606                	sw	ra,12(sp)
2010ad46:	2259                	jal	2010aecc <_read_r>
2010ad48:	00054963          	bltz	a0,2010ad5a <__sread+0x20>
2010ad4c:	487c                	lw	a5,84(s0)
2010ad4e:	97aa                	add	a5,a5,a0
2010ad50:	c87c                	sw	a5,84(s0)
2010ad52:	40b2                	lw	ra,12(sp)
2010ad54:	4422                	lw	s0,8(sp)
2010ad56:	0141                	add	sp,sp,16
2010ad58:	8082                	ret
2010ad5a:	00c45783          	lhu	a5,12(s0)
2010ad5e:	777d                	lui	a4,0xfffff
2010ad60:	177d                	add	a4,a4,-1 # ffffefff <metal_segment_heap_target_end+0x7fffd77f>
2010ad62:	8ff9                	and	a5,a5,a4
2010ad64:	00f41623          	sh	a5,12(s0)
2010ad68:	b7ed                	j	2010ad52 <__sread+0x18>

2010ad6a <__swrite>:
__swrite():
2010ad6a:	00c5d783          	lhu	a5,12(a1)
2010ad6e:	1101                	add	sp,sp,-32
2010ad70:	cc22                	sw	s0,24(sp)
2010ad72:	ca26                	sw	s1,20(sp)
2010ad74:	c84a                	sw	s2,16(sp)
2010ad76:	c64e                	sw	s3,12(sp)
2010ad78:	ce06                	sw	ra,28(sp)
2010ad7a:	1007f793          	and	a5,a5,256
2010ad7e:	84aa                	mv	s1,a0
2010ad80:	842e                	mv	s0,a1
2010ad82:	8932                	mv	s2,a2
2010ad84:	89b6                	mv	s3,a3
2010ad86:	c791                	beqz	a5,2010ad92 <__swrite+0x28>
2010ad88:	00e59583          	lh	a1,14(a1)
2010ad8c:	4689                	li	a3,2
2010ad8e:	4601                	li	a2,0
2010ad90:	2229                	jal	2010ae9a <_lseek_r>
2010ad92:	00c45783          	lhu	a5,12(s0)
2010ad96:	777d                	lui	a4,0xfffff
2010ad98:	177d                	add	a4,a4,-1 # ffffefff <metal_segment_heap_target_end+0x7fffd77f>
2010ad9a:	8ff9                	and	a5,a5,a4
2010ad9c:	00e41583          	lh	a1,14(s0)
2010ada0:	00f41623          	sh	a5,12(s0)
2010ada4:	4462                	lw	s0,24(sp)
2010ada6:	40f2                	lw	ra,28(sp)
2010ada8:	86ce                	mv	a3,s3
2010adaa:	864a                	mv	a2,s2
2010adac:	49b2                	lw	s3,12(sp)
2010adae:	4942                	lw	s2,16(sp)
2010adb0:	8526                	mv	a0,s1
2010adb2:	44d2                	lw	s1,20(sp)
2010adb4:	6105                	add	sp,sp,32
2010adb6:	aa9d                	j	2010af2c <_write_r>

2010adb8 <__sseek>:
__sseek():
2010adb8:	1141                	add	sp,sp,-16
2010adba:	c422                	sw	s0,8(sp)
2010adbc:	842e                	mv	s0,a1
2010adbe:	00e59583          	lh	a1,14(a1)
2010adc2:	c606                	sw	ra,12(sp)
2010adc4:	28d9                	jal	2010ae9a <_lseek_r>
2010adc6:	577d                	li	a4,-1
2010adc8:	00c45783          	lhu	a5,12(s0)
2010adcc:	00e51b63          	bne	a0,a4,2010ade2 <__sseek+0x2a>
2010add0:	777d                	lui	a4,0xfffff
2010add2:	177d                	add	a4,a4,-1 # ffffefff <metal_segment_heap_target_end+0x7fffd77f>
2010add4:	8ff9                	and	a5,a5,a4
2010add6:	00f41623          	sh	a5,12(s0)
2010adda:	40b2                	lw	ra,12(sp)
2010addc:	4422                	lw	s0,8(sp)
2010adde:	0141                	add	sp,sp,16
2010ade0:	8082                	ret
2010ade2:	6705                	lui	a4,0x1
2010ade4:	8fd9                	or	a5,a5,a4
2010ade6:	00f41623          	sh	a5,12(s0)
2010adea:	c868                	sw	a0,84(s0)
2010adec:	b7fd                	j	2010adda <__sseek+0x22>

2010adee <__sclose>:
__sclose():
2010adee:	00e59583          	lh	a1,14(a1)
2010adf2:	a831                	j	2010ae0e <_close_r>

2010adf4 <memchr>:
memchr():
2010adf4:	0ff5f593          	zext.b	a1,a1
2010adf8:	962a                	add	a2,a2,a0
2010adfa:	00c51463          	bne	a0,a2,2010ae02 <memchr+0xe>
2010adfe:	4501                	li	a0,0
2010ae00:	8082                	ret
2010ae02:	00054783          	lbu	a5,0(a0)
2010ae06:	feb78de3          	beq	a5,a1,2010ae00 <memchr+0xc>
2010ae0a:	0505                	add	a0,a0,1
2010ae0c:	b7fd                	j	2010adfa <memchr+0x6>

2010ae0e <_close_r>:
_close_r():
2010ae0e:	1141                	add	sp,sp,-16
2010ae10:	c422                	sw	s0,8(sp)
2010ae12:	842a                	mv	s0,a0
2010ae14:	852e                	mv	a0,a1
2010ae16:	5fef6797          	auipc	a5,0x5fef6
2010ae1a:	c807a723          	sw	zero,-882(a5) # 80000aa4 <errno>
2010ae1e:	c606                	sw	ra,12(sp)
2010ae20:	22dd                	jal	2010b006 <_close>
2010ae22:	57fd                	li	a5,-1
2010ae24:	00f51863          	bne	a0,a5,2010ae34 <_close_r+0x26>
2010ae28:	5fef6797          	auipc	a5,0x5fef6
2010ae2c:	c7c7a783          	lw	a5,-900(a5) # 80000aa4 <errno>
2010ae30:	c391                	beqz	a5,2010ae34 <_close_r+0x26>
2010ae32:	c01c                	sw	a5,0(s0)
2010ae34:	40b2                	lw	ra,12(sp)
2010ae36:	4422                	lw	s0,8(sp)
2010ae38:	0141                	add	sp,sp,16
2010ae3a:	8082                	ret

2010ae3c <_fstat_r>:
_fstat_r():
2010ae3c:	1141                	add	sp,sp,-16
2010ae3e:	c422                	sw	s0,8(sp)
2010ae40:	842a                	mv	s0,a0
2010ae42:	852e                	mv	a0,a1
2010ae44:	85b2                	mv	a1,a2
2010ae46:	5fef6797          	auipc	a5,0x5fef6
2010ae4a:	c407af23          	sw	zero,-930(a5) # 80000aa4 <errno>
2010ae4e:	c606                	sw	ra,12(sp)
2010ae50:	2ae1                	jal	2010b028 <_fstat>
2010ae52:	57fd                	li	a5,-1
2010ae54:	00f51863          	bne	a0,a5,2010ae64 <_fstat_r+0x28>
2010ae58:	5fef6797          	auipc	a5,0x5fef6
2010ae5c:	c4c7a783          	lw	a5,-948(a5) # 80000aa4 <errno>
2010ae60:	c391                	beqz	a5,2010ae64 <_fstat_r+0x28>
2010ae62:	c01c                	sw	a5,0(s0)
2010ae64:	40b2                	lw	ra,12(sp)
2010ae66:	4422                	lw	s0,8(sp)
2010ae68:	0141                	add	sp,sp,16
2010ae6a:	8082                	ret

2010ae6c <_isatty_r>:
_isatty_r():
2010ae6c:	1141                	add	sp,sp,-16
2010ae6e:	c422                	sw	s0,8(sp)
2010ae70:	842a                	mv	s0,a0
2010ae72:	852e                	mv	a0,a1
2010ae74:	5fef6797          	auipc	a5,0x5fef6
2010ae78:	c207a823          	sw	zero,-976(a5) # 80000aa4 <errno>
2010ae7c:	c606                	sw	ra,12(sp)
2010ae7e:	2ac1                	jal	2010b04e <_isatty>
2010ae80:	57fd                	li	a5,-1
2010ae82:	00f51863          	bne	a0,a5,2010ae92 <_isatty_r+0x26>
2010ae86:	5fef6797          	auipc	a5,0x5fef6
2010ae8a:	c1e7a783          	lw	a5,-994(a5) # 80000aa4 <errno>
2010ae8e:	c391                	beqz	a5,2010ae92 <_isatty_r+0x26>
2010ae90:	c01c                	sw	a5,0(s0)
2010ae92:	40b2                	lw	ra,12(sp)
2010ae94:	4422                	lw	s0,8(sp)
2010ae96:	0141                	add	sp,sp,16
2010ae98:	8082                	ret

2010ae9a <_lseek_r>:
_lseek_r():
2010ae9a:	1141                	add	sp,sp,-16
2010ae9c:	c422                	sw	s0,8(sp)
2010ae9e:	842a                	mv	s0,a0
2010aea0:	852e                	mv	a0,a1
2010aea2:	85b2                	mv	a1,a2
2010aea4:	8636                	mv	a2,a3
2010aea6:	5fef6797          	auipc	a5,0x5fef6
2010aeaa:	be07af23          	sw	zero,-1026(a5) # 80000aa4 <errno>
2010aeae:	c606                	sw	ra,12(sp)
2010aeb0:	2a7d                	jal	2010b06e <_lseek>
2010aeb2:	57fd                	li	a5,-1
2010aeb4:	00f51863          	bne	a0,a5,2010aec4 <_lseek_r+0x2a>
2010aeb8:	5fef6797          	auipc	a5,0x5fef6
2010aebc:	bec7a783          	lw	a5,-1044(a5) # 80000aa4 <errno>
2010aec0:	c391                	beqz	a5,2010aec4 <_lseek_r+0x2a>
2010aec2:	c01c                	sw	a5,0(s0)
2010aec4:	40b2                	lw	ra,12(sp)
2010aec6:	4422                	lw	s0,8(sp)
2010aec8:	0141                	add	sp,sp,16
2010aeca:	8082                	ret

2010aecc <_read_r>:
_read_r():
2010aecc:	1141                	add	sp,sp,-16
2010aece:	c422                	sw	s0,8(sp)
2010aed0:	842a                	mv	s0,a0
2010aed2:	852e                	mv	a0,a1
2010aed4:	85b2                	mv	a1,a2
2010aed6:	8636                	mv	a2,a3
2010aed8:	5fef6797          	auipc	a5,0x5fef6
2010aedc:	bc07a623          	sw	zero,-1076(a5) # 80000aa4 <errno>
2010aee0:	c606                	sw	ra,12(sp)
2010aee2:	2a5d                	jal	2010b098 <_read>
2010aee4:	57fd                	li	a5,-1
2010aee6:	00f51863          	bne	a0,a5,2010aef6 <_read_r+0x2a>
2010aeea:	5fef6797          	auipc	a5,0x5fef6
2010aeee:	bba7a783          	lw	a5,-1094(a5) # 80000aa4 <errno>
2010aef2:	c391                	beqz	a5,2010aef6 <_read_r+0x2a>
2010aef4:	c01c                	sw	a5,0(s0)
2010aef6:	40b2                	lw	ra,12(sp)
2010aef8:	4422                	lw	s0,8(sp)
2010aefa:	0141                	add	sp,sp,16
2010aefc:	8082                	ret

2010aefe <_sbrk_r>:
_sbrk_r():
2010aefe:	1141                	add	sp,sp,-16
2010af00:	c422                	sw	s0,8(sp)
2010af02:	842a                	mv	s0,a0
2010af04:	852e                	mv	a0,a1
2010af06:	5fef6797          	auipc	a5,0x5fef6
2010af0a:	b807af23          	sw	zero,-1122(a5) # 80000aa4 <errno>
2010af0e:	c606                	sw	ra,12(sp)
2010af10:	2a4d                	jal	2010b0c2 <_sbrk>
2010af12:	57fd                	li	a5,-1
2010af14:	00f51863          	bne	a0,a5,2010af24 <_sbrk_r+0x26>
2010af18:	5fef6797          	auipc	a5,0x5fef6
2010af1c:	b8c7a783          	lw	a5,-1140(a5) # 80000aa4 <errno>
2010af20:	c391                	beqz	a5,2010af24 <_sbrk_r+0x26>
2010af22:	c01c                	sw	a5,0(s0)
2010af24:	40b2                	lw	ra,12(sp)
2010af26:	4422                	lw	s0,8(sp)
2010af28:	0141                	add	sp,sp,16
2010af2a:	8082                	ret

2010af2c <_write_r>:
_write_r():
2010af2c:	1141                	add	sp,sp,-16
2010af2e:	c422                	sw	s0,8(sp)
2010af30:	842a                	mv	s0,a0
2010af32:	852e                	mv	a0,a1
2010af34:	85b2                	mv	a1,a2
2010af36:	8636                	mv	a2,a3
2010af38:	5fef6797          	auipc	a5,0x5fef6
2010af3c:	b607a623          	sw	zero,-1172(a5) # 80000aa4 <errno>
2010af40:	c606                	sw	ra,12(sp)
2010af42:	2afd                	jal	2010b140 <_write>
2010af44:	57fd                	li	a5,-1
2010af46:	00f51863          	bne	a0,a5,2010af56 <_write_r+0x2a>
2010af4a:	5fef6797          	auipc	a5,0x5fef6
2010af4e:	b5a7a783          	lw	a5,-1190(a5) # 80000aa4 <errno>
2010af52:	c391                	beqz	a5,2010af56 <_write_r+0x2a>
2010af54:	c01c                	sw	a5,0(s0)
2010af56:	40b2                	lw	ra,12(sp)
2010af58:	4422                	lw	s0,8(sp)
2010af5a:	0141                	add	sp,sp,16
2010af5c:	8082                	ret

2010af5e <memset>:
memset():
2010af5e:	433d                	li	t1,15
2010af60:	872a                	mv	a4,a0
2010af62:	02c37363          	bgeu	t1,a2,2010af88 <memset+0x2a>
2010af66:	00f77793          	and	a5,a4,15
2010af6a:	efbd                	bnez	a5,2010afe8 <memset+0x8a>
2010af6c:	e5ad                	bnez	a1,2010afd6 <memset+0x78>
2010af6e:	ff067693          	and	a3,a2,-16
2010af72:	8a3d                	and	a2,a2,15
2010af74:	96ba                	add	a3,a3,a4
2010af76:	c30c                	sw	a1,0(a4)
2010af78:	c34c                	sw	a1,4(a4)
2010af7a:	c70c                	sw	a1,8(a4)
2010af7c:	c74c                	sw	a1,12(a4)
2010af7e:	0741                	add	a4,a4,16 # 1010 <__heap_size+0x810>
2010af80:	fed76be3          	bltu	a4,a3,2010af76 <memset+0x18>
2010af84:	e211                	bnez	a2,2010af88 <memset+0x2a>
2010af86:	8082                	ret
2010af88:	40c306b3          	sub	a3,t1,a2
2010af8c:	068a                	sll	a3,a3,0x2
2010af8e:	00000297          	auipc	t0,0x0
2010af92:	9696                	add	a3,a3,t0
2010af94:	00a68067          	jr	10(a3)
2010af98:	00b70723          	sb	a1,14(a4)
2010af9c:	00b706a3          	sb	a1,13(a4)
2010afa0:	00b70623          	sb	a1,12(a4)
2010afa4:	00b705a3          	sb	a1,11(a4)
2010afa8:	00b70523          	sb	a1,10(a4)
2010afac:	00b704a3          	sb	a1,9(a4)
2010afb0:	00b70423          	sb	a1,8(a4)
2010afb4:	00b703a3          	sb	a1,7(a4)
2010afb8:	00b70323          	sb	a1,6(a4)
2010afbc:	00b702a3          	sb	a1,5(a4)
2010afc0:	00b70223          	sb	a1,4(a4)
2010afc4:	00b701a3          	sb	a1,3(a4)
2010afc8:	00b70123          	sb	a1,2(a4)
2010afcc:	00b700a3          	sb	a1,1(a4)
2010afd0:	00b70023          	sb	a1,0(a4)
2010afd4:	8082                	ret
2010afd6:	0ff5f593          	zext.b	a1,a1
2010afda:	00859693          	sll	a3,a1,0x8
2010afde:	8dd5                	or	a1,a1,a3
2010afe0:	01059693          	sll	a3,a1,0x10
2010afe4:	8dd5                	or	a1,a1,a3
2010afe6:	b761                	j	2010af6e <memset+0x10>
2010afe8:	00279693          	sll	a3,a5,0x2
2010afec:	00000297          	auipc	t0,0x0
2010aff0:	9696                	add	a3,a3,t0
2010aff2:	8286                	mv	t0,ra
2010aff4:	fa8680e7          	jalr	-88(a3)
2010aff8:	8096                	mv	ra,t0
2010affa:	17c1                	add	a5,a5,-16
2010affc:	8f1d                	sub	a4,a4,a5
2010affe:	963e                	add	a2,a2,a5
2010b000:	f8c374e3          	bgeu	t1,a2,2010af88 <memset+0x2a>
2010b004:	b7a5                	j	2010af6c <memset+0xe>

2010b006 <_close>:
_close():
C:/VSD_Sqd_Project/sifive_hifive1_BitNet_MNIST_App/freedom-metal/gloss/sys_close.c:3
#include <errno.h>

int _close(int file) {
2010b006:	1101                	add	sp,sp,-32
2010b008:	ce06                	sw	ra,28(sp)
2010b00a:	cc22                	sw	s0,24(sp)
2010b00c:	1000                	add	s0,sp,32
2010b00e:	fea42623          	sw	a0,-20(s0)
C:/VSD_Sqd_Project/sifive_hifive1_BitNet_MNIST_App/freedom-metal/gloss/sys_close.c:4
    errno = ENOSYS;
2010b012:	22f9                	jal	2010b1e0 <__errno>
2010b014:	872a                	mv	a4,a0
C:/VSD_Sqd_Project/sifive_hifive1_BitNet_MNIST_App/freedom-metal/gloss/sys_close.c:4 (discriminator 1)
2010b016:	05800793          	li	a5,88
2010b01a:	c31c                	sw	a5,0(a4)
C:/VSD_Sqd_Project/sifive_hifive1_BitNet_MNIST_App/freedom-metal/gloss/sys_close.c:5
    return -1;
2010b01c:	57fd                	li	a5,-1
C:/VSD_Sqd_Project/sifive_hifive1_BitNet_MNIST_App/freedom-metal/gloss/sys_close.c:6
}
2010b01e:	853e                	mv	a0,a5
2010b020:	40f2                	lw	ra,28(sp)
2010b022:	4462                	lw	s0,24(sp)
2010b024:	6105                	add	sp,sp,32
2010b026:	8082                	ret

2010b028 <_fstat>:
_fstat():
C:/VSD_Sqd_Project/sifive_hifive1_BitNet_MNIST_App/freedom-metal/gloss/sys_fstat.c:4
#include <errno.h>
#include <sys/stat.h>

int _fstat(int file, struct stat *st) {
2010b028:	1101                	add	sp,sp,-32
2010b02a:	ce06                	sw	ra,28(sp)
2010b02c:	cc22                	sw	s0,24(sp)
2010b02e:	1000                	add	s0,sp,32
2010b030:	fea42623          	sw	a0,-20(s0)
2010b034:	feb42423          	sw	a1,-24(s0)
C:/VSD_Sqd_Project/sifive_hifive1_BitNet_MNIST_App/freedom-metal/gloss/sys_fstat.c:5
    errno = -ENOSYS;
2010b038:	2265                	jal	2010b1e0 <__errno>
2010b03a:	872a                	mv	a4,a0
C:/VSD_Sqd_Project/sifive_hifive1_BitNet_MNIST_App/freedom-metal/gloss/sys_fstat.c:5 (discriminator 1)
2010b03c:	fa800793          	li	a5,-88
2010b040:	c31c                	sw	a5,0(a4)
C:/VSD_Sqd_Project/sifive_hifive1_BitNet_MNIST_App/freedom-metal/gloss/sys_fstat.c:6
    return -1;
2010b042:	57fd                	li	a5,-1
C:/VSD_Sqd_Project/sifive_hifive1_BitNet_MNIST_App/freedom-metal/gloss/sys_fstat.c:7
}
2010b044:	853e                	mv	a0,a5
2010b046:	40f2                	lw	ra,28(sp)
2010b048:	4462                	lw	s0,24(sp)
2010b04a:	6105                	add	sp,sp,32
2010b04c:	8082                	ret

2010b04e <_isatty>:
_isatty():
C:/VSD_Sqd_Project/sifive_hifive1_BitNet_MNIST_App/freedom-metal/gloss/sys_isatty.c:3
#include <unistd.h>

int _isatty(int file) { return (file == STDOUT_FILENO); }
2010b04e:	1101                	add	sp,sp,-32
2010b050:	ce22                	sw	s0,28(sp)
2010b052:	1000                	add	s0,sp,32
2010b054:	fea42623          	sw	a0,-20(s0)
2010b058:	fec42783          	lw	a5,-20(s0)
2010b05c:	17fd                	add	a5,a5,-1
2010b05e:	0017b793          	seqz	a5,a5
2010b062:	0ff7f793          	zext.b	a5,a5
2010b066:	853e                	mv	a0,a5
2010b068:	4472                	lw	s0,28(sp)
2010b06a:	6105                	add	sp,sp,32
2010b06c:	8082                	ret

2010b06e <_lseek>:
_lseek():
C:/VSD_Sqd_Project/sifive_hifive1_BitNet_MNIST_App/freedom-metal/gloss/sys_lseek.c:4
#include <errno.h>
#include <sys/types.h>

off_t _lseek(int file, off_t ptr, int dir) {
2010b06e:	1101                	add	sp,sp,-32
2010b070:	ce06                	sw	ra,28(sp)
2010b072:	cc22                	sw	s0,24(sp)
2010b074:	1000                	add	s0,sp,32
2010b076:	fea42623          	sw	a0,-20(s0)
2010b07a:	feb42423          	sw	a1,-24(s0)
2010b07e:	fec42223          	sw	a2,-28(s0)
C:/VSD_Sqd_Project/sifive_hifive1_BitNet_MNIST_App/freedom-metal/gloss/sys_lseek.c:5
    errno = ENOSYS;
2010b082:	2ab9                	jal	2010b1e0 <__errno>
2010b084:	872a                	mv	a4,a0
C:/VSD_Sqd_Project/sifive_hifive1_BitNet_MNIST_App/freedom-metal/gloss/sys_lseek.c:5 (discriminator 1)
2010b086:	05800793          	li	a5,88
2010b08a:	c31c                	sw	a5,0(a4)
C:/VSD_Sqd_Project/sifive_hifive1_BitNet_MNIST_App/freedom-metal/gloss/sys_lseek.c:6
    return -1;
2010b08c:	57fd                	li	a5,-1
C:/VSD_Sqd_Project/sifive_hifive1_BitNet_MNIST_App/freedom-metal/gloss/sys_lseek.c:7
}
2010b08e:	853e                	mv	a0,a5
2010b090:	40f2                	lw	ra,28(sp)
2010b092:	4462                	lw	s0,24(sp)
2010b094:	6105                	add	sp,sp,32
2010b096:	8082                	ret

2010b098 <_read>:
_read():
C:/VSD_Sqd_Project/sifive_hifive1_BitNet_MNIST_App/freedom-metal/gloss/sys_read.c:4
#include <errno.h>
#include <sys/types.h>

ssize_t _read(int file, void *ptr, size_t len) {
2010b098:	1101                	add	sp,sp,-32
2010b09a:	ce06                	sw	ra,28(sp)
2010b09c:	cc22                	sw	s0,24(sp)
2010b09e:	1000                	add	s0,sp,32
2010b0a0:	fea42623          	sw	a0,-20(s0)
2010b0a4:	feb42423          	sw	a1,-24(s0)
2010b0a8:	fec42223          	sw	a2,-28(s0)
C:/VSD_Sqd_Project/sifive_hifive1_BitNet_MNIST_App/freedom-metal/gloss/sys_read.c:5
    errno = ENOSYS;
2010b0ac:	2a15                	jal	2010b1e0 <__errno>
2010b0ae:	872a                	mv	a4,a0
C:/VSD_Sqd_Project/sifive_hifive1_BitNet_MNIST_App/freedom-metal/gloss/sys_read.c:5 (discriminator 1)
2010b0b0:	05800793          	li	a5,88
2010b0b4:	c31c                	sw	a5,0(a4)
C:/VSD_Sqd_Project/sifive_hifive1_BitNet_MNIST_App/freedom-metal/gloss/sys_read.c:6
    return -1;
2010b0b6:	57fd                	li	a5,-1
C:/VSD_Sqd_Project/sifive_hifive1_BitNet_MNIST_App/freedom-metal/gloss/sys_read.c:7
}
2010b0b8:	853e                	mv	a0,a5
2010b0ba:	40f2                	lw	ra,28(sp)
2010b0bc:	4462                	lw	s0,24(sp)
2010b0be:	6105                	add	sp,sp,32
2010b0c0:	8082                	ret

2010b0c2 <_sbrk>:
_sbrk():
C:/VSD_Sqd_Project/sifive_hifive1_BitNet_MNIST_App/freedom-metal/gloss/sys_sbrk.c:24
int _brk(void *addr) {
    __brk = addr;
    return 0;
}

char *_sbrk(ptrdiff_t incr) {
2010b0c2:	7179                	add	sp,sp,-48
2010b0c4:	d606                	sw	ra,44(sp)
2010b0c6:	d422                	sw	s0,40(sp)
2010b0c8:	1800                	add	s0,sp,48
2010b0ca:	fca42e23          	sw	a0,-36(s0)
C:/VSD_Sqd_Project/sifive_hifive1_BitNet_MNIST_App/freedom-metal/gloss/sys_sbrk.c:25
    char *old = __brk;
2010b0ce:	800017b7          	lui	a5,0x80001
2010b0d2:	a747a783          	lw	a5,-1420(a5) # 80000a74 <__brk>
2010b0d6:	fef42623          	sw	a5,-20(s0)
C:/VSD_Sqd_Project/sifive_hifive1_BitNet_MNIST_App/freedom-metal/gloss/sys_sbrk.c:28

    /* If __heap_size == 0, we can't allocate memory on the heap */
    if (&metal_segment_heap_target_start == &metal_segment_heap_target_end) {
2010b0da:	e1018713          	add	a4,gp,-496 # 80001080 <_sp>
2010b0de:	61018793          	add	a5,gp,1552 # 80001880 <metal_segment_heap_target_end>
2010b0e2:	00f71463          	bne	a4,a5,2010b0ea <_sbrk+0x28>
C:/VSD_Sqd_Project/sifive_hifive1_BitNet_MNIST_App/freedom-metal/gloss/sys_sbrk.c:29
        return (void *)-1;
2010b0e6:	57fd                	li	a5,-1
2010b0e8:	a0b9                	j	2010b136 <_sbrk+0x74>
C:/VSD_Sqd_Project/sifive_hifive1_BitNet_MNIST_App/freedom-metal/gloss/sys_sbrk.c:33
    }

    /* Don't move the break past the end of the heap */
    if ((__brk + incr) < &metal_segment_heap_target_end) {
2010b0ea:	800017b7          	lui	a5,0x80001
2010b0ee:	a747a703          	lw	a4,-1420(a5) # 80000a74 <__brk>
2010b0f2:	fdc42783          	lw	a5,-36(s0)
2010b0f6:	973e                	add	a4,a4,a5
2010b0f8:	61018793          	add	a5,gp,1552 # 80001880 <metal_segment_heap_target_end>
2010b0fc:	02f77663          	bgeu	a4,a5,2010b128 <_sbrk+0x66>
C:/VSD_Sqd_Project/sifive_hifive1_BitNet_MNIST_App/freedom-metal/gloss/sys_sbrk.c:34
        __brk += incr;
2010b100:	800017b7          	lui	a5,0x80001
2010b104:	a747a703          	lw	a4,-1420(a5) # 80000a74 <__brk>
2010b108:	fdc42783          	lw	a5,-36(s0)
2010b10c:	973e                	add	a4,a4,a5
2010b10e:	800017b7          	lui	a5,0x80001
2010b112:	a6e7aa23          	sw	a4,-1420(a5) # 80000a74 <__brk>
C:/VSD_Sqd_Project/sifive_hifive1_BitNet_MNIST_App/freedom-metal/gloss/sys_sbrk.c:40
    } else {
        __brk = &metal_segment_heap_target_end;
        return (void *)-1;
    }
    /* Scrub out allocated memory to avoid spurious ECC errors */
    metal_mem_scrub(old, incr);
2010b116:	fdc42583          	lw	a1,-36(s0)
2010b11a:	fec42503          	lw	a0,-20(s0)
2010b11e:	f6df40ef          	jal	2010008a <metal_mem_scrub>
C:/VSD_Sqd_Project/sifive_hifive1_BitNet_MNIST_App/freedom-metal/gloss/sys_sbrk.c:42

    return old;
2010b122:	fec42783          	lw	a5,-20(s0)
2010b126:	a801                	j	2010b136 <_sbrk+0x74>
C:/VSD_Sqd_Project/sifive_hifive1_BitNet_MNIST_App/freedom-metal/gloss/sys_sbrk.c:36
        __brk = &metal_segment_heap_target_end;
2010b128:	800017b7          	lui	a5,0x80001
2010b12c:	61018713          	add	a4,gp,1552 # 80001880 <metal_segment_heap_target_end>
2010b130:	a6e7aa23          	sw	a4,-1420(a5) # 80000a74 <__brk>
C:/VSD_Sqd_Project/sifive_hifive1_BitNet_MNIST_App/freedom-metal/gloss/sys_sbrk.c:37
        return (void *)-1;
2010b134:	57fd                	li	a5,-1
C:/VSD_Sqd_Project/sifive_hifive1_BitNet_MNIST_App/freedom-metal/gloss/sys_sbrk.c:43
}
2010b136:	853e                	mv	a0,a5
2010b138:	50b2                	lw	ra,44(sp)
2010b13a:	5422                	lw	s0,40(sp)
2010b13c:	6145                	add	sp,sp,48
2010b13e:	8082                	ret

2010b140 <_write>:
_write():
C:/VSD_Sqd_Project/sifive_hifive1_BitNet_MNIST_App/freedom-metal/gloss/sys_write.c:7
#include <metal/tty.h>
#include <sys/types.h>
#include <unistd.h>

/* Write to a file.  */
ssize_t _write(int file, const void *ptr, size_t len) {
2010b140:	7179                	add	sp,sp,-48
2010b142:	d606                	sw	ra,44(sp)
2010b144:	d422                	sw	s0,40(sp)
2010b146:	1800                	add	s0,sp,48
2010b148:	fca42e23          	sw	a0,-36(s0)
2010b14c:	fcb42c23          	sw	a1,-40(s0)
2010b150:	fcc42a23          	sw	a2,-44(s0)
C:/VSD_Sqd_Project/sifive_hifive1_BitNet_MNIST_App/freedom-metal/gloss/sys_write.c:8
    if (file != STDOUT_FILENO) {
2010b154:	fdc42703          	lw	a4,-36(s0)
2010b158:	4785                	li	a5,1
2010b15a:	00f70963          	beq	a4,a5,2010b16c <_write+0x2c>
C:/VSD_Sqd_Project/sifive_hifive1_BitNet_MNIST_App/freedom-metal/gloss/sys_write.c:9
        errno = ENOSYS;
2010b15e:	2049                	jal	2010b1e0 <__errno>
2010b160:	872a                	mv	a4,a0
C:/VSD_Sqd_Project/sifive_hifive1_BitNet_MNIST_App/freedom-metal/gloss/sys_write.c:9 (discriminator 1)
2010b162:	05800793          	li	a5,88
2010b166:	c31c                	sw	a5,0(a4)
C:/VSD_Sqd_Project/sifive_hifive1_BitNet_MNIST_App/freedom-metal/gloss/sys_write.c:10
        return -1;
2010b168:	57fd                	li	a5,-1
2010b16a:	a82d                	j	2010b1a4 <_write+0x64>
C:/VSD_Sqd_Project/sifive_hifive1_BitNet_MNIST_App/freedom-metal/gloss/sys_write.c:13
    }

    const char *bptr = ptr;
2010b16c:	fd842783          	lw	a5,-40(s0)
2010b170:	fef42423          	sw	a5,-24(s0)
C:/VSD_Sqd_Project/sifive_hifive1_BitNet_MNIST_App/freedom-metal/gloss/sys_write.c:14
    for (size_t i = 0; i < len; ++i)
2010b174:	fe042623          	sw	zero,-20(s0)
2010b178:	a839                	j	2010b196 <_write+0x56>
C:/VSD_Sqd_Project/sifive_hifive1_BitNet_MNIST_App/freedom-metal/gloss/sys_write.c:15
        metal_tty_putc(bptr[i]);
2010b17a:	fe842703          	lw	a4,-24(s0)
2010b17e:	fec42783          	lw	a5,-20(s0)
2010b182:	97ba                	add	a5,a5,a4
2010b184:	0007c783          	lbu	a5,0(a5)
2010b188:	853e                	mv	a0,a5
2010b18a:	26b1                	jal	2010b4d6 <metal_tty_putc>
C:/VSD_Sqd_Project/sifive_hifive1_BitNet_MNIST_App/freedom-metal/gloss/sys_write.c:14 (discriminator 3)
    for (size_t i = 0; i < len; ++i)
2010b18c:	fec42783          	lw	a5,-20(s0)
2010b190:	0785                	add	a5,a5,1
2010b192:	fef42623          	sw	a5,-20(s0)
C:/VSD_Sqd_Project/sifive_hifive1_BitNet_MNIST_App/freedom-metal/gloss/sys_write.c:14 (discriminator 1)
2010b196:	fec42703          	lw	a4,-20(s0)
2010b19a:	fd442783          	lw	a5,-44(s0)
2010b19e:	fcf76ee3          	bltu	a4,a5,2010b17a <_write+0x3a>
C:/VSD_Sqd_Project/sifive_hifive1_BitNet_MNIST_App/freedom-metal/gloss/sys_write.c:16
    return 0;
2010b1a2:	4781                	li	a5,0
C:/VSD_Sqd_Project/sifive_hifive1_BitNet_MNIST_App/freedom-metal/gloss/sys_write.c:17
}
2010b1a4:	853e                	mv	a0,a5
2010b1a6:	50b2                	lw	ra,44(sp)
2010b1a8:	5422                	lw	s0,40(sp)
2010b1aa:	6145                	add	sp,sp,48
2010b1ac:	8082                	ret

2010b1ae <atexit>:
atexit():
2010b1ae:	85aa                	mv	a1,a0
2010b1b0:	4681                	li	a3,0
2010b1b2:	4601                	li	a2,0
2010b1b4:	4501                	li	a0,0
2010b1b6:	a0e1                	j	2010b27e <__register_exitproc>

2010b1b8 <exit>:
exit():
2010b1b8:	1141                	add	sp,sp,-16
2010b1ba:	c422                	sw	s0,8(sp)
2010b1bc:	c606                	sw	ra,12(sp)
2010b1be:	00000797          	auipc	a5,0x0
2010b1c2:	13878793          	add	a5,a5,312 # 2010b2f6 <__call_exitprocs>
2010b1c6:	842a                	mv	s0,a0
2010b1c8:	c399                	beqz	a5,2010b1ce <exit+0x16>
2010b1ca:	4581                	li	a1,0
2010b1cc:	222d                	jal	2010b2f6 <__call_exitprocs>
2010b1ce:	5fef6797          	auipc	a5,0x5fef6
2010b1d2:	8d27a783          	lw	a5,-1838(a5) # 80000aa0 <__stdio_exit_handler>
2010b1d6:	c391                	beqz	a5,2010b1da <exit+0x22>
2010b1d8:	9782                	jalr	a5
2010b1da:	8522                	mv	a0,s0
2010b1dc:	1c7040ef          	jal	2010fba2 <_exit>

2010b1e0 <__errno>:
__errno():
2010b1e0:	5fef6517          	auipc	a0,0x5fef6
2010b1e4:	89052503          	lw	a0,-1904(a0) # 80000a70 <_impure_ptr>
2010b1e8:	8082                	ret

2010b1ea <__libc_init_array>:
__libc_init_array():
2010b1ea:	1141                	add	sp,sp,-16
2010b1ec:	c422                	sw	s0,8(sp)
2010b1ee:	c226                	sw	s1,4(sp)
2010b1f0:	ffff5417          	auipc	s0,0xffff5
2010b1f4:	0d840413          	add	s0,s0,216 # 201002c8 <_metal_tty_init_ptr>
2010b1f8:	ffff5497          	auipc	s1,0xffff5
2010b1fc:	0d048493          	add	s1,s1,208 # 201002c8 <_metal_tty_init_ptr>
2010b200:	8c81                	sub	s1,s1,s0
2010b202:	c04a                	sw	s2,0(sp)
2010b204:	c606                	sw	ra,12(sp)
2010b206:	8489                	sra	s1,s1,0x2
2010b208:	4901                	li	s2,0
2010b20a:	02991563          	bne	s2,s1,2010b234 <__libc_init_array+0x4a>
2010b20e:	ffff5417          	auipc	s0,0xffff5
2010b212:	0ba40413          	add	s0,s0,186 # 201002c8 <_metal_tty_init_ptr>
2010b216:	ffff5497          	auipc	s1,0xffff5
2010b21a:	0b248493          	add	s1,s1,178 # 201002c8 <_metal_tty_init_ptr>
2010b21e:	8c81                	sub	s1,s1,s0
2010b220:	8489                	sra	s1,s1,0x2
2010b222:	4901                	li	s2,0
2010b224:	00991d63          	bne	s2,s1,2010b23e <__libc_init_array+0x54>
2010b228:	40b2                	lw	ra,12(sp)
2010b22a:	4422                	lw	s0,8(sp)
2010b22c:	4492                	lw	s1,4(sp)
2010b22e:	4902                	lw	s2,0(sp)
2010b230:	0141                	add	sp,sp,16
2010b232:	8082                	ret
2010b234:	401c                	lw	a5,0(s0)
2010b236:	0905                	add	s2,s2,1
2010b238:	0411                	add	s0,s0,4
2010b23a:	9782                	jalr	a5
2010b23c:	b7f9                	j	2010b20a <__libc_init_array+0x20>
2010b23e:	401c                	lw	a5,0(s0)
2010b240:	0905                	add	s2,s2,1
2010b242:	0411                	add	s0,s0,4
2010b244:	9782                	jalr	a5
2010b246:	bff9                	j	2010b224 <__libc_init_array+0x3a>

2010b248 <__libc_fini_array>:
__libc_fini_array():
2010b248:	1141                	add	sp,sp,-16
2010b24a:	c422                	sw	s0,8(sp)
2010b24c:	c226                	sw	s1,4(sp)
2010b24e:	ffff5417          	auipc	s0,0xffff5
2010b252:	08a40413          	add	s0,s0,138 # 201002d8 <__fini_array_end>
2010b256:	ffff5497          	auipc	s1,0xffff5
2010b25a:	08248493          	add	s1,s1,130 # 201002d8 <__fini_array_end>
2010b25e:	8c05                	sub	s0,s0,s1
2010b260:	c606                	sw	ra,12(sp)
2010b262:	8409                	sra	s0,s0,0x2
2010b264:	e411                	bnez	s0,2010b270 <__libc_fini_array+0x28>
2010b266:	40b2                	lw	ra,12(sp)
2010b268:	4422                	lw	s0,8(sp)
2010b26a:	4492                	lw	s1,4(sp)
2010b26c:	0141                	add	sp,sp,16
2010b26e:	8082                	ret
2010b270:	147d                	add	s0,s0,-1
2010b272:	00241793          	sll	a5,s0,0x2
2010b276:	97a6                	add	a5,a5,s1
2010b278:	439c                	lw	a5,0(a5)
2010b27a:	9782                	jalr	a5
2010b27c:	b7e5                	j	2010b264 <__libc_fini_array+0x1c>

2010b27e <__register_exitproc>:
__register_exitproc():
2010b27e:	5fef6717          	auipc	a4,0x5fef6
2010b282:	82a70713          	add	a4,a4,-2006 # 80000aa8 <__atexit>
2010b286:	431c                	lw	a5,0(a4)
2010b288:	88aa                	mv	a7,a0
2010b28a:	ef81                	bnez	a5,2010b2a2 <__register_exitproc+0x24>
2010b28c:	97c18793          	add	a5,gp,-1668 # 80000bec <__atexit0>
2010b290:	c31c                	sw	a5,0(a4)
2010b292:	00000713          	li	a4,0
2010b296:	c701                	beqz	a4,2010b29e <__register_exitproc+0x20>
2010b298:	4318                	lw	a4,0(a4)
2010b29a:	08e7a423          	sw	a4,136(a5)
2010b29e:	97c18793          	add	a5,gp,-1668 # 80000bec <__atexit0>
2010b2a2:	43d8                	lw	a4,4(a5)
2010b2a4:	487d                	li	a6,31
2010b2a6:	557d                	li	a0,-1
2010b2a8:	04e84663          	blt	a6,a4,2010b2f4 <__register_exitproc+0x76>
2010b2ac:	02088d63          	beqz	a7,2010b2e6 <__register_exitproc+0x68>
2010b2b0:	0887a803          	lw	a6,136(a5)
2010b2b4:	04080063          	beqz	a6,2010b2f4 <__register_exitproc+0x76>
2010b2b8:	00271513          	sll	a0,a4,0x2
2010b2bc:	9542                	add	a0,a0,a6
2010b2be:	c110                	sw	a2,0(a0)
2010b2c0:	10082303          	lw	t1,256(a6)
2010b2c4:	4605                	li	a2,1
2010b2c6:	00e61633          	sll	a2,a2,a4
2010b2ca:	00c36333          	or	t1,t1,a2
2010b2ce:	10682023          	sw	t1,256(a6)
2010b2d2:	08d52023          	sw	a3,128(a0)
2010b2d6:	4689                	li	a3,2
2010b2d8:	00d89763          	bne	a7,a3,2010b2e6 <__register_exitproc+0x68>
2010b2dc:	10482683          	lw	a3,260(a6)
2010b2e0:	8ed1                	or	a3,a3,a2
2010b2e2:	10d82223          	sw	a3,260(a6)
2010b2e6:	00170693          	add	a3,a4,1
2010b2ea:	070a                	sll	a4,a4,0x2
2010b2ec:	c3d4                	sw	a3,4(a5)
2010b2ee:	97ba                	add	a5,a5,a4
2010b2f0:	c78c                	sw	a1,8(a5)
2010b2f2:	4501                	li	a0,0
2010b2f4:	8082                	ret

2010b2f6 <__call_exitprocs>:
__call_exitprocs():
2010b2f6:	7179                	add	sp,sp,-48
2010b2f8:	ca56                	sw	s5,20(sp)
2010b2fa:	c85a                	sw	s6,16(sp)
2010b2fc:	c65e                	sw	s7,12(sp)
2010b2fe:	c462                	sw	s8,8(sp)
2010b300:	d606                	sw	ra,44(sp)
2010b302:	d422                	sw	s0,40(sp)
2010b304:	d226                	sw	s1,36(sp)
2010b306:	d04a                	sw	s2,32(sp)
2010b308:	ce4e                	sw	s3,28(sp)
2010b30a:	cc52                	sw	s4,24(sp)
2010b30c:	c266                	sw	s9,4(sp)
2010b30e:	8b2a                	mv	s6,a0
2010b310:	8aae                	mv	s5,a1
2010b312:	5fef5b97          	auipc	s7,0x5fef5
2010b316:	796b8b93          	add	s7,s7,1942 # 80000aa8 <__atexit>
2010b31a:	4c05                	li	s8,1
2010b31c:	000ba483          	lw	s1,0(s7)
2010b320:	cc81                	beqz	s1,2010b338 <__call_exitprocs+0x42>
2010b322:	40c0                	lw	s0,4(s1)
2010b324:	0884a983          	lw	s3,136(s1)
2010b328:	fff40913          	add	s2,s0,-1
2010b32c:	040a                	sll	s0,s0,0x2
2010b32e:	00898a33          	add	s4,s3,s0
2010b332:	9426                	add	s0,s0,s1
2010b334:	00095f63          	bgez	s2,2010b352 <__call_exitprocs+0x5c>
2010b338:	50b2                	lw	ra,44(sp)
2010b33a:	5422                	lw	s0,40(sp)
2010b33c:	5492                	lw	s1,36(sp)
2010b33e:	5902                	lw	s2,32(sp)
2010b340:	49f2                	lw	s3,28(sp)
2010b342:	4a62                	lw	s4,24(sp)
2010b344:	4ad2                	lw	s5,20(sp)
2010b346:	4b42                	lw	s6,16(sp)
2010b348:	4bb2                	lw	s7,12(sp)
2010b34a:	4c22                	lw	s8,8(sp)
2010b34c:	4c92                	lw	s9,4(sp)
2010b34e:	6145                	add	sp,sp,48
2010b350:	8082                	ret
2010b352:	000a8c63          	beqz	s5,2010b36a <__call_exitprocs+0x74>
2010b356:	00099663          	bnez	s3,2010b362 <__call_exitprocs+0x6c>
2010b35a:	197d                	add	s2,s2,-1
2010b35c:	1a71                	add	s4,s4,-4
2010b35e:	1471                	add	s0,s0,-4
2010b360:	bfd1                	j	2010b334 <__call_exitprocs+0x3e>
2010b362:	07ca2783          	lw	a5,124(s4)
2010b366:	ff579ae3          	bne	a5,s5,2010b35a <__call_exitprocs+0x64>
2010b36a:	40d8                	lw	a4,4(s1)
2010b36c:	405c                	lw	a5,4(s0)
2010b36e:	177d                	add	a4,a4,-1
2010b370:	03271863          	bne	a4,s2,2010b3a0 <__call_exitprocs+0xaa>
2010b374:	0124a223          	sw	s2,4(s1)
2010b378:	d3ed                	beqz	a5,2010b35a <__call_exitprocs+0x64>
2010b37a:	0044ac83          	lw	s9,4(s1)
2010b37e:	00098863          	beqz	s3,2010b38e <__call_exitprocs+0x98>
2010b382:	1009a683          	lw	a3,256(s3)
2010b386:	012c1733          	sll	a4,s8,s2
2010b38a:	8ef9                	and	a3,a3,a4
2010b38c:	ee89                	bnez	a3,2010b3a6 <__call_exitprocs+0xb0>
2010b38e:	9782                	jalr	a5
2010b390:	40d8                	lw	a4,4(s1)
2010b392:	000ba783          	lw	a5,0(s7)
2010b396:	f99713e3          	bne	a4,s9,2010b31c <__call_exitprocs+0x26>
2010b39a:	fcf480e3          	beq	s1,a5,2010b35a <__call_exitprocs+0x64>
2010b39e:	bfbd                	j	2010b31c <__call_exitprocs+0x26>
2010b3a0:	00042223          	sw	zero,4(s0)
2010b3a4:	bfd1                	j	2010b378 <__call_exitprocs+0x82>
2010b3a6:	1049a683          	lw	a3,260(s3)
2010b3aa:	ffca2583          	lw	a1,-4(s4)
2010b3ae:	8f75                	and	a4,a4,a3
2010b3b0:	e701                	bnez	a4,2010b3b8 <__call_exitprocs+0xc2>
2010b3b2:	855a                	mv	a0,s6
2010b3b4:	9782                	jalr	a5
2010b3b6:	bfe9                	j	2010b390 <__call_exitprocs+0x9a>
2010b3b8:	852e                	mv	a0,a1
2010b3ba:	9782                	jalr	a5
2010b3bc:	bfd1                	j	2010b390 <__call_exitprocs+0x9a>

2010b3be <metal_init>:
metal_init():
C:/VSD_Sqd_Project/sifive_hifive1_BitNet_MNIST_App/freedom-metal/src/init.c:21
extern metal_constructor_t metal_constructors_start;
extern metal_constructor_t metal_constructors_end;
extern metal_destructor_t metal_destructors_start;
extern metal_destructor_t metal_destructors_end;

void metal_init(void) {
2010b3be:	1101                	add	sp,sp,-32
2010b3c0:	ce06                	sw	ra,28(sp)
2010b3c2:	cc22                	sw	s0,24(sp)
2010b3c4:	1000                	add	s0,sp,32
C:/VSD_Sqd_Project/sifive_hifive1_BitNet_MNIST_App/freedom-metal/src/init.c:24
    /* Make sure the constructors only run once */
    static int init_done = 0;
    if (init_done) {
2010b3c6:	800017b7          	lui	a5,0x80001
2010b3ca:	aac7a783          	lw	a5,-1364(a5) # 80000aac <init_done.1>
2010b3ce:	efa9                	bnez	a5,2010b428 <metal_init+0x6a>
C:/VSD_Sqd_Project/sifive_hifive1_BitNet_MNIST_App/freedom-metal/src/init.c:27
        return;
    }
    init_done = 1;
2010b3d0:	800017b7          	lui	a5,0x80001
2010b3d4:	4705                	li	a4,1
2010b3d6:	aae7a623          	sw	a4,-1364(a5) # 80000aac <init_done.1>
C:/VSD_Sqd_Project/sifive_hifive1_BitNet_MNIST_App/freedom-metal/src/init.c:42
#ifdef METAL_SIFIVE_L2PF1
    /* Do L2 Stride Prefetcher initialization. */
    sifive_l2pf1_init();
#endif /* METAL_SIFIVE_L2PF1 */

    if (&metal_constructors_end <= &metal_constructors_start) {
2010b3da:	201007b7          	lui	a5,0x20100
2010b3de:	2d478713          	add	a4,a5,724 # 201002d4 <metal_tty_init>
2010b3e2:	201007b7          	lui	a5,0x20100
2010b3e6:	2c878793          	add	a5,a5,712 # 201002c8 <_metal_tty_init_ptr>
2010b3ea:	04e7f163          	bgeu	a5,a4,2010b42c <metal_init+0x6e>
C:/VSD_Sqd_Project/sifive_hifive1_BitNet_MNIST_App/freedom-metal/src/init.c:46
        return;
    }

    metal_constructor_t *funcptr = &metal_constructors_start;
2010b3ee:	201007b7          	lui	a5,0x20100
2010b3f2:	2c878793          	add	a5,a5,712 # 201002c8 <_metal_tty_init_ptr>
2010b3f6:	fef42623          	sw	a5,-20(s0)
C:/VSD_Sqd_Project/sifive_hifive1_BitNet_MNIST_App/freedom-metal/src/init.c:47
    while (funcptr != &metal_constructors_end) {
2010b3fa:	a831                	j	2010b416 <metal_init+0x58>
C:/VSD_Sqd_Project/sifive_hifive1_BitNet_MNIST_App/freedom-metal/src/init.c:48
        metal_constructor_t func = *funcptr;
2010b3fc:	fec42783          	lw	a5,-20(s0)
2010b400:	439c                	lw	a5,0(a5)
2010b402:	fef42423          	sw	a5,-24(s0)
C:/VSD_Sqd_Project/sifive_hifive1_BitNet_MNIST_App/freedom-metal/src/init.c:50

        func();
2010b406:	fe842783          	lw	a5,-24(s0)
2010b40a:	9782                	jalr	a5
C:/VSD_Sqd_Project/sifive_hifive1_BitNet_MNIST_App/freedom-metal/src/init.c:52

        funcptr += 1;
2010b40c:	fec42783          	lw	a5,-20(s0)
2010b410:	0791                	add	a5,a5,4
2010b412:	fef42623          	sw	a5,-20(s0)
C:/VSD_Sqd_Project/sifive_hifive1_BitNet_MNIST_App/freedom-metal/src/init.c:47
    while (funcptr != &metal_constructors_end) {
2010b416:	fec42703          	lw	a4,-20(s0)
2010b41a:	201007b7          	lui	a5,0x20100
2010b41e:	2d478793          	add	a5,a5,724 # 201002d4 <metal_tty_init>
2010b422:	fcf71de3          	bne	a4,a5,2010b3fc <metal_init+0x3e>
2010b426:	a021                	j	2010b42e <metal_init+0x70>
C:/VSD_Sqd_Project/sifive_hifive1_BitNet_MNIST_App/freedom-metal/src/init.c:25
        return;
2010b428:	0001                	nop
2010b42a:	a011                	j	2010b42e <metal_init+0x70>
C:/VSD_Sqd_Project/sifive_hifive1_BitNet_MNIST_App/freedom-metal/src/init.c:43
        return;
2010b42c:	0001                	nop
C:/VSD_Sqd_Project/sifive_hifive1_BitNet_MNIST_App/freedom-metal/src/init.c:54
    }
}
2010b42e:	40f2                	lw	ra,28(sp)
2010b430:	4462                	lw	s0,24(sp)
2010b432:	6105                	add	sp,sp,32
2010b434:	8082                	ret

2010b436 <metal_fini>:
metal_fini():
C:/VSD_Sqd_Project/sifive_hifive1_BitNet_MNIST_App/freedom-metal/src/init.c:56

void metal_fini(void) {
2010b436:	1101                	add	sp,sp,-32
2010b438:	ce06                	sw	ra,28(sp)
2010b43a:	cc22                	sw	s0,24(sp)
2010b43c:	1000                	add	s0,sp,32
C:/VSD_Sqd_Project/sifive_hifive1_BitNet_MNIST_App/freedom-metal/src/init.c:59
    /* Make sure the destructors only run once */
    static int fini_done = 0;
    if (fini_done) {
2010b43e:	800017b7          	lui	a5,0x80001
2010b442:	ab07a783          	lw	a5,-1360(a5) # 80000ab0 <fini_done.0>
2010b446:	efa9                	bnez	a5,2010b4a0 <metal_fini+0x6a>
C:/VSD_Sqd_Project/sifive_hifive1_BitNet_MNIST_App/freedom-metal/src/init.c:62
        return;
    }
    fini_done = 1;
2010b448:	800017b7          	lui	a5,0x80001
2010b44c:	4705                	li	a4,1
2010b44e:	aae7a823          	sw	a4,-1360(a5) # 80000ab0 <fini_done.0>
C:/VSD_Sqd_Project/sifive_hifive1_BitNet_MNIST_App/freedom-metal/src/init.c:64

    if (&metal_destructors_end <= &metal_destructors_start) {
2010b452:	201007b7          	lui	a5,0x20100
2010b456:	2d878713          	add	a4,a5,728 # 201002d8 <__fini_array_end>
2010b45a:	201007b7          	lui	a5,0x20100
2010b45e:	2d878793          	add	a5,a5,728 # 201002d8 <__fini_array_end>
2010b462:	04e7f163          	bgeu	a5,a4,2010b4a4 <metal_fini+0x6e>
C:/VSD_Sqd_Project/sifive_hifive1_BitNet_MNIST_App/freedom-metal/src/init.c:68
        return;
    }

    metal_destructor_t *funcptr = &metal_destructors_start;
2010b466:	201007b7          	lui	a5,0x20100
2010b46a:	2d878793          	add	a5,a5,728 # 201002d8 <__fini_array_end>
2010b46e:	fef42623          	sw	a5,-20(s0)
C:/VSD_Sqd_Project/sifive_hifive1_BitNet_MNIST_App/freedom-metal/src/init.c:69
    while (funcptr != &metal_destructors_end) {
2010b472:	a831                	j	2010b48e <metal_fini+0x58>
C:/VSD_Sqd_Project/sifive_hifive1_BitNet_MNIST_App/freedom-metal/src/init.c:70
        metal_destructor_t func = *funcptr;
2010b474:	fec42783          	lw	a5,-20(s0)
2010b478:	439c                	lw	a5,0(a5)
2010b47a:	fef42423          	sw	a5,-24(s0)
C:/VSD_Sqd_Project/sifive_hifive1_BitNet_MNIST_App/freedom-metal/src/init.c:72

        func();
2010b47e:	fe842783          	lw	a5,-24(s0)
2010b482:	9782                	jalr	a5
C:/VSD_Sqd_Project/sifive_hifive1_BitNet_MNIST_App/freedom-metal/src/init.c:74

        funcptr += 1;
2010b484:	fec42783          	lw	a5,-20(s0)
2010b488:	0791                	add	a5,a5,4
2010b48a:	fef42623          	sw	a5,-20(s0)
C:/VSD_Sqd_Project/sifive_hifive1_BitNet_MNIST_App/freedom-metal/src/init.c:69
    while (funcptr != &metal_destructors_end) {
2010b48e:	fec42703          	lw	a4,-20(s0)
2010b492:	201007b7          	lui	a5,0x20100
2010b496:	2d878793          	add	a5,a5,728 # 201002d8 <__fini_array_end>
2010b49a:	fcf71de3          	bne	a4,a5,2010b474 <metal_fini+0x3e>
2010b49e:	a021                	j	2010b4a6 <metal_fini+0x70>
C:/VSD_Sqd_Project/sifive_hifive1_BitNet_MNIST_App/freedom-metal/src/init.c:60
        return;
2010b4a0:	0001                	nop
2010b4a2:	a011                	j	2010b4a6 <metal_fini+0x70>
C:/VSD_Sqd_Project/sifive_hifive1_BitNet_MNIST_App/freedom-metal/src/init.c:65
        return;
2010b4a4:	0001                	nop
C:/VSD_Sqd_Project/sifive_hifive1_BitNet_MNIST_App/freedom-metal/src/init.c:76
    }
}
2010b4a6:	40f2                	lw	ra,28(sp)
2010b4a8:	4462                	lw	s0,24(sp)
2010b4aa:	6105                	add	sp,sp,32
2010b4ac:	8082                	ret

2010b4ae <metal_init_run>:
metal_init_run():
C:/VSD_Sqd_Project/sifive_hifive1_BitNet_MNIST_App/freedom-metal/src/init.c:86
 * in the case that users don't want the metal constructors or
 * destructors to run.
 */

void metal_init_run(void) __attribute__((weak));
void metal_init_run(void) { metal_init(); }
2010b4ae:	1141                	add	sp,sp,-16
2010b4b0:	c606                	sw	ra,12(sp)
2010b4b2:	c422                	sw	s0,8(sp)
2010b4b4:	0800                	add	s0,sp,16
2010b4b6:	3721                	jal	2010b3be <metal_init>
2010b4b8:	0001                	nop
2010b4ba:	40b2                	lw	ra,12(sp)
2010b4bc:	4422                	lw	s0,8(sp)
2010b4be:	0141                	add	sp,sp,16
2010b4c0:	8082                	ret

2010b4c2 <metal_fini_run>:
metal_fini_run():
C:/VSD_Sqd_Project/sifive_hifive1_BitNet_MNIST_App/freedom-metal/src/init.c:89

void metal_fini_run(void) __attribute__((weak));
void metal_fini_run(void) { metal_fini(); }
2010b4c2:	1141                	add	sp,sp,-16
2010b4c4:	c606                	sw	ra,12(sp)
2010b4c6:	c422                	sw	s0,8(sp)
2010b4c8:	0800                	add	s0,sp,16
2010b4ca:	37b5                	jal	2010b436 <metal_fini>
2010b4cc:	0001                	nop
2010b4ce:	40b2                	lw	ra,12(sp)
2010b4d0:	4422                	lw	s0,8(sp)
2010b4d2:	0141                	add	sp,sp,16
2010b4d4:	8082                	ret

2010b4d6 <metal_tty_putc>:
metal_tty_putc():
C:/VSD_Sqd_Project/sifive_hifive1_BitNet_MNIST_App/freedom-metal/src/tty.c:12
int metal_tty_putc(int c) {
2010b4d6:	1101                	add	sp,sp,-32
2010b4d8:	ce06                	sw	ra,28(sp)
2010b4da:	cc22                	sw	s0,24(sp)
2010b4dc:	1000                	add	s0,sp,32
2010b4de:	fea42623          	sw	a0,-20(s0)
C:/VSD_Sqd_Project/sifive_hifive1_BitNet_MNIST_App/freedom-metal/src/tty.c:13
    return metal_uart_putc(__METAL_DT_STDOUT_UART_HANDLE, c);
2010b4e2:	fec42583          	lw	a1,-20(s0)
2010b4e6:	800017b7          	lui	a5,0x80001
2010b4ea:	a2878513          	add	a0,a5,-1496 # 80000a28 <__metal_dt_serial_10013000>
2010b4ee:	282d                	jal	2010b528 <metal_uart_putc>
2010b4f0:	87aa                	mv	a5,a0
C:/VSD_Sqd_Project/sifive_hifive1_BitNet_MNIST_App/freedom-metal/src/tty.c:14
}
2010b4f2:	853e                	mv	a0,a5
2010b4f4:	40f2                	lw	ra,28(sp)
2010b4f6:	4462                	lw	s0,24(sp)
2010b4f8:	6105                	add	sp,sp,32
2010b4fa:	8082                	ret

2010b4fc <metal_uart_init>:
metal_uart_init():
C:/VSD_Sqd_Project/sifive_hifive1_BitNet_MNIST_App/freedom-metal/metal/uart.h:59
 more than once.
 *
 * @param uart The UART device handle
 * @param baud_rate the baud rate to set the UART to
 */
__inline__ void metal_uart_init(struct metal_uart *uart, int baud_rate) {
2010b4fc:	1101                	add	sp,sp,-32
2010b4fe:	ce06                	sw	ra,28(sp)
2010b500:	cc22                	sw	s0,24(sp)
2010b502:	1000                	add	s0,sp,32
2010b504:	fea42623          	sw	a0,-20(s0)
2010b508:	feb42423          	sw	a1,-24(s0)
C:/VSD_Sqd_Project/sifive_hifive1_BitNet_MNIST_App/freedom-metal/metal/uart.h:60
    uart->vtable->init(uart, baud_rate);
2010b50c:	fec42783          	lw	a5,-20(s0)
2010b510:	439c                	lw	a5,0(a5)
2010b512:	439c                	lw	a5,0(a5)
2010b514:	fe842583          	lw	a1,-24(s0)
2010b518:	fec42503          	lw	a0,-20(s0)
2010b51c:	9782                	jalr	a5
C:/VSD_Sqd_Project/sifive_hifive1_BitNet_MNIST_App/freedom-metal/metal/uart.h:61
}
2010b51e:	0001                	nop
2010b520:	40f2                	lw	ra,28(sp)
2010b522:	4462                	lw	s0,24(sp)
2010b524:	6105                	add	sp,sp,32
2010b526:	8082                	ret

2010b528 <metal_uart_putc>:
metal_uart_putc():
C:/VSD_Sqd_Project/sifive_hifive1_BitNet_MNIST_App/freedom-metal/metal/uart.h:69
 * @brief Output a character over the UART
 * @param uart The UART device handle
 * @param c The character to send over the UART
 * @return 0 upon success
 */
__inline__ int metal_uart_putc(struct metal_uart *uart, int c) {
2010b528:	1101                	add	sp,sp,-32
2010b52a:	ce06                	sw	ra,28(sp)
2010b52c:	cc22                	sw	s0,24(sp)
2010b52e:	1000                	add	s0,sp,32
2010b530:	fea42623          	sw	a0,-20(s0)
2010b534:	feb42423          	sw	a1,-24(s0)
C:/VSD_Sqd_Project/sifive_hifive1_BitNet_MNIST_App/freedom-metal/metal/uart.h:70
    return uart->vtable->putc(uart, c);
2010b538:	fec42783          	lw	a5,-20(s0)
2010b53c:	439c                	lw	a5,0(a5)
2010b53e:	43dc                	lw	a5,4(a5)
2010b540:	fe842583          	lw	a1,-24(s0)
2010b544:	fec42503          	lw	a0,-20(s0)
2010b548:	9782                	jalr	a5
2010b54a:	87aa                	mv	a5,a0
C:/VSD_Sqd_Project/sifive_hifive1_BitNet_MNIST_App/freedom-metal/metal/uart.h:71
}
2010b54c:	853e                	mv	a0,a5
2010b54e:	40f2                	lw	ra,28(sp)
2010b550:	4462                	lw	s0,24(sp)
2010b552:	6105                	add	sp,sp,32
2010b554:	8082                	ret

2010b556 <metal_uart_set_baud_rate>:
metal_uart_set_baud_rate():
C:/VSD_Sqd_Project/sifive_hifive1_BitNet_MNIST_App/freedom-metal/metal/uart.h:111
 * @param uart The UART device handle
 * @param baud_rate The baud rate to configure
 * @return the new baud rate of the UART
 */
__inline__ int metal_uart_set_baud_rate(struct metal_uart *uart,
                                        int baud_rate) {
2010b556:	1101                	add	sp,sp,-32
2010b558:	ce06                	sw	ra,28(sp)
2010b55a:	cc22                	sw	s0,24(sp)
2010b55c:	1000                	add	s0,sp,32
2010b55e:	fea42623          	sw	a0,-20(s0)
2010b562:	feb42423          	sw	a1,-24(s0)
C:/VSD_Sqd_Project/sifive_hifive1_BitNet_MNIST_App/freedom-metal/metal/uart.h:112
    return uart->vtable->set_baud_rate(uart, baud_rate);
2010b566:	fec42783          	lw	a5,-20(s0)
2010b56a:	439c                	lw	a5,0(a5)
2010b56c:	4bdc                	lw	a5,20(a5)
2010b56e:	fe842583          	lw	a1,-24(s0)
2010b572:	fec42503          	lw	a0,-20(s0)
2010b576:	9782                	jalr	a5
2010b578:	87aa                	mv	a5,a0
C:/VSD_Sqd_Project/sifive_hifive1_BitNet_MNIST_App/freedom-metal/metal/uart.h:113
}
2010b57a:	853e                	mv	a0,a5
2010b57c:	40f2                	lw	ra,28(sp)
2010b57e:	4462                	lw	s0,24(sp)
2010b580:	6105                	add	sp,sp,32
2010b582:	8082                	ret

2010b584 <__metal_driver_sifive_clint0_control_base>:
__metal_driver_sifive_clint0_control_base():
C:\VSD_Sqd_Project\sifive_hifive1_BitNet_MNIST_App\bsp\build\debug/./metal/machine.h:208
/* --------------------- fixed_factor_clock ------------ */


/* --------------------- sifive_clint0 ------------ */
static __inline__ unsigned long __metal_driver_sifive_clint0_control_base(struct metal_interrupt *controller)
{
2010b584:	1101                	add	sp,sp,-32
2010b586:	ce22                	sw	s0,28(sp)
2010b588:	1000                	add	s0,sp,32
2010b58a:	fea42623          	sw	a0,-20(s0)
C:\VSD_Sqd_Project\sifive_hifive1_BitNet_MNIST_App\bsp\build\debug/./metal/machine.h:209
	if ((uintptr_t)controller == (uintptr_t)&__metal_dt_clint_2000000) {
2010b58e:	fec42703          	lw	a4,-20(s0)
2010b592:	800017b7          	lui	a5,0x80001
2010b596:	a7c78793          	add	a5,a5,-1412 # 80000a7c <__metal_dt_clint_2000000>
2010b59a:	00f71563          	bne	a4,a5,2010b5a4 <__metal_driver_sifive_clint0_control_base+0x20>
C:\VSD_Sqd_Project\sifive_hifive1_BitNet_MNIST_App\bsp\build\debug/./metal/machine.h:210
		return METAL_RISCV_CLINT0_2000000_BASE_ADDRESS;
2010b59e:	020007b7          	lui	a5,0x2000
2010b5a2:	a011                	j	2010b5a6 <__metal_driver_sifive_clint0_control_base+0x22>
C:\VSD_Sqd_Project\sifive_hifive1_BitNet_MNIST_App\bsp\build\debug/./metal/machine.h:213
	}
	else {
		return 0;
2010b5a4:	4781                	li	a5,0
C:\VSD_Sqd_Project\sifive_hifive1_BitNet_MNIST_App\bsp\build\debug/./metal/machine.h:215
	}
}
2010b5a6:	853e                	mv	a0,a5
2010b5a8:	4472                	lw	s0,28(sp)
2010b5aa:	6105                	add	sp,sp,32
2010b5ac:	8082                	ret

2010b5ae <__metal_driver_sifive_clint0_num_interrupts>:
__metal_driver_sifive_clint0_num_interrupts():
C:\VSD_Sqd_Project\sifive_hifive1_BitNet_MNIST_App\bsp\build\debug/./metal/machine.h:228
		return 0;
	}
}

static __inline__ int __metal_driver_sifive_clint0_num_interrupts(struct metal_interrupt *controller)
{
2010b5ae:	1101                	add	sp,sp,-32
2010b5b0:	ce22                	sw	s0,28(sp)
2010b5b2:	1000                	add	s0,sp,32
2010b5b4:	fea42623          	sw	a0,-20(s0)
C:\VSD_Sqd_Project\sifive_hifive1_BitNet_MNIST_App\bsp\build\debug/./metal/machine.h:229
	if ((uintptr_t)controller == (uintptr_t)&__metal_dt_clint_2000000) {
2010b5b8:	fec42703          	lw	a4,-20(s0)
2010b5bc:	800017b7          	lui	a5,0x80001
2010b5c0:	a7c78793          	add	a5,a5,-1412 # 80000a7c <__metal_dt_clint_2000000>
2010b5c4:	00f71463          	bne	a4,a5,2010b5cc <__metal_driver_sifive_clint0_num_interrupts+0x1e>
C:\VSD_Sqd_Project\sifive_hifive1_BitNet_MNIST_App\bsp\build\debug/./metal/machine.h:230
		return METAL_MAX_CLINT_INTERRUPTS;
2010b5c8:	4789                	li	a5,2
2010b5ca:	a011                	j	2010b5ce <__metal_driver_sifive_clint0_num_interrupts+0x20>
C:\VSD_Sqd_Project\sifive_hifive1_BitNet_MNIST_App\bsp\build\debug/./metal/machine.h:233
	}
	else {
		return 0;
2010b5cc:	4781                	li	a5,0
C:\VSD_Sqd_Project\sifive_hifive1_BitNet_MNIST_App\bsp\build\debug/./metal/machine.h:235
	}
}
2010b5ce:	853e                	mv	a0,a5
2010b5d0:	4472                	lw	s0,28(sp)
2010b5d2:	6105                	add	sp,sp,32
2010b5d4:	8082                	ret

2010b5d6 <__metal_driver_sifive_clint0_interrupt_parents>:
__metal_driver_sifive_clint0_interrupt_parents():
C:\VSD_Sqd_Project\sifive_hifive1_BitNet_MNIST_App\bsp\build\debug/./metal/machine.h:238

static __inline__ struct metal_interrupt * __metal_driver_sifive_clint0_interrupt_parents(struct metal_interrupt *controller, int idx)
{
2010b5d6:	1101                	add	sp,sp,-32
2010b5d8:	ce22                	sw	s0,28(sp)
2010b5da:	1000                	add	s0,sp,32
2010b5dc:	fea42623          	sw	a0,-20(s0)
2010b5e0:	feb42423          	sw	a1,-24(s0)
C:\VSD_Sqd_Project\sifive_hifive1_BitNet_MNIST_App\bsp\build\debug/./metal/machine.h:239
	if (idx == 0) {
2010b5e4:	fe842783          	lw	a5,-24(s0)
2010b5e8:	e791                	bnez	a5,2010b5f4 <__metal_driver_sifive_clint0_interrupt_parents+0x1e>
C:\VSD_Sqd_Project\sifive_hifive1_BitNet_MNIST_App\bsp\build\debug/./metal/machine.h:240
		return (struct metal_interrupt *)&__metal_dt_cpu_0_interrupt_controller.controller;
2010b5ea:	800007b7          	lui	a5,0x80000
2010b5ee:	08078793          	add	a5,a5,128 # 80000080 <__metal_dt_cpu_0_interrupt_controller>
2010b5f2:	a821                	j	2010b60a <__metal_driver_sifive_clint0_interrupt_parents+0x34>
C:\VSD_Sqd_Project\sifive_hifive1_BitNet_MNIST_App\bsp\build\debug/./metal/machine.h:242
	}
	else if (idx == 1) {
2010b5f4:	fe842703          	lw	a4,-24(s0)
2010b5f8:	4785                	li	a5,1
2010b5fa:	00f71763          	bne	a4,a5,2010b608 <__metal_driver_sifive_clint0_interrupt_parents+0x32>
C:\VSD_Sqd_Project\sifive_hifive1_BitNet_MNIST_App\bsp\build\debug/./metal/machine.h:243
		return (struct metal_interrupt *)&__metal_dt_cpu_0_interrupt_controller.controller;
2010b5fe:	800007b7          	lui	a5,0x80000
2010b602:	08078793          	add	a5,a5,128 # 80000080 <__metal_dt_cpu_0_interrupt_controller>
2010b606:	a011                	j	2010b60a <__metal_driver_sifive_clint0_interrupt_parents+0x34>
C:\VSD_Sqd_Project\sifive_hifive1_BitNet_MNIST_App\bsp\build\debug/./metal/machine.h:246
	}
	else {
		return NULL;
2010b608:	4781                	li	a5,0
C:\VSD_Sqd_Project\sifive_hifive1_BitNet_MNIST_App\bsp\build\debug/./metal/machine.h:248
	}
}
2010b60a:	853e                	mv	a0,a5
2010b60c:	4472                	lw	s0,28(sp)
2010b60e:	6105                	add	sp,sp,32
2010b610:	8082                	ret

2010b612 <__metal_driver_sifive_clint0_interrupt_lines>:
__metal_driver_sifive_clint0_interrupt_lines():
C:\VSD_Sqd_Project\sifive_hifive1_BitNet_MNIST_App\bsp\build\debug/./metal/machine.h:251

static __inline__ int __metal_driver_sifive_clint0_interrupt_lines(struct metal_interrupt *controller, int idx)
{
2010b612:	1101                	add	sp,sp,-32
2010b614:	ce22                	sw	s0,28(sp)
2010b616:	1000                	add	s0,sp,32
2010b618:	fea42623          	sw	a0,-20(s0)
2010b61c:	feb42423          	sw	a1,-24(s0)
C:\VSD_Sqd_Project\sifive_hifive1_BitNet_MNIST_App\bsp\build\debug/./metal/machine.h:252
	if (idx == 0) {
2010b620:	fe842783          	lw	a5,-24(s0)
2010b624:	e399                	bnez	a5,2010b62a <__metal_driver_sifive_clint0_interrupt_lines+0x18>
C:\VSD_Sqd_Project\sifive_hifive1_BitNet_MNIST_App\bsp\build\debug/./metal/machine.h:253
		return 3;
2010b626:	478d                	li	a5,3
2010b628:	a809                	j	2010b63a <__metal_driver_sifive_clint0_interrupt_lines+0x28>
C:\VSD_Sqd_Project\sifive_hifive1_BitNet_MNIST_App\bsp\build\debug/./metal/machine.h:255
	}
	else if (idx == 1) {
2010b62a:	fe842703          	lw	a4,-24(s0)
2010b62e:	4785                	li	a5,1
2010b630:	00f71463          	bne	a4,a5,2010b638 <__metal_driver_sifive_clint0_interrupt_lines+0x26>
C:\VSD_Sqd_Project\sifive_hifive1_BitNet_MNIST_App\bsp\build\debug/./metal/machine.h:256
		return 7;
2010b634:	479d                	li	a5,7
2010b636:	a011                	j	2010b63a <__metal_driver_sifive_clint0_interrupt_lines+0x28>
C:\VSD_Sqd_Project\sifive_hifive1_BitNet_MNIST_App\bsp\build\debug/./metal/machine.h:259
	}
	else {
		return 0;
2010b638:	4781                	li	a5,0
C:\VSD_Sqd_Project\sifive_hifive1_BitNet_MNIST_App\bsp\build\debug/./metal/machine.h:261
	}
}
2010b63a:	853e                	mv	a0,a5
2010b63c:	4472                	lw	s0,28(sp)
2010b63e:	6105                	add	sp,sp,32
2010b640:	8082                	ret

2010b642 <__metal_clint0_mtime_get>:
__metal_clint0_mtime_get():
C:/VSD_Sqd_Project/sifive_hifive1_BitNet_MNIST_App/freedom-metal/src/drivers/riscv_clint0.c:14
#include <metal/drivers/riscv_clint0.h>
#include <metal/io.h>
#include <metal/machine.h>

unsigned long long
__metal_clint0_mtime_get(struct __metal_driver_riscv_clint0 *clint) {
2010b642:	715d                	add	sp,sp,-80
2010b644:	c686                	sw	ra,76(sp)
2010b646:	c4a2                	sw	s0,72(sp)
2010b648:	c2ca                	sw	s2,68(sp)
2010b64a:	c0ce                	sw	s3,64(sp)
2010b64c:	de52                	sw	s4,60(sp)
2010b64e:	dc56                	sw	s5,56(sp)
2010b650:	da5a                	sw	s6,52(sp)
2010b652:	d85e                	sw	s7,48(sp)
2010b654:	d662                	sw	s8,44(sp)
2010b656:	d466                	sw	s9,40(sp)
2010b658:	0880                	add	s0,sp,80
2010b65a:	faa42e23          	sw	a0,-68(s0)
C:/VSD_Sqd_Project/sifive_hifive1_BitNet_MNIST_App/freedom-metal/src/drivers/riscv_clint0.c:17
    __metal_io_u32 lo, hi;
    unsigned long control_base =
        __metal_driver_sifive_clint0_control_base(&clint->controller);
2010b65e:	fbc42783          	lw	a5,-68(s0)
2010b662:	853e                	mv	a0,a5
2010b664:	3705                	jal	2010b584 <__metal_driver_sifive_clint0_control_base>
2010b666:	fca42623          	sw	a0,-52(s0)
C:/VSD_Sqd_Project/sifive_hifive1_BitNet_MNIST_App/freedom-metal/src/drivers/riscv_clint0.c:21

    /* Guard against rollover when reading */
    do {
        hi = __METAL_ACCESS_ONCE(
2010b66a:	fcc42703          	lw	a4,-52(s0)
2010b66e:	67b1                	lui	a5,0xc
2010b670:	17f1                	add	a5,a5,-4 # bffc <__heap_size+0xb7fc>
2010b672:	97ba                	add	a5,a5,a4
2010b674:	439c                	lw	a5,0(a5)
2010b676:	fcf42423          	sw	a5,-56(s0)
C:/VSD_Sqd_Project/sifive_hifive1_BitNet_MNIST_App/freedom-metal/src/drivers/riscv_clint0.c:23
            (__metal_io_u32 *)(control_base + METAL_RISCV_CLINT0_MTIME + 4));
        lo = __METAL_ACCESS_ONCE(
2010b67a:	fcc42703          	lw	a4,-52(s0)
2010b67e:	67b1                	lui	a5,0xc
2010b680:	17e1                	add	a5,a5,-8 # bff8 <__heap_size+0xb7f8>
2010b682:	97ba                	add	a5,a5,a4
2010b684:	439c                	lw	a5,0(a5)
2010b686:	fcf42223          	sw	a5,-60(s0)
C:/VSD_Sqd_Project/sifive_hifive1_BitNet_MNIST_App/freedom-metal/src/drivers/riscv_clint0.c:25
            (__metal_io_u32 *)(control_base + METAL_RISCV_CLINT0_MTIME));
    } while (__METAL_ACCESS_ONCE((__metal_io_u32 *)(control_base +
2010b68a:	fcc42703          	lw	a4,-52(s0)
2010b68e:	67b1                	lui	a5,0xc
2010b690:	17f1                	add	a5,a5,-4 # bffc <__heap_size+0xb7fc>
2010b692:	97ba                	add	a5,a5,a4
2010b694:	439c                	lw	a5,0(a5)
C:/VSD_Sqd_Project/sifive_hifive1_BitNet_MNIST_App/freedom-metal/src/drivers/riscv_clint0.c:27 (discriminator 1)
                                                    METAL_RISCV_CLINT0_MTIME +
                                                    4)) != hi);
2010b696:	fc842703          	lw	a4,-56(s0)
2010b69a:	fcf718e3          	bne	a4,a5,2010b66a <__metal_clint0_mtime_get+0x28>
C:/VSD_Sqd_Project/sifive_hifive1_BitNet_MNIST_App/freedom-metal/src/drivers/riscv_clint0.c:29

    return (((unsigned long long)hi) << 32) | lo;
2010b69e:	fc842783          	lw	a5,-56(s0)
2010b6a2:	8c3e                	mv	s8,a5
2010b6a4:	4c81                	li	s9,0
2010b6a6:	000c1993          	sll	s3,s8,0x0
2010b6aa:	4901                	li	s2,0
2010b6ac:	fc442783          	lw	a5,-60(s0)
2010b6b0:	8a3e                	mv	s4,a5
2010b6b2:	4a81                	li	s5,0
2010b6b4:	01496b33          	or	s6,s2,s4
2010b6b8:	0159ebb3          	or	s7,s3,s5
C:/VSD_Sqd_Project/sifive_hifive1_BitNet_MNIST_App/freedom-metal/src/drivers/riscv_clint0.c:29 (discriminator 1)
2010b6bc:	875a                	mv	a4,s6
2010b6be:	87de                	mv	a5,s7
C:/VSD_Sqd_Project/sifive_hifive1_BitNet_MNIST_App/freedom-metal/src/drivers/riscv_clint0.c:30
}
2010b6c0:	853a                	mv	a0,a4
2010b6c2:	85be                	mv	a1,a5
2010b6c4:	40b6                	lw	ra,76(sp)
2010b6c6:	4426                	lw	s0,72(sp)
2010b6c8:	4916                	lw	s2,68(sp)
2010b6ca:	4986                	lw	s3,64(sp)
2010b6cc:	5a72                	lw	s4,60(sp)
2010b6ce:	5ae2                	lw	s5,56(sp)
2010b6d0:	5b52                	lw	s6,52(sp)
2010b6d2:	5bc2                	lw	s7,48(sp)
2010b6d4:	5c32                	lw	s8,44(sp)
2010b6d6:	5ca2                	lw	s9,40(sp)
2010b6d8:	6161                	add	sp,sp,80
2010b6da:	8082                	ret

2010b6dc <__metal_driver_riscv_clint0_mtimecmp_set>:
__metal_driver_riscv_clint0_mtimecmp_set():
C:/VSD_Sqd_Project/sifive_hifive1_BitNet_MNIST_App/freedom-metal/src/drivers/riscv_clint0.c:34

int __metal_driver_riscv_clint0_mtimecmp_set(struct metal_interrupt *controller,
                                             int hartid,
                                             unsigned long long time) {
2010b6dc:	7179                	add	sp,sp,-48
2010b6de:	d606                	sw	ra,44(sp)
2010b6e0:	d422                	sw	s0,40(sp)
2010b6e2:	d24a                	sw	s2,36(sp)
2010b6e4:	d04e                	sw	s3,32(sp)
2010b6e6:	1800                	add	s0,sp,48
2010b6e8:	fca42e23          	sw	a0,-36(s0)
2010b6ec:	fcb42c23          	sw	a1,-40(s0)
2010b6f0:	fcc42823          	sw	a2,-48(s0)
2010b6f4:	fcd42a23          	sw	a3,-44(s0)
C:/VSD_Sqd_Project/sifive_hifive1_BitNet_MNIST_App/freedom-metal/src/drivers/riscv_clint0.c:35
    struct __metal_driver_riscv_clint0 *clint =
2010b6f8:	fdc42783          	lw	a5,-36(s0)
2010b6fc:	fef42623          	sw	a5,-20(s0)
C:/VSD_Sqd_Project/sifive_hifive1_BitNet_MNIST_App/freedom-metal/src/drivers/riscv_clint0.c:38
        (struct __metal_driver_riscv_clint0 *)(controller);
    unsigned long control_base =
        __metal_driver_sifive_clint0_control_base(&clint->controller);
2010b700:	fec42783          	lw	a5,-20(s0)
2010b704:	853e                	mv	a0,a5
2010b706:	3dbd                	jal	2010b584 <__metal_driver_sifive_clint0_control_base>
2010b708:	fea42423          	sw	a0,-24(s0)
C:/VSD_Sqd_Project/sifive_hifive1_BitNet_MNIST_App/freedom-metal/src/drivers/riscv_clint0.c:45
     * and are NOT internally latched for multiword transfers.
     * Need to be careful about sequencing to avoid triggering
     * spurious interrupts: For that set the high word to a max
     * value first.
     */
    __METAL_ACCESS_ONCE((__metal_io_u32 *)(control_base + (8 * hartid) +
2010b70c:	fd842783          	lw	a5,-40(s0)
2010b710:	078e                	sll	a5,a5,0x3
2010b712:	873e                	mv	a4,a5
2010b714:	fe842783          	lw	a5,-24(s0)
2010b718:	973e                	add	a4,a4,a5
2010b71a:	6791                	lui	a5,0x4
2010b71c:	0791                	add	a5,a5,4 # 4004 <__heap_size+0x3804>
2010b71e:	97ba                	add	a5,a5,a4
2010b720:	873e                	mv	a4,a5
C:/VSD_Sqd_Project/sifive_hifive1_BitNet_MNIST_App/freedom-metal/src/drivers/riscv_clint0.c:47
                                           METAL_RISCV_CLINT0_MTIMECMP_BASE +
                                           4)) = 0xFFFFFFFF;
2010b722:	57fd                	li	a5,-1
2010b724:	c31c                	sw	a5,0(a4)
C:/VSD_Sqd_Project/sifive_hifive1_BitNet_MNIST_App/freedom-metal/src/drivers/riscv_clint0.c:48
    __METAL_ACCESS_ONCE((__metal_io_u32 *)(control_base + (8 * hartid) +
2010b726:	fd842783          	lw	a5,-40(s0)
2010b72a:	078e                	sll	a5,a5,0x3
2010b72c:	873e                	mv	a4,a5
2010b72e:	fe842783          	lw	a5,-24(s0)
2010b732:	973e                	add	a4,a4,a5
2010b734:	6791                	lui	a5,0x4
2010b736:	97ba                	add	a5,a5,a4
2010b738:	873e                	mv	a4,a5
C:/VSD_Sqd_Project/sifive_hifive1_BitNet_MNIST_App/freedom-metal/src/drivers/riscv_clint0.c:50
                                           METAL_RISCV_CLINT0_MTIMECMP_BASE)) =
        (__metal_io_u32)time;
2010b73a:	fd042783          	lw	a5,-48(s0)
C:/VSD_Sqd_Project/sifive_hifive1_BitNet_MNIST_App/freedom-metal/src/drivers/riscv_clint0.c:49
                                           METAL_RISCV_CLINT0_MTIMECMP_BASE)) =
2010b73e:	c31c                	sw	a5,0(a4)
C:/VSD_Sqd_Project/sifive_hifive1_BitNet_MNIST_App/freedom-metal/src/drivers/riscv_clint0.c:53
    __METAL_ACCESS_ONCE((__metal_io_u32 *)(control_base + (8 * hartid) +
                                           METAL_RISCV_CLINT0_MTIMECMP_BASE +
                                           4)) = (__metal_io_u32)(time >> 32);
2010b740:	fd442783          	lw	a5,-44(s0)
2010b744:	0007d913          	srl	s2,a5,0x0
2010b748:	4981                	li	s3,0
C:/VSD_Sqd_Project/sifive_hifive1_BitNet_MNIST_App/freedom-metal/src/drivers/riscv_clint0.c:51
    __METAL_ACCESS_ONCE((__metal_io_u32 *)(control_base + (8 * hartid) +
2010b74a:	fd842783          	lw	a5,-40(s0)
2010b74e:	078e                	sll	a5,a5,0x3
2010b750:	873e                	mv	a4,a5
2010b752:	fe842783          	lw	a5,-24(s0)
2010b756:	973e                	add	a4,a4,a5
2010b758:	6791                	lui	a5,0x4
2010b75a:	0791                	add	a5,a5,4 # 4004 <__heap_size+0x3804>
2010b75c:	97ba                	add	a5,a5,a4
C:/VSD_Sqd_Project/sifive_hifive1_BitNet_MNIST_App/freedom-metal/src/drivers/riscv_clint0.c:53
                                           4)) = (__metal_io_u32)(time >> 32);
2010b75e:	874a                	mv	a4,s2
2010b760:	c398                	sw	a4,0(a5)
C:/VSD_Sqd_Project/sifive_hifive1_BitNet_MNIST_App/freedom-metal/src/drivers/riscv_clint0.c:54
    return 0;
2010b762:	4781                	li	a5,0
C:/VSD_Sqd_Project/sifive_hifive1_BitNet_MNIST_App/freedom-metal/src/drivers/riscv_clint0.c:55
}
2010b764:	853e                	mv	a0,a5
2010b766:	50b2                	lw	ra,44(sp)
2010b768:	5422                	lw	s0,40(sp)
2010b76a:	5912                	lw	s2,36(sp)
2010b76c:	5982                	lw	s3,32(sp)
2010b76e:	6145                	add	sp,sp,48
2010b770:	8082                	ret

2010b772 <_get_cpu_intc>:
_get_cpu_intc():
C:/VSD_Sqd_Project/sifive_hifive1_BitNet_MNIST_App/freedom-metal/src/drivers/riscv_clint0.c:57

static struct metal_interrupt *_get_cpu_intc() {
2010b772:	1101                	add	sp,sp,-32
2010b774:	ce06                	sw	ra,28(sp)
2010b776:	cc22                	sw	s0,24(sp)
2010b778:	1000                	add	s0,sp,32
C:/VSD_Sqd_Project/sifive_hifive1_BitNet_MNIST_App/freedom-metal/src/drivers/riscv_clint0.c:58
    int hartid = 0;
2010b77a:	fe042623          	sw	zero,-20(s0)
C:/VSD_Sqd_Project/sifive_hifive1_BitNet_MNIST_App/freedom-metal/src/drivers/riscv_clint0.c:59
    __asm__ volatile("csrr %[hartid], mhartid"
2010b77e:	f14027f3          	csrr	a5,mhartid
2010b782:	fef42623          	sw	a5,-20(s0)
C:/VSD_Sqd_Project/sifive_hifive1_BitNet_MNIST_App/freedom-metal/src/drivers/riscv_clint0.c:62
                     : [hartid] "=r"(hartid)::"memory");

    struct metal_cpu *cpu = metal_cpu_get(hartid);
2010b786:	fec42783          	lw	a5,-20(s0)
2010b78a:	853e                	mv	a0,a5
2010b78c:	258040ef          	jal	2010f9e4 <metal_cpu_get>
2010b790:	fea42423          	sw	a0,-24(s0)
C:/VSD_Sqd_Project/sifive_hifive1_BitNet_MNIST_App/freedom-metal/src/drivers/riscv_clint0.c:64

    return metal_cpu_interrupt_controller(cpu);
2010b794:	fe842503          	lw	a0,-24(s0)
2010b798:	226040ef          	jal	2010f9be <metal_cpu_interrupt_controller>
2010b79c:	87aa                	mv	a5,a0
C:/VSD_Sqd_Project/sifive_hifive1_BitNet_MNIST_App/freedom-metal/src/drivers/riscv_clint0.c:65
}
2010b79e:	853e                	mv	a0,a5
2010b7a0:	40f2                	lw	ra,28(sp)
2010b7a2:	4462                	lw	s0,24(sp)
2010b7a4:	6105                	add	sp,sp,32
2010b7a6:	8082                	ret

2010b7a8 <__metal_driver_riscv_clint0_init>:
__metal_driver_riscv_clint0_init():
C:/VSD_Sqd_Project/sifive_hifive1_BitNet_MNIST_App/freedom-metal/src/drivers/riscv_clint0.c:67

void __metal_driver_riscv_clint0_init(struct metal_interrupt *controller) {
2010b7a8:	7139                	add	sp,sp,-64
2010b7aa:	de06                	sw	ra,60(sp)
2010b7ac:	dc22                	sw	s0,56(sp)
2010b7ae:	0080                	add	s0,sp,64
2010b7b0:	fca42623          	sw	a0,-52(s0)
C:/VSD_Sqd_Project/sifive_hifive1_BitNet_MNIST_App/freedom-metal/src/drivers/riscv_clint0.c:69
    int num_interrupts =
        __metal_driver_sifive_clint0_num_interrupts(controller);
2010b7b4:	fcc42503          	lw	a0,-52(s0)
2010b7b8:	3bdd                	jal	2010b5ae <__metal_driver_sifive_clint0_num_interrupts>
2010b7ba:	fea42423          	sw	a0,-24(s0)
C:/VSD_Sqd_Project/sifive_hifive1_BitNet_MNIST_App/freedom-metal/src/drivers/riscv_clint0.c:70
    struct __metal_driver_riscv_clint0 *clint =
2010b7be:	fcc42783          	lw	a5,-52(s0)
2010b7c2:	fef42223          	sw	a5,-28(s0)
C:/VSD_Sqd_Project/sifive_hifive1_BitNet_MNIST_App/freedom-metal/src/drivers/riscv_clint0.c:73
        (struct __metal_driver_riscv_clint0 *)(controller);

    if (!clint->init_done) {
2010b7c6:	fe442783          	lw	a5,-28(s0)
2010b7ca:	43dc                	lw	a5,4(a5)
2010b7cc:	efa9                	bnez	a5,2010b826 <__metal_driver_riscv_clint0_init+0x7e>
C:/VSD_Sqd_Project/sifive_hifive1_BitNet_MNIST_App/freedom-metal/src/drivers/riscv_clint0.c:76
        /* Register its interrupts with with parent controller, aka sw and
         * timerto its default isr */
        for (int i = 0; i < num_interrupts; i++) {
2010b7ce:	fe042623          	sw	zero,-20(s0)
2010b7d2:	a081                	j	2010b812 <__metal_driver_riscv_clint0_init+0x6a>
C:/VSD_Sqd_Project/sifive_hifive1_BitNet_MNIST_App/freedom-metal/src/drivers/riscv_clint0.c:78
            struct metal_interrupt *intc =
                __metal_driver_sifive_clint0_interrupt_parents(controller, i);
2010b7d4:	fec42583          	lw	a1,-20(s0)
2010b7d8:	fcc42503          	lw	a0,-52(s0)
2010b7dc:	3bed                	jal	2010b5d6 <__metal_driver_sifive_clint0_interrupt_parents>
2010b7de:	fea42023          	sw	a0,-32(s0)
C:/VSD_Sqd_Project/sifive_hifive1_BitNet_MNIST_App/freedom-metal/src/drivers/riscv_clint0.c:80
            int line =
                __metal_driver_sifive_clint0_interrupt_lines(controller, i);
2010b7e2:	fec42583          	lw	a1,-20(s0)
2010b7e6:	fcc42503          	lw	a0,-52(s0)
2010b7ea:	3525                	jal	2010b612 <__metal_driver_sifive_clint0_interrupt_lines>
2010b7ec:	fca42e23          	sw	a0,-36(s0)
C:/VSD_Sqd_Project/sifive_hifive1_BitNet_MNIST_App/freedom-metal/src/drivers/riscv_clint0.c:81
            intc->vtable->interrupt_register(intc, line, NULL, controller);
2010b7f0:	fe042783          	lw	a5,-32(s0)
2010b7f4:	439c                	lw	a5,0(a5)
2010b7f6:	4fdc                	lw	a5,28(a5)
2010b7f8:	fcc42683          	lw	a3,-52(s0)
2010b7fc:	4601                	li	a2,0
2010b7fe:	fdc42583          	lw	a1,-36(s0)
2010b802:	fe042503          	lw	a0,-32(s0)
2010b806:	9782                	jalr	a5
C:/VSD_Sqd_Project/sifive_hifive1_BitNet_MNIST_App/freedom-metal/src/drivers/riscv_clint0.c:76 (discriminator 3)
        for (int i = 0; i < num_interrupts; i++) {
2010b808:	fec42783          	lw	a5,-20(s0)
2010b80c:	0785                	add	a5,a5,1
2010b80e:	fef42623          	sw	a5,-20(s0)
C:/VSD_Sqd_Project/sifive_hifive1_BitNet_MNIST_App/freedom-metal/src/drivers/riscv_clint0.c:76 (discriminator 1)
2010b812:	fec42703          	lw	a4,-20(s0)
2010b816:	fe842783          	lw	a5,-24(s0)
2010b81a:	faf74de3          	blt	a4,a5,2010b7d4 <__metal_driver_riscv_clint0_init+0x2c>
C:/VSD_Sqd_Project/sifive_hifive1_BitNet_MNIST_App/freedom-metal/src/drivers/riscv_clint0.c:83
        }
        clint->init_done = 1;
2010b81e:	fe442783          	lw	a5,-28(s0)
2010b822:	4705                	li	a4,1
2010b824:	c3d8                	sw	a4,4(a5)
C:/VSD_Sqd_Project/sifive_hifive1_BitNet_MNIST_App/freedom-metal/src/drivers/riscv_clint0.c:85
    }
}
2010b826:	0001                	nop
2010b828:	50f2                	lw	ra,60(sp)
2010b82a:	5462                	lw	s0,56(sp)
2010b82c:	6121                	add	sp,sp,64
2010b82e:	8082                	ret

2010b830 <__metal_driver_riscv_clint0_register>:
__metal_driver_riscv_clint0_register():
C:/VSD_Sqd_Project/sifive_hifive1_BitNet_MNIST_App/freedom-metal/src/drivers/riscv_clint0.c:89

int __metal_driver_riscv_clint0_register(struct metal_interrupt *controller,
                                         int id, metal_interrupt_handler_t isr,
                                         void *priv) {
2010b830:	7139                	add	sp,sp,-64
2010b832:	de06                	sw	ra,60(sp)
2010b834:	dc22                	sw	s0,56(sp)
2010b836:	0080                	add	s0,sp,64
2010b838:	fca42623          	sw	a0,-52(s0)
2010b83c:	fcb42423          	sw	a1,-56(s0)
2010b840:	fcc42223          	sw	a2,-60(s0)
2010b844:	fcd42023          	sw	a3,-64(s0)
C:/VSD_Sqd_Project/sifive_hifive1_BitNet_MNIST_App/freedom-metal/src/drivers/riscv_clint0.c:90
    int rc = -1;
2010b848:	57fd                	li	a5,-1
2010b84a:	fef42623          	sw	a5,-20(s0)
C:/VSD_Sqd_Project/sifive_hifive1_BitNet_MNIST_App/freedom-metal/src/drivers/riscv_clint0.c:91
    metal_vector_mode mode = __metal_controller_interrupt_vector_mode();
2010b84e:	48c010ef          	jal	2010ccda <__metal_controller_interrupt_vector_mode>
2010b852:	fea42023          	sw	a0,-32(s0)
C:/VSD_Sqd_Project/sifive_hifive1_BitNet_MNIST_App/freedom-metal/src/drivers/riscv_clint0.c:92
    struct metal_interrupt *intc = NULL;
2010b856:	fe042423          	sw	zero,-24(s0)
C:/VSD_Sqd_Project/sifive_hifive1_BitNet_MNIST_App/freedom-metal/src/drivers/riscv_clint0.c:93
    struct metal_interrupt *cpu_intc = _get_cpu_intc();
2010b85a:	3f21                	jal	2010b772 <_get_cpu_intc>
2010b85c:	fca42e23          	sw	a0,-36(s0)
C:/VSD_Sqd_Project/sifive_hifive1_BitNet_MNIST_App/freedom-metal/src/drivers/riscv_clint0.c:95
    int num_interrupts =
        __metal_driver_sifive_clint0_num_interrupts(controller);
2010b860:	fcc42503          	lw	a0,-52(s0)
2010b864:	33a9                	jal	2010b5ae <__metal_driver_sifive_clint0_num_interrupts>
2010b866:	fca42c23          	sw	a0,-40(s0)
C:/VSD_Sqd_Project/sifive_hifive1_BitNet_MNIST_App/freedom-metal/src/drivers/riscv_clint0.c:97

    if ((mode != METAL_VECTOR_MODE) && (mode != METAL_DIRECT_MODE)) {
2010b86a:	fe042703          	lw	a4,-32(s0)
2010b86e:	4785                	li	a5,1
2010b870:	00f70863          	beq	a4,a5,2010b880 <__metal_driver_riscv_clint0_register+0x50>
C:/VSD_Sqd_Project/sifive_hifive1_BitNet_MNIST_App/freedom-metal/src/drivers/riscv_clint0.c:97 (discriminator 1)
2010b874:	fe042783          	lw	a5,-32(s0)
2010b878:	c781                	beqz	a5,2010b880 <__metal_driver_riscv_clint0_register+0x50>
C:/VSD_Sqd_Project/sifive_hifive1_BitNet_MNIST_App/freedom-metal/src/drivers/riscv_clint0.c:98
        return rc;
2010b87a:	fec42783          	lw	a5,-20(s0)
2010b87e:	a049                	j	2010b900 <__metal_driver_riscv_clint0_register+0xd0>
C:/VSD_Sqd_Project/sifive_hifive1_BitNet_MNIST_App/freedom-metal/src/drivers/riscv_clint0.c:101
    }

    for (int i = 0; i < num_interrupts; i++) {
2010b880:	fe042223          	sw	zero,-28(s0)
2010b884:	a091                	j	2010b8c8 <__metal_driver_riscv_clint0_register+0x98>
C:/VSD_Sqd_Project/sifive_hifive1_BitNet_MNIST_App/freedom-metal/src/drivers/riscv_clint0.c:102
        int line = __metal_driver_sifive_clint0_interrupt_lines(controller, i);
2010b886:	fe442583          	lw	a1,-28(s0)
2010b88a:	fcc42503          	lw	a0,-52(s0)
2010b88e:	3351                	jal	2010b612 <__metal_driver_sifive_clint0_interrupt_lines>
2010b890:	fca42a23          	sw	a0,-44(s0)
C:/VSD_Sqd_Project/sifive_hifive1_BitNet_MNIST_App/freedom-metal/src/drivers/riscv_clint0.c:103
        intc = __metal_driver_sifive_clint0_interrupt_parents(controller, i);
2010b894:	fe442583          	lw	a1,-28(s0)
2010b898:	fcc42503          	lw	a0,-52(s0)
2010b89c:	3b2d                	jal	2010b5d6 <__metal_driver_sifive_clint0_interrupt_parents>
2010b89e:	fea42423          	sw	a0,-24(s0)
C:/VSD_Sqd_Project/sifive_hifive1_BitNet_MNIST_App/freedom-metal/src/drivers/riscv_clint0.c:104
        if (cpu_intc == intc && id == line) {
2010b8a2:	fdc42703          	lw	a4,-36(s0)
2010b8a6:	fe842783          	lw	a5,-24(s0)
2010b8aa:	00f71863          	bne	a4,a5,2010b8ba <__metal_driver_riscv_clint0_register+0x8a>
C:/VSD_Sqd_Project/sifive_hifive1_BitNet_MNIST_App/freedom-metal/src/drivers/riscv_clint0.c:104 (discriminator 1)
2010b8ae:	fc842703          	lw	a4,-56(s0)
2010b8b2:	fd442783          	lw	a5,-44(s0)
2010b8b6:	02f70063          	beq	a4,a5,2010b8d6 <__metal_driver_riscv_clint0_register+0xa6>
C:/VSD_Sqd_Project/sifive_hifive1_BitNet_MNIST_App/freedom-metal/src/drivers/riscv_clint0.c:107
            break;
        }
        intc = NULL;
2010b8ba:	fe042423          	sw	zero,-24(s0)
C:/VSD_Sqd_Project/sifive_hifive1_BitNet_MNIST_App/freedom-metal/src/drivers/riscv_clint0.c:101 (discriminator 2)
    for (int i = 0; i < num_interrupts; i++) {
2010b8be:	fe442783          	lw	a5,-28(s0)
2010b8c2:	0785                	add	a5,a5,1
2010b8c4:	fef42223          	sw	a5,-28(s0)
C:/VSD_Sqd_Project/sifive_hifive1_BitNet_MNIST_App/freedom-metal/src/drivers/riscv_clint0.c:101 (discriminator 1)
2010b8c8:	fe442703          	lw	a4,-28(s0)
2010b8cc:	fd842783          	lw	a5,-40(s0)
2010b8d0:	faf74be3          	blt	a4,a5,2010b886 <__metal_driver_riscv_clint0_register+0x56>
2010b8d4:	a011                	j	2010b8d8 <__metal_driver_riscv_clint0_register+0xa8>
C:/VSD_Sqd_Project/sifive_hifive1_BitNet_MNIST_App/freedom-metal/src/drivers/riscv_clint0.c:105
            break;
2010b8d6:	0001                	nop
C:/VSD_Sqd_Project/sifive_hifive1_BitNet_MNIST_App/freedom-metal/src/drivers/riscv_clint0.c:111
    }

    /* Register its interrupts with parent controller */
    if (intc) {
2010b8d8:	fe842783          	lw	a5,-24(s0)
2010b8dc:	c385                	beqz	a5,2010b8fc <__metal_driver_riscv_clint0_register+0xcc>
C:/VSD_Sqd_Project/sifive_hifive1_BitNet_MNIST_App/freedom-metal/src/drivers/riscv_clint0.c:112
        rc = intc->vtable->interrupt_register(intc, id, isr, priv);
2010b8de:	fe842783          	lw	a5,-24(s0)
2010b8e2:	439c                	lw	a5,0(a5)
2010b8e4:	4fdc                	lw	a5,28(a5)
2010b8e6:	fc042683          	lw	a3,-64(s0)
2010b8ea:	fc442603          	lw	a2,-60(s0)
2010b8ee:	fc842583          	lw	a1,-56(s0)
2010b8f2:	fe842503          	lw	a0,-24(s0)
2010b8f6:	9782                	jalr	a5
2010b8f8:	fea42623          	sw	a0,-20(s0)
C:/VSD_Sqd_Project/sifive_hifive1_BitNet_MNIST_App/freedom-metal/src/drivers/riscv_clint0.c:114
    }
    return rc;
2010b8fc:	fec42783          	lw	a5,-20(s0)
C:/VSD_Sqd_Project/sifive_hifive1_BitNet_MNIST_App/freedom-metal/src/drivers/riscv_clint0.c:115
}
2010b900:	853e                	mv	a0,a5
2010b902:	50f2                	lw	ra,60(sp)
2010b904:	5462                	lw	s0,56(sp)
2010b906:	6121                	add	sp,sp,64
2010b908:	8082                	ret

2010b90a <__metal_driver_riscv_clint0_vector_register>:
__metal_driver_riscv_clint0_vector_register():
C:/VSD_Sqd_Project/sifive_hifive1_BitNet_MNIST_App/freedom-metal/src/drivers/riscv_clint0.c:119

int __metal_driver_riscv_clint0_vector_register(
    struct metal_interrupt *controller, int id,
    metal_interrupt_vector_handler_t isr, void *priv) {
2010b90a:	7179                	add	sp,sp,-48
2010b90c:	d622                	sw	s0,44(sp)
2010b90e:	1800                	add	s0,sp,48
2010b910:	fca42e23          	sw	a0,-36(s0)
2010b914:	fcb42c23          	sw	a1,-40(s0)
2010b918:	fcc42a23          	sw	a2,-44(s0)
2010b91c:	fcd42823          	sw	a3,-48(s0)
C:/VSD_Sqd_Project/sifive_hifive1_BitNet_MNIST_App/freedom-metal/src/drivers/riscv_clint0.c:121
    /* Not supported. User can override the 'weak' handler with their own */
    int rc = -1;
2010b920:	57fd                	li	a5,-1
2010b922:	fef42623          	sw	a5,-20(s0)
C:/VSD_Sqd_Project/sifive_hifive1_BitNet_MNIST_App/freedom-metal/src/drivers/riscv_clint0.c:122
    return rc;
2010b926:	fec42783          	lw	a5,-20(s0)
C:/VSD_Sqd_Project/sifive_hifive1_BitNet_MNIST_App/freedom-metal/src/drivers/riscv_clint0.c:123
}
2010b92a:	853e                	mv	a0,a5
2010b92c:	5432                	lw	s0,44(sp)
2010b92e:	6145                	add	sp,sp,48
2010b930:	8082                	ret

2010b932 <__metal_driver_riscv_clint0_get_vector_mode>:
__metal_driver_riscv_clint0_get_vector_mode():
C:/VSD_Sqd_Project/sifive_hifive1_BitNet_MNIST_App/freedom-metal/src/drivers/riscv_clint0.c:126

metal_vector_mode __metal_driver_riscv_clint0_get_vector_mode(
    struct metal_interrupt *controller) {
2010b932:	1101                	add	sp,sp,-32
2010b934:	ce06                	sw	ra,28(sp)
2010b936:	cc22                	sw	s0,24(sp)
2010b938:	1000                	add	s0,sp,32
2010b93a:	fea42623          	sw	a0,-20(s0)
C:/VSD_Sqd_Project/sifive_hifive1_BitNet_MNIST_App/freedom-metal/src/drivers/riscv_clint0.c:127
    return __metal_controller_interrupt_vector_mode();
2010b93e:	39c010ef          	jal	2010ccda <__metal_controller_interrupt_vector_mode>
2010b942:	87aa                	mv	a5,a0
C:/VSD_Sqd_Project/sifive_hifive1_BitNet_MNIST_App/freedom-metal/src/drivers/riscv_clint0.c:128
}
2010b944:	853e                	mv	a0,a5
2010b946:	40f2                	lw	ra,28(sp)
2010b948:	4462                	lw	s0,24(sp)
2010b94a:	6105                	add	sp,sp,32
2010b94c:	8082                	ret

2010b94e <__metal_driver_riscv_clint0_set_vector_mode>:
__metal_driver_riscv_clint0_set_vector_mode():
C:/VSD_Sqd_Project/sifive_hifive1_BitNet_MNIST_App/freedom-metal/src/drivers/riscv_clint0.c:131

int __metal_driver_riscv_clint0_set_vector_mode(
    struct metal_interrupt *controller, metal_vector_mode mode) {
2010b94e:	7179                	add	sp,sp,-48
2010b950:	d606                	sw	ra,44(sp)
2010b952:	d422                	sw	s0,40(sp)
2010b954:	1800                	add	s0,sp,48
2010b956:	fca42e23          	sw	a0,-36(s0)
2010b95a:	fcb42c23          	sw	a1,-40(s0)
C:/VSD_Sqd_Project/sifive_hifive1_BitNet_MNIST_App/freedom-metal/src/drivers/riscv_clint0.c:132
    int rc = -1;
2010b95e:	57fd                	li	a5,-1
2010b960:	fef42623          	sw	a5,-20(s0)
C:/VSD_Sqd_Project/sifive_hifive1_BitNet_MNIST_App/freedom-metal/src/drivers/riscv_clint0.c:133
    struct metal_interrupt *intc = _get_cpu_intc();
2010b964:	3539                	jal	2010b772 <_get_cpu_intc>
2010b966:	fea42423          	sw	a0,-24(s0)
C:/VSD_Sqd_Project/sifive_hifive1_BitNet_MNIST_App/freedom-metal/src/drivers/riscv_clint0.c:135

    if (intc) {
2010b96a:	fe842783          	lw	a5,-24(s0)
2010b96e:	c39d                	beqz	a5,2010b994 <__metal_driver_riscv_clint0_set_vector_mode+0x46>
C:/VSD_Sqd_Project/sifive_hifive1_BitNet_MNIST_App/freedom-metal/src/drivers/riscv_clint0.c:138
        /* Valid vector modes are VECTOR and DIRECT, anything else is invalid
         * (-1) */
        switch (mode) {
2010b970:	fd842703          	lw	a4,-40(s0)
2010b974:	4785                	li	a5,1
2010b976:	00e7ee63          	bltu	a5,a4,2010b992 <__metal_driver_riscv_clint0_set_vector_mode+0x44>
C:/VSD_Sqd_Project/sifive_hifive1_BitNet_MNIST_App/freedom-metal/src/drivers/riscv_clint0.c:141
        case METAL_VECTOR_MODE:
        case METAL_DIRECT_MODE:
            rc = intc->vtable->interrupt_set_vector_mode(intc, mode);
2010b97a:	fe842783          	lw	a5,-24(s0)
2010b97e:	439c                	lw	a5,0(a5)
2010b980:	43dc                	lw	a5,4(a5)
2010b982:	fd842583          	lw	a1,-40(s0)
2010b986:	fe842503          	lw	a0,-24(s0)
2010b98a:	9782                	jalr	a5
2010b98c:	fea42623          	sw	a0,-20(s0)
C:/VSD_Sqd_Project/sifive_hifive1_BitNet_MNIST_App/freedom-metal/src/drivers/riscv_clint0.c:142
            break;
2010b990:	a011                	j	2010b994 <__metal_driver_riscv_clint0_set_vector_mode+0x46>
C:/VSD_Sqd_Project/sifive_hifive1_BitNet_MNIST_App/freedom-metal/src/drivers/riscv_clint0.c:144
        default:
            break;
2010b992:	0001                	nop
C:/VSD_Sqd_Project/sifive_hifive1_BitNet_MNIST_App/freedom-metal/src/drivers/riscv_clint0.c:147
        }
    }
    return rc;
2010b994:	fec42783          	lw	a5,-20(s0)
C:/VSD_Sqd_Project/sifive_hifive1_BitNet_MNIST_App/freedom-metal/src/drivers/riscv_clint0.c:148
}
2010b998:	853e                	mv	a0,a5
2010b99a:	50b2                	lw	ra,44(sp)
2010b99c:	5422                	lw	s0,40(sp)
2010b99e:	6145                	add	sp,sp,48
2010b9a0:	8082                	ret

2010b9a2 <__metal_driver_riscv_clint0_enable>:
__metal_driver_riscv_clint0_enable():
C:/VSD_Sqd_Project/sifive_hifive1_BitNet_MNIST_App/freedom-metal/src/drivers/riscv_clint0.c:151

int __metal_driver_riscv_clint0_enable(struct metal_interrupt *controller,
                                       int id) {
2010b9a2:	7139                	add	sp,sp,-64
2010b9a4:	de06                	sw	ra,60(sp)
2010b9a6:	dc22                	sw	s0,56(sp)
2010b9a8:	0080                	add	s0,sp,64
2010b9aa:	fca42623          	sw	a0,-52(s0)
2010b9ae:	fcb42423          	sw	a1,-56(s0)
C:/VSD_Sqd_Project/sifive_hifive1_BitNet_MNIST_App/freedom-metal/src/drivers/riscv_clint0.c:152
    int rc = -1;
2010b9b2:	57fd                	li	a5,-1
2010b9b4:	fef42623          	sw	a5,-20(s0)
C:/VSD_Sqd_Project/sifive_hifive1_BitNet_MNIST_App/freedom-metal/src/drivers/riscv_clint0.c:154

    if (id) {
2010b9b8:	fc842783          	lw	a5,-56(s0)
2010b9bc:	c7c9                	beqz	a5,2010ba46 <__metal_driver_riscv_clint0_enable+0xa4>
C:/VSD_Sqd_Project/sifive_hifive1_BitNet_MNIST_App/freedom-metal/src/drivers/riscv_clint0.c:155
        struct metal_interrupt *intc = NULL;
2010b9be:	fe042423          	sw	zero,-24(s0)
C:/VSD_Sqd_Project/sifive_hifive1_BitNet_MNIST_App/freedom-metal/src/drivers/riscv_clint0.c:156
        struct metal_interrupt *cpu_intc = _get_cpu_intc();
2010b9c2:	3b45                	jal	2010b772 <_get_cpu_intc>
2010b9c4:	fea42023          	sw	a0,-32(s0)
C:/VSD_Sqd_Project/sifive_hifive1_BitNet_MNIST_App/freedom-metal/src/drivers/riscv_clint0.c:158
        int num_interrupts =
            __metal_driver_sifive_clint0_num_interrupts(controller);
2010b9c8:	fcc42503          	lw	a0,-52(s0)
2010b9cc:	36cd                	jal	2010b5ae <__metal_driver_sifive_clint0_num_interrupts>
2010b9ce:	fca42e23          	sw	a0,-36(s0)
C:/VSD_Sqd_Project/sifive_hifive1_BitNet_MNIST_App/freedom-metal/src/drivers/riscv_clint0.c:160

        for (int i = 0; i < num_interrupts; i++) {
2010b9d2:	fe042223          	sw	zero,-28(s0)
2010b9d6:	a091                	j	2010ba1a <__metal_driver_riscv_clint0_enable+0x78>
C:/VSD_Sqd_Project/sifive_hifive1_BitNet_MNIST_App/freedom-metal/src/drivers/riscv_clint0.c:162
            int line =
                __metal_driver_sifive_clint0_interrupt_lines(controller, i);
2010b9d8:	fe442583          	lw	a1,-28(s0)
2010b9dc:	fcc42503          	lw	a0,-52(s0)
2010b9e0:	390d                	jal	2010b612 <__metal_driver_sifive_clint0_interrupt_lines>
2010b9e2:	fca42c23          	sw	a0,-40(s0)
C:/VSD_Sqd_Project/sifive_hifive1_BitNet_MNIST_App/freedom-metal/src/drivers/riscv_clint0.c:164
            intc =
                __metal_driver_sifive_clint0_interrupt_parents(controller, i);
2010b9e6:	fe442583          	lw	a1,-28(s0)
2010b9ea:	fcc42503          	lw	a0,-52(s0)
2010b9ee:	36e5                	jal	2010b5d6 <__metal_driver_sifive_clint0_interrupt_parents>
2010b9f0:	fea42423          	sw	a0,-24(s0)
C:/VSD_Sqd_Project/sifive_hifive1_BitNet_MNIST_App/freedom-metal/src/drivers/riscv_clint0.c:165
            if (cpu_intc == intc && id == line) {
2010b9f4:	fe042703          	lw	a4,-32(s0)
2010b9f8:	fe842783          	lw	a5,-24(s0)
2010b9fc:	00f71863          	bne	a4,a5,2010ba0c <__metal_driver_riscv_clint0_enable+0x6a>
C:/VSD_Sqd_Project/sifive_hifive1_BitNet_MNIST_App/freedom-metal/src/drivers/riscv_clint0.c:165 (discriminator 1)
2010ba00:	fc842703          	lw	a4,-56(s0)
2010ba04:	fd842783          	lw	a5,-40(s0)
2010ba08:	02f70063          	beq	a4,a5,2010ba28 <__metal_driver_riscv_clint0_enable+0x86>
C:/VSD_Sqd_Project/sifive_hifive1_BitNet_MNIST_App/freedom-metal/src/drivers/riscv_clint0.c:168
                break;
            }
            intc = NULL;
2010ba0c:	fe042423          	sw	zero,-24(s0)
C:/VSD_Sqd_Project/sifive_hifive1_BitNet_MNIST_App/freedom-metal/src/drivers/riscv_clint0.c:160 (discriminator 2)
        for (int i = 0; i < num_interrupts; i++) {
2010ba10:	fe442783          	lw	a5,-28(s0)
2010ba14:	0785                	add	a5,a5,1
2010ba16:	fef42223          	sw	a5,-28(s0)
C:/VSD_Sqd_Project/sifive_hifive1_BitNet_MNIST_App/freedom-metal/src/drivers/riscv_clint0.c:160 (discriminator 1)
2010ba1a:	fe442703          	lw	a4,-28(s0)
2010ba1e:	fdc42783          	lw	a5,-36(s0)
2010ba22:	faf74be3          	blt	a4,a5,2010b9d8 <__metal_driver_riscv_clint0_enable+0x36>
2010ba26:	a011                	j	2010ba2a <__metal_driver_riscv_clint0_enable+0x88>
C:/VSD_Sqd_Project/sifive_hifive1_BitNet_MNIST_App/freedom-metal/src/drivers/riscv_clint0.c:166
                break;
2010ba28:	0001                	nop
C:/VSD_Sqd_Project/sifive_hifive1_BitNet_MNIST_App/freedom-metal/src/drivers/riscv_clint0.c:172
        }

        /* Enable its interrupts with parent controller */
        if (intc) {
2010ba2a:	fe842783          	lw	a5,-24(s0)
2010ba2e:	cf81                	beqz	a5,2010ba46 <__metal_driver_riscv_clint0_enable+0xa4>
C:/VSD_Sqd_Project/sifive_hifive1_BitNet_MNIST_App/freedom-metal/src/drivers/riscv_clint0.c:173
            rc = intc->vtable->interrupt_enable(intc, id);
2010ba30:	fe842783          	lw	a5,-24(s0)
2010ba34:	439c                	lw	a5,0(a5)
2010ba36:	53dc                	lw	a5,36(a5)
2010ba38:	fc842583          	lw	a1,-56(s0)
2010ba3c:	fe842503          	lw	a0,-24(s0)
2010ba40:	9782                	jalr	a5
2010ba42:	fea42623          	sw	a0,-20(s0)
C:/VSD_Sqd_Project/sifive_hifive1_BitNet_MNIST_App/freedom-metal/src/drivers/riscv_clint0.c:177
        }
    }

    return rc;
2010ba46:	fec42783          	lw	a5,-20(s0)
C:/VSD_Sqd_Project/sifive_hifive1_BitNet_MNIST_App/freedom-metal/src/drivers/riscv_clint0.c:178
}
2010ba4a:	853e                	mv	a0,a5
2010ba4c:	50f2                	lw	ra,60(sp)
2010ba4e:	5462                	lw	s0,56(sp)
2010ba50:	6121                	add	sp,sp,64
2010ba52:	8082                	ret

2010ba54 <__metal_driver_riscv_clint0_disable>:
__metal_driver_riscv_clint0_disable():
C:/VSD_Sqd_Project/sifive_hifive1_BitNet_MNIST_App/freedom-metal/src/drivers/riscv_clint0.c:181

int __metal_driver_riscv_clint0_disable(struct metal_interrupt *controller,
                                        int id) {
2010ba54:	7139                	add	sp,sp,-64
2010ba56:	de06                	sw	ra,60(sp)
2010ba58:	dc22                	sw	s0,56(sp)
2010ba5a:	0080                	add	s0,sp,64
2010ba5c:	fca42623          	sw	a0,-52(s0)
2010ba60:	fcb42423          	sw	a1,-56(s0)
C:/VSD_Sqd_Project/sifive_hifive1_BitNet_MNIST_App/freedom-metal/src/drivers/riscv_clint0.c:182
    int rc = -1;
2010ba64:	57fd                	li	a5,-1
2010ba66:	fef42623          	sw	a5,-20(s0)
C:/VSD_Sqd_Project/sifive_hifive1_BitNet_MNIST_App/freedom-metal/src/drivers/riscv_clint0.c:184

    if (id) {
2010ba6a:	fc842783          	lw	a5,-56(s0)
2010ba6e:	cbc1                	beqz	a5,2010bafe <__metal_driver_riscv_clint0_disable+0xaa>
C:/VSD_Sqd_Project/sifive_hifive1_BitNet_MNIST_App/freedom-metal/src/drivers/riscv_clint0.c:185
        struct metal_interrupt *intc = NULL;
2010ba70:	fe042423          	sw	zero,-24(s0)
C:/VSD_Sqd_Project/sifive_hifive1_BitNet_MNIST_App/freedom-metal/src/drivers/riscv_clint0.c:186
        struct metal_interrupt *cpu_intc = _get_cpu_intc();
2010ba74:	39fd                	jal	2010b772 <_get_cpu_intc>
2010ba76:	fea42023          	sw	a0,-32(s0)
C:/VSD_Sqd_Project/sifive_hifive1_BitNet_MNIST_App/freedom-metal/src/drivers/riscv_clint0.c:188
        int num_interrupts =
            __metal_driver_sifive_clint0_num_interrupts(controller);
2010ba7a:	fcc42503          	lw	a0,-52(s0)
2010ba7e:	b31ff0ef          	jal	2010b5ae <__metal_driver_sifive_clint0_num_interrupts>
2010ba82:	fca42e23          	sw	a0,-36(s0)
C:/VSD_Sqd_Project/sifive_hifive1_BitNet_MNIST_App/freedom-metal/src/drivers/riscv_clint0.c:190

        for (int i = 0; i < num_interrupts; i++) {
2010ba86:	fe042223          	sw	zero,-28(s0)
2010ba8a:	a0a1                	j	2010bad2 <__metal_driver_riscv_clint0_disable+0x7e>
C:/VSD_Sqd_Project/sifive_hifive1_BitNet_MNIST_App/freedom-metal/src/drivers/riscv_clint0.c:192
            int line =
                __metal_driver_sifive_clint0_interrupt_lines(controller, i);
2010ba8c:	fe442583          	lw	a1,-28(s0)
2010ba90:	fcc42503          	lw	a0,-52(s0)
2010ba94:	b7fff0ef          	jal	2010b612 <__metal_driver_sifive_clint0_interrupt_lines>
2010ba98:	fca42c23          	sw	a0,-40(s0)
C:/VSD_Sqd_Project/sifive_hifive1_BitNet_MNIST_App/freedom-metal/src/drivers/riscv_clint0.c:194
            intc =
                __metal_driver_sifive_clint0_interrupt_parents(controller, i);
2010ba9c:	fe442583          	lw	a1,-28(s0)
2010baa0:	fcc42503          	lw	a0,-52(s0)
2010baa4:	b33ff0ef          	jal	2010b5d6 <__metal_driver_sifive_clint0_interrupt_parents>
2010baa8:	fea42423          	sw	a0,-24(s0)
C:/VSD_Sqd_Project/sifive_hifive1_BitNet_MNIST_App/freedom-metal/src/drivers/riscv_clint0.c:195
            if (cpu_intc == intc && id == line) {
2010baac:	fe042703          	lw	a4,-32(s0)
2010bab0:	fe842783          	lw	a5,-24(s0)
2010bab4:	00f71863          	bne	a4,a5,2010bac4 <__metal_driver_riscv_clint0_disable+0x70>
C:/VSD_Sqd_Project/sifive_hifive1_BitNet_MNIST_App/freedom-metal/src/drivers/riscv_clint0.c:195 (discriminator 1)
2010bab8:	fc842703          	lw	a4,-56(s0)
2010babc:	fd842783          	lw	a5,-40(s0)
2010bac0:	02f70063          	beq	a4,a5,2010bae0 <__metal_driver_riscv_clint0_disable+0x8c>
C:/VSD_Sqd_Project/sifive_hifive1_BitNet_MNIST_App/freedom-metal/src/drivers/riscv_clint0.c:198
                break;
            }
            intc = NULL;
2010bac4:	fe042423          	sw	zero,-24(s0)
C:/VSD_Sqd_Project/sifive_hifive1_BitNet_MNIST_App/freedom-metal/src/drivers/riscv_clint0.c:190 (discriminator 2)
        for (int i = 0; i < num_interrupts; i++) {
2010bac8:	fe442783          	lw	a5,-28(s0)
2010bacc:	0785                	add	a5,a5,1
2010bace:	fef42223          	sw	a5,-28(s0)
C:/VSD_Sqd_Project/sifive_hifive1_BitNet_MNIST_App/freedom-metal/src/drivers/riscv_clint0.c:190 (discriminator 1)
2010bad2:	fe442703          	lw	a4,-28(s0)
2010bad6:	fdc42783          	lw	a5,-36(s0)
2010bada:	faf749e3          	blt	a4,a5,2010ba8c <__metal_driver_riscv_clint0_disable+0x38>
2010bade:	a011                	j	2010bae2 <__metal_driver_riscv_clint0_disable+0x8e>
C:/VSD_Sqd_Project/sifive_hifive1_BitNet_MNIST_App/freedom-metal/src/drivers/riscv_clint0.c:196
                break;
2010bae0:	0001                	nop
C:/VSD_Sqd_Project/sifive_hifive1_BitNet_MNIST_App/freedom-metal/src/drivers/riscv_clint0.c:202
        }

        /* Disable its interrupts with parent controller */
        if (intc) {
2010bae2:	fe842783          	lw	a5,-24(s0)
2010bae6:	cf81                	beqz	a5,2010bafe <__metal_driver_riscv_clint0_disable+0xaa>
C:/VSD_Sqd_Project/sifive_hifive1_BitNet_MNIST_App/freedom-metal/src/drivers/riscv_clint0.c:203
            rc = intc->vtable->interrupt_disable(intc, id);
2010bae8:	fe842783          	lw	a5,-24(s0)
2010baec:	439c                	lw	a5,0(a5)
2010baee:	579c                	lw	a5,40(a5)
2010baf0:	fc842583          	lw	a1,-56(s0)
2010baf4:	fe842503          	lw	a0,-24(s0)
2010baf8:	9782                	jalr	a5
2010bafa:	fea42623          	sw	a0,-20(s0)
C:/VSD_Sqd_Project/sifive_hifive1_BitNet_MNIST_App/freedom-metal/src/drivers/riscv_clint0.c:207
        }
    }

    return rc;
2010bafe:	fec42783          	lw	a5,-20(s0)
C:/VSD_Sqd_Project/sifive_hifive1_BitNet_MNIST_App/freedom-metal/src/drivers/riscv_clint0.c:208
}
2010bb02:	853e                	mv	a0,a5
2010bb04:	50f2                	lw	ra,60(sp)
2010bb06:	5462                	lw	s0,56(sp)
2010bb08:	6121                	add	sp,sp,64
2010bb0a:	8082                	ret

2010bb0c <__metal_driver_riscv_clint0_command_request>:
__metal_driver_riscv_clint0_command_request():
C:/VSD_Sqd_Project/sifive_hifive1_BitNet_MNIST_App/freedom-metal/src/drivers/riscv_clint0.c:211

int __metal_driver_riscv_clint0_command_request(
    struct metal_interrupt *controller, int command, void *data) {
2010bb0c:	7179                	add	sp,sp,-48
2010bb0e:	d606                	sw	ra,44(sp)
2010bb10:	d422                	sw	s0,40(sp)
2010bb12:	1800                	add	s0,sp,48
2010bb14:	fca42e23          	sw	a0,-36(s0)
2010bb18:	fcb42c23          	sw	a1,-40(s0)
2010bb1c:	fcc42a23          	sw	a2,-44(s0)
C:/VSD_Sqd_Project/sifive_hifive1_BitNet_MNIST_App/freedom-metal/src/drivers/riscv_clint0.c:213
    int hartid;
    int rc = -1;
2010bb20:	57fd                	li	a5,-1
2010bb22:	fef42623          	sw	a5,-20(s0)
C:/VSD_Sqd_Project/sifive_hifive1_BitNet_MNIST_App/freedom-metal/src/drivers/riscv_clint0.c:214
    struct __metal_driver_riscv_clint0 *clint =
2010bb26:	fdc42783          	lw	a5,-36(s0)
2010bb2a:	fef42423          	sw	a5,-24(s0)
C:/VSD_Sqd_Project/sifive_hifive1_BitNet_MNIST_App/freedom-metal/src/drivers/riscv_clint0.c:217
        (struct __metal_driver_riscv_clint0 *)(controller);
    unsigned long control_base =
        __metal_driver_sifive_clint0_control_base(controller);
2010bb2e:	fdc42503          	lw	a0,-36(s0)
2010bb32:	a53ff0ef          	jal	2010b584 <__metal_driver_sifive_clint0_control_base>
2010bb36:	fea42223          	sw	a0,-28(s0)
C:/VSD_Sqd_Project/sifive_hifive1_BitNet_MNIST_App/freedom-metal/src/drivers/riscv_clint0.c:219

    switch (command) {
2010bb3a:	fd842703          	lw	a4,-40(s0)
2010bb3e:	4791                	li	a5,4
2010bb40:	0cf70163          	beq	a4,a5,2010bc02 <__metal_driver_riscv_clint0_command_request+0xf6>
2010bb44:	fd842703          	lw	a4,-40(s0)
2010bb48:	4791                	li	a5,4
2010bb4a:	0ee7c163          	blt	a5,a4,2010bc2c <__metal_driver_riscv_clint0_command_request+0x120>
2010bb4e:	fd842703          	lw	a4,-40(s0)
2010bb52:	478d                	li	a5,3
2010bb54:	06f70663          	beq	a4,a5,2010bbc0 <__metal_driver_riscv_clint0_command_request+0xb4>
2010bb58:	fd842703          	lw	a4,-40(s0)
2010bb5c:	478d                	li	a5,3
2010bb5e:	0ce7c763          	blt	a5,a4,2010bc2c <__metal_driver_riscv_clint0_command_request+0x120>
2010bb62:	fd842703          	lw	a4,-40(s0)
2010bb66:	4785                	li	a5,1
2010bb68:	00f70863          	beq	a4,a5,2010bb78 <__metal_driver_riscv_clint0_command_request+0x6c>
2010bb6c:	fd842703          	lw	a4,-40(s0)
2010bb70:	4789                	li	a5,2
2010bb72:	02f70363          	beq	a4,a5,2010bb98 <__metal_driver_riscv_clint0_command_request+0x8c>
C:/VSD_Sqd_Project/sifive_hifive1_BitNet_MNIST_App/freedom-metal/src/drivers/riscv_clint0.c:263
            rc = __METAL_ACCESS_ONCE(
                (__metal_io_u32 *)(control_base + (hartid * 4)));
        }
        break;
    default:
        break;
2010bb76:	a85d                	j	2010bc2c <__metal_driver_riscv_clint0_command_request+0x120>
C:/VSD_Sqd_Project/sifive_hifive1_BitNet_MNIST_App/freedom-metal/src/drivers/riscv_clint0.c:221
        if (data) {
2010bb78:	fd442783          	lw	a5,-44(s0)
2010bb7c:	cbd5                	beqz	a5,2010bc30 <__metal_driver_riscv_clint0_command_request+0x124>
C:/VSD_Sqd_Project/sifive_hifive1_BitNet_MNIST_App/freedom-metal/src/drivers/riscv_clint0.c:222
            *(unsigned long long *)data = __metal_clint0_mtime_get(clint);
2010bb7e:	fe842503          	lw	a0,-24(s0)
2010bb82:	ac1ff0ef          	jal	2010b642 <__metal_clint0_mtime_get>
2010bb86:	872a                	mv	a4,a0
2010bb88:	87ae                	mv	a5,a1
C:/VSD_Sqd_Project/sifive_hifive1_BitNet_MNIST_App/freedom-metal/src/drivers/riscv_clint0.c:222 (discriminator 1)
2010bb8a:	fd442683          	lw	a3,-44(s0)
2010bb8e:	c298                	sw	a4,0(a3)
2010bb90:	c2dc                	sw	a5,4(a3)
C:/VSD_Sqd_Project/sifive_hifive1_BitNet_MNIST_App/freedom-metal/src/drivers/riscv_clint0.c:223
            rc = 0;
2010bb92:	fe042623          	sw	zero,-20(s0)
C:/VSD_Sqd_Project/sifive_hifive1_BitNet_MNIST_App/freedom-metal/src/drivers/riscv_clint0.c:225
        break;
2010bb96:	a869                	j	2010bc30 <__metal_driver_riscv_clint0_command_request+0x124>
C:/VSD_Sqd_Project/sifive_hifive1_BitNet_MNIST_App/freedom-metal/src/drivers/riscv_clint0.c:227
        if (data) {
2010bb98:	fd442783          	lw	a5,-44(s0)
2010bb9c:	cfc1                	beqz	a5,2010bc34 <__metal_driver_riscv_clint0_command_request+0x128>
C:/VSD_Sqd_Project/sifive_hifive1_BitNet_MNIST_App/freedom-metal/src/drivers/riscv_clint0.c:228
            hartid = *(int *)data;
2010bb9e:	fd442783          	lw	a5,-44(s0)
2010bba2:	439c                	lw	a5,0(a5)
2010bba4:	fef42023          	sw	a5,-32(s0)
C:/VSD_Sqd_Project/sifive_hifive1_BitNet_MNIST_App/freedom-metal/src/drivers/riscv_clint0.c:229
            __METAL_ACCESS_ONCE((
2010bba8:	fe042783          	lw	a5,-32(s0)
2010bbac:	078a                	sll	a5,a5,0x2
2010bbae:	873e                	mv	a4,a5
2010bbb0:	fe442783          	lw	a5,-28(s0)
2010bbb4:	97ba                	add	a5,a5,a4
C:/VSD_Sqd_Project/sifive_hifive1_BitNet_MNIST_App/freedom-metal/src/drivers/riscv_clint0.c:230
                __metal_io_u32 *)(control_base + (hartid * 4))) = METAL_DISABLE;
2010bbb6:	0007a023          	sw	zero,0(a5)
C:/VSD_Sqd_Project/sifive_hifive1_BitNet_MNIST_App/freedom-metal/src/drivers/riscv_clint0.c:231
            rc = 0;
2010bbba:	fe042623          	sw	zero,-20(s0)
C:/VSD_Sqd_Project/sifive_hifive1_BitNet_MNIST_App/freedom-metal/src/drivers/riscv_clint0.c:233
        break;
2010bbbe:	a89d                	j	2010bc34 <__metal_driver_riscv_clint0_command_request+0x128>
C:/VSD_Sqd_Project/sifive_hifive1_BitNet_MNIST_App/freedom-metal/src/drivers/riscv_clint0.c:235
        if (data) {
2010bbc0:	fd442783          	lw	a5,-44(s0)
2010bbc4:	cbb5                	beqz	a5,2010bc38 <__metal_driver_riscv_clint0_command_request+0x12c>
C:/VSD_Sqd_Project/sifive_hifive1_BitNet_MNIST_App/freedom-metal/src/drivers/riscv_clint0.c:236
            hartid = *(int *)data;
2010bbc6:	fd442783          	lw	a5,-44(s0)
2010bbca:	439c                	lw	a5,0(a5)
2010bbcc:	fef42023          	sw	a5,-32(s0)
C:/VSD_Sqd_Project/sifive_hifive1_BitNet_MNIST_App/freedom-metal/src/drivers/riscv_clint0.c:237
            __METAL_ACCESS_ONCE(
2010bbd0:	fe042783          	lw	a5,-32(s0)
2010bbd4:	078a                	sll	a5,a5,0x2
2010bbd6:	873e                	mv	a4,a5
2010bbd8:	fe442783          	lw	a5,-28(s0)
2010bbdc:	97ba                	add	a5,a5,a4
2010bbde:	873e                	mv	a4,a5
C:/VSD_Sqd_Project/sifive_hifive1_BitNet_MNIST_App/freedom-metal/src/drivers/riscv_clint0.c:238
                (__metal_io_u32 *)(control_base + (hartid * 4))) = METAL_ENABLE;
2010bbe0:	4785                	li	a5,1
2010bbe2:	c31c                	sw	a5,0(a4)
C:/VSD_Sqd_Project/sifive_hifive1_BitNet_MNIST_App/freedom-metal/src/drivers/riscv_clint0.c:248
            __METAL_IO_FENCE(o, i);
2010bbe4:	0480000f          	fence	o,i
C:/VSD_Sqd_Project/sifive_hifive1_BitNet_MNIST_App/freedom-metal/src/drivers/riscv_clint0.c:249
            rc = __METAL_ACCESS_ONCE(
2010bbe8:	fe042783          	lw	a5,-32(s0)
2010bbec:	078a                	sll	a5,a5,0x2
2010bbee:	873e                	mv	a4,a5
2010bbf0:	fe442783          	lw	a5,-28(s0)
2010bbf4:	97ba                	add	a5,a5,a4
2010bbf6:	439c                	lw	a5,0(a5)
2010bbf8:	fef42623          	sw	a5,-20(s0)
C:/VSD_Sqd_Project/sifive_hifive1_BitNet_MNIST_App/freedom-metal/src/drivers/riscv_clint0.c:251
            rc = 0;
2010bbfc:	fe042623          	sw	zero,-20(s0)
C:/VSD_Sqd_Project/sifive_hifive1_BitNet_MNIST_App/freedom-metal/src/drivers/riscv_clint0.c:253
        break;
2010bc00:	a825                	j	2010bc38 <__metal_driver_riscv_clint0_command_request+0x12c>
C:/VSD_Sqd_Project/sifive_hifive1_BitNet_MNIST_App/freedom-metal/src/drivers/riscv_clint0.c:255
        rc = 0;
2010bc02:	fe042623          	sw	zero,-20(s0)
C:/VSD_Sqd_Project/sifive_hifive1_BitNet_MNIST_App/freedom-metal/src/drivers/riscv_clint0.c:256
        if (data) {
2010bc06:	fd442783          	lw	a5,-44(s0)
2010bc0a:	cb8d                	beqz	a5,2010bc3c <__metal_driver_riscv_clint0_command_request+0x130>
C:/VSD_Sqd_Project/sifive_hifive1_BitNet_MNIST_App/freedom-metal/src/drivers/riscv_clint0.c:257
            hartid = *(int *)data;
2010bc0c:	fd442783          	lw	a5,-44(s0)
2010bc10:	439c                	lw	a5,0(a5)
2010bc12:	fef42023          	sw	a5,-32(s0)
C:/VSD_Sqd_Project/sifive_hifive1_BitNet_MNIST_App/freedom-metal/src/drivers/riscv_clint0.c:258
            rc = __METAL_ACCESS_ONCE(
2010bc16:	fe042783          	lw	a5,-32(s0)
2010bc1a:	078a                	sll	a5,a5,0x2
2010bc1c:	873e                	mv	a4,a5
2010bc1e:	fe442783          	lw	a5,-28(s0)
2010bc22:	97ba                	add	a5,a5,a4
2010bc24:	439c                	lw	a5,0(a5)
2010bc26:	fef42623          	sw	a5,-20(s0)
C:/VSD_Sqd_Project/sifive_hifive1_BitNet_MNIST_App/freedom-metal/src/drivers/riscv_clint0.c:261
        break;
2010bc2a:	a809                	j	2010bc3c <__metal_driver_riscv_clint0_command_request+0x130>
C:/VSD_Sqd_Project/sifive_hifive1_BitNet_MNIST_App/freedom-metal/src/drivers/riscv_clint0.c:263
        break;
2010bc2c:	0001                	nop
2010bc2e:	a801                	j	2010bc3e <__metal_driver_riscv_clint0_command_request+0x132>
C:/VSD_Sqd_Project/sifive_hifive1_BitNet_MNIST_App/freedom-metal/src/drivers/riscv_clint0.c:225
        break;
2010bc30:	0001                	nop
2010bc32:	a031                	j	2010bc3e <__metal_driver_riscv_clint0_command_request+0x132>
C:/VSD_Sqd_Project/sifive_hifive1_BitNet_MNIST_App/freedom-metal/src/drivers/riscv_clint0.c:233
        break;
2010bc34:	0001                	nop
2010bc36:	a021                	j	2010bc3e <__metal_driver_riscv_clint0_command_request+0x132>
C:/VSD_Sqd_Project/sifive_hifive1_BitNet_MNIST_App/freedom-metal/src/drivers/riscv_clint0.c:253
        break;
2010bc38:	0001                	nop
2010bc3a:	a011                	j	2010bc3e <__metal_driver_riscv_clint0_command_request+0x132>
C:/VSD_Sqd_Project/sifive_hifive1_BitNet_MNIST_App/freedom-metal/src/drivers/riscv_clint0.c:261
        break;
2010bc3c:	0001                	nop
C:/VSD_Sqd_Project/sifive_hifive1_BitNet_MNIST_App/freedom-metal/src/drivers/riscv_clint0.c:266
    }

    return rc;
2010bc3e:	fec42783          	lw	a5,-20(s0)
C:/VSD_Sqd_Project/sifive_hifive1_BitNet_MNIST_App/freedom-metal/src/drivers/riscv_clint0.c:267
}
2010bc42:	853e                	mv	a0,a5
2010bc44:	50b2                	lw	ra,44(sp)
2010bc46:	5422                	lw	s0,40(sp)
2010bc48:	6145                	add	sp,sp,48
2010bc4a:	8082                	ret

2010bc4c <__metal_driver_riscv_clint0_clear_interrupt>:
__metal_driver_riscv_clint0_clear_interrupt():
C:/VSD_Sqd_Project/sifive_hifive1_BitNet_MNIST_App/freedom-metal/src/drivers/riscv_clint0.c:270

int __metal_driver_riscv_clint0_clear_interrupt(
    struct metal_interrupt *controller, int id) {
2010bc4c:	7179                	add	sp,sp,-48
2010bc4e:	d606                	sw	ra,44(sp)
2010bc50:	d422                	sw	s0,40(sp)
2010bc52:	1800                	add	s0,sp,48
2010bc54:	fca42e23          	sw	a0,-36(s0)
2010bc58:	fcb42c23          	sw	a1,-40(s0)
C:/VSD_Sqd_Project/sifive_hifive1_BitNet_MNIST_App/freedom-metal/src/drivers/riscv_clint0.c:271
    int hartid = metal_cpu_get_current_hartid();
2010bc5c:	5b7030ef          	jal	2010fa12 <metal_cpu_get_current_hartid>
2010bc60:	87aa                	mv	a5,a0
C:/VSD_Sqd_Project/sifive_hifive1_BitNet_MNIST_App/freedom-metal/src/drivers/riscv_clint0.c:271 (discriminator 1)
2010bc62:	fef42623          	sw	a5,-20(s0)
C:/VSD_Sqd_Project/sifive_hifive1_BitNet_MNIST_App/freedom-metal/src/drivers/riscv_clint0.c:272
    return __metal_driver_riscv_clint0_command_request(
2010bc66:	fec40793          	add	a5,s0,-20
2010bc6a:	863e                	mv	a2,a5
2010bc6c:	4589                	li	a1,2
2010bc6e:	fdc42503          	lw	a0,-36(s0)
2010bc72:	3d69                	jal	2010bb0c <__metal_driver_riscv_clint0_command_request>
2010bc74:	87aa                	mv	a5,a0
C:/VSD_Sqd_Project/sifive_hifive1_BitNet_MNIST_App/freedom-metal/src/drivers/riscv_clint0.c:274
        controller, METAL_SOFTWARE_IPI_CLEAR, &hartid);
}
2010bc76:	853e                	mv	a0,a5
2010bc78:	50b2                	lw	ra,44(sp)
2010bc7a:	5422                	lw	s0,40(sp)
2010bc7c:	6145                	add	sp,sp,48
2010bc7e:	8082                	ret

2010bc80 <__metal_driver_riscv_clint0_set_interrupt>:
__metal_driver_riscv_clint0_set_interrupt():
C:/VSD_Sqd_Project/sifive_hifive1_BitNet_MNIST_App/freedom-metal/src/drivers/riscv_clint0.c:277

int __metal_driver_riscv_clint0_set_interrupt(
    struct metal_interrupt *controller, int id) {
2010bc80:	7179                	add	sp,sp,-48
2010bc82:	d606                	sw	ra,44(sp)
2010bc84:	d422                	sw	s0,40(sp)
2010bc86:	1800                	add	s0,sp,48
2010bc88:	fca42e23          	sw	a0,-36(s0)
2010bc8c:	fcb42c23          	sw	a1,-40(s0)
C:/VSD_Sqd_Project/sifive_hifive1_BitNet_MNIST_App/freedom-metal/src/drivers/riscv_clint0.c:278
    int hartid = metal_cpu_get_current_hartid();
2010bc90:	583030ef          	jal	2010fa12 <metal_cpu_get_current_hartid>
2010bc94:	87aa                	mv	a5,a0
C:/VSD_Sqd_Project/sifive_hifive1_BitNet_MNIST_App/freedom-metal/src/drivers/riscv_clint0.c:278 (discriminator 1)
2010bc96:	fef42623          	sw	a5,-20(s0)
C:/VSD_Sqd_Project/sifive_hifive1_BitNet_MNIST_App/freedom-metal/src/drivers/riscv_clint0.c:279
    return __metal_driver_riscv_clint0_command_request(
2010bc9a:	fec40793          	add	a5,s0,-20
2010bc9e:	863e                	mv	a2,a5
2010bca0:	458d                	li	a1,3
2010bca2:	fdc42503          	lw	a0,-36(s0)
2010bca6:	359d                	jal	2010bb0c <__metal_driver_riscv_clint0_command_request>
2010bca8:	87aa                	mv	a5,a0
C:/VSD_Sqd_Project/sifive_hifive1_BitNet_MNIST_App/freedom-metal/src/drivers/riscv_clint0.c:281
        controller, METAL_SOFTWARE_IPI_SET, &hartid);
}
2010bcaa:	853e                	mv	a0,a5
2010bcac:	50b2                	lw	ra,44(sp)
2010bcae:	5422                	lw	s0,40(sp)
2010bcb0:	6145                	add	sp,sp,48
2010bcb2:	8082                	ret

2010bcb4 <__metal_driver_cpu_hartid>:
__metal_driver_cpu_hartid():
C:\VSD_Sqd_Project\sifive_hifive1_BitNet_MNIST_App\bsp\build\debug/./metal/machine.h:267



/* --------------------- cpu ------------ */
static __inline__ int __metal_driver_cpu_hartid(struct metal_cpu *cpu)
{
2010bcb4:	1101                	add	sp,sp,-32
2010bcb6:	ce22                	sw	s0,28(sp)
2010bcb8:	1000                	add	s0,sp,32
2010bcba:	fea42623          	sw	a0,-20(s0)
C:\VSD_Sqd_Project\sifive_hifive1_BitNet_MNIST_App\bsp\build\debug/./metal/machine.h:268
	if ((uintptr_t)cpu == (uintptr_t)&__metal_dt_cpu_0) {
2010bcbe:	fec42703          	lw	a4,-20(s0)
2010bcc2:	81418793          	add	a5,gp,-2028 # 80000a84 <__metal_dt_cpu_0>
2010bcc6:	00f71463          	bne	a4,a5,2010bcce <__metal_driver_cpu_hartid+0x1a>
C:\VSD_Sqd_Project\sifive_hifive1_BitNet_MNIST_App\bsp\build\debug/./metal/machine.h:269
		return 0;
2010bcca:	4781                	li	a5,0
2010bccc:	a011                	j	2010bcd0 <__metal_driver_cpu_hartid+0x1c>
C:\VSD_Sqd_Project\sifive_hifive1_BitNet_MNIST_App\bsp\build\debug/./metal/machine.h:272
	}
	else {
		return -1;
2010bcce:	57fd                	li	a5,-1
C:\VSD_Sqd_Project\sifive_hifive1_BitNet_MNIST_App\bsp\build\debug/./metal/machine.h:274
	}
}
2010bcd0:	853e                	mv	a0,a5
2010bcd2:	4472                	lw	s0,28(sp)
2010bcd4:	6105                	add	sp,sp,32
2010bcd6:	8082                	ret

2010bcd8 <__metal_driver_cpu_timebase>:
__metal_driver_cpu_timebase():
C:\VSD_Sqd_Project\sifive_hifive1_BitNet_MNIST_App\bsp\build\debug/./metal/machine.h:277

static __inline__ int __metal_driver_cpu_timebase(struct metal_cpu *cpu)
{
2010bcd8:	1101                	add	sp,sp,-32
2010bcda:	ce22                	sw	s0,28(sp)
2010bcdc:	1000                	add	s0,sp,32
2010bcde:	fea42623          	sw	a0,-20(s0)
C:\VSD_Sqd_Project\sifive_hifive1_BitNet_MNIST_App\bsp\build\debug/./metal/machine.h:278
	if ((uintptr_t)cpu == (uintptr_t)&__metal_dt_cpu_0) {
2010bce2:	fec42703          	lw	a4,-20(s0)
2010bce6:	81418793          	add	a5,gp,-2028 # 80000a84 <__metal_dt_cpu_0>
2010bcea:	00f71763          	bne	a4,a5,2010bcf8 <__metal_driver_cpu_timebase+0x20>
C:\VSD_Sqd_Project\sifive_hifive1_BitNet_MNIST_App\bsp\build\debug/./metal/machine.h:279
		return 1000000;
2010bcee:	000f47b7          	lui	a5,0xf4
2010bcf2:	24078793          	add	a5,a5,576 # f4240 <__heap_size+0xf3a40>
2010bcf6:	a011                	j	2010bcfa <__metal_driver_cpu_timebase+0x22>
C:\VSD_Sqd_Project\sifive_hifive1_BitNet_MNIST_App\bsp\build\debug/./metal/machine.h:282
	}
	else {
		return 0;
2010bcf8:	4781                	li	a5,0
C:\VSD_Sqd_Project\sifive_hifive1_BitNet_MNIST_App\bsp\build\debug/./metal/machine.h:284
	}
}
2010bcfa:	853e                	mv	a0,a5
2010bcfc:	4472                	lw	s0,28(sp)
2010bcfe:	6105                	add	sp,sp,32
2010bd00:	8082                	ret

2010bd02 <__metal_driver_cpu_interrupt_controller>:
__metal_driver_cpu_interrupt_controller():
C:\VSD_Sqd_Project\sifive_hifive1_BitNet_MNIST_App\bsp\build\debug/./metal/machine.h:287

static __inline__ struct metal_interrupt * __metal_driver_cpu_interrupt_controller(struct metal_cpu *cpu)
{
2010bd02:	1101                	add	sp,sp,-32
2010bd04:	ce22                	sw	s0,28(sp)
2010bd06:	1000                	add	s0,sp,32
2010bd08:	fea42623          	sw	a0,-20(s0)
C:\VSD_Sqd_Project\sifive_hifive1_BitNet_MNIST_App\bsp\build\debug/./metal/machine.h:288
	if ((uintptr_t)cpu == (uintptr_t)&__metal_dt_cpu_0) {
2010bd0c:	fec42703          	lw	a4,-20(s0)
2010bd10:	81418793          	add	a5,gp,-2028 # 80000a84 <__metal_dt_cpu_0>
2010bd14:	00f71763          	bne	a4,a5,2010bd22 <__metal_driver_cpu_interrupt_controller+0x20>
C:\VSD_Sqd_Project\sifive_hifive1_BitNet_MNIST_App\bsp\build\debug/./metal/machine.h:289
		return &__metal_dt_cpu_0_interrupt_controller.controller;
2010bd18:	800007b7          	lui	a5,0x80000
2010bd1c:	08078793          	add	a5,a5,128 # 80000080 <__metal_dt_cpu_0_interrupt_controller>
2010bd20:	a011                	j	2010bd24 <__metal_driver_cpu_interrupt_controller+0x22>
C:\VSD_Sqd_Project\sifive_hifive1_BitNet_MNIST_App\bsp\build\debug/./metal/machine.h:292
	}
	else {
		return NULL;
2010bd22:	4781                	li	a5,0
C:\VSD_Sqd_Project\sifive_hifive1_BitNet_MNIST_App\bsp\build\debug/./metal/machine.h:294
	}
}
2010bd24:	853e                	mv	a0,a5
2010bd26:	4472                	lw	s0,28(sp)
2010bd28:	6105                	add	sp,sp,32
2010bd2a:	8082                	ret

2010bd2c <__metal_driver_cpu_buserror>:
__metal_driver_cpu_buserror():
C:\VSD_Sqd_Project\sifive_hifive1_BitNet_MNIST_App\bsp\build\debug/./metal/machine.h:307
		return 0;
	}
}

static __inline__ struct metal_buserror * __metal_driver_cpu_buserror(struct metal_cpu *cpu)
{
2010bd2c:	1101                	add	sp,sp,-32
2010bd2e:	ce22                	sw	s0,28(sp)
2010bd30:	1000                	add	s0,sp,32
2010bd32:	fea42623          	sw	a0,-20(s0)
C:\VSD_Sqd_Project\sifive_hifive1_BitNet_MNIST_App\bsp\build\debug/./metal/machine.h:308
	if ((uintptr_t)cpu == (uintptr_t)&__metal_dt_cpu_0) {
2010bd36:	fec42703          	lw	a4,-20(s0)
2010bd3a:	81418793          	add	a5,gp,-2028 # 80000a84 <__metal_dt_cpu_0>
2010bd3e:	00f71463          	bne	a4,a5,2010bd46 <__metal_driver_cpu_buserror+0x1a>
C:\VSD_Sqd_Project\sifive_hifive1_BitNet_MNIST_App\bsp\build\debug/./metal/machine.h:309
		return NULL;
2010bd42:	4781                	li	a5,0
2010bd44:	a011                	j	2010bd48 <__metal_driver_cpu_buserror+0x1c>
C:\VSD_Sqd_Project\sifive_hifive1_BitNet_MNIST_App\bsp\build\debug/./metal/machine.h:312
	}
	else {
		return NULL;
2010bd46:	4781                	li	a5,0
C:\VSD_Sqd_Project\sifive_hifive1_BitNet_MNIST_App\bsp\build\debug/./metal/machine.h:314
	}
}
2010bd48:	853e                	mv	a0,a5
2010bd4a:	4472                	lw	s0,28(sp)
2010bd4c:	6105                	add	sp,sp,32
2010bd4e:	8082                	ret

2010bd50 <__metal_driver_cpu_get>:
__metal_driver_cpu_get():
C:/VSD_Sqd_Project/sifive_hifive1_BitNet_MNIST_App/freedom-metal/src/drivers/riscv_cpu.c:25
extern void __metal_vector_table();
unsigned long long __metal_driver_cpu_mtime_get(struct metal_cpu *cpu);
int __metal_driver_cpu_mtimecmp_set(struct metal_cpu *cpu,
                                    unsigned long long time);

struct metal_cpu *__metal_driver_cpu_get(int hartid) {
2010bd50:	1101                	add	sp,sp,-32
2010bd52:	ce22                	sw	s0,28(sp)
2010bd54:	1000                	add	s0,sp,32
2010bd56:	fea42623          	sw	a0,-20(s0)
C:/VSD_Sqd_Project/sifive_hifive1_BitNet_MNIST_App/freedom-metal/src/drivers/riscv_cpu.c:26
    if (hartid < __METAL_DT_MAX_HARTS) {
2010bd5a:	fec42783          	lw	a5,-20(s0)
2010bd5e:	00f04c63          	bgtz	a5,2010bd76 <__metal_driver_cpu_get+0x26>
C:/VSD_Sqd_Project/sifive_hifive1_BitNet_MNIST_App/freedom-metal/src/drivers/riscv_cpu.c:27
        return &(__metal_cpu_table[hartid]->cpu);
2010bd62:	800017b7          	lui	a5,0x80001
2010bd66:	fec42703          	lw	a4,-20(s0)
2010bd6a:	070a                	sll	a4,a4,0x2
2010bd6c:	a7878793          	add	a5,a5,-1416 # 80000a78 <__metal_cpu_table>
2010bd70:	97ba                	add	a5,a5,a4
2010bd72:	439c                	lw	a5,0(a5)
2010bd74:	a011                	j	2010bd78 <__metal_driver_cpu_get+0x28>
C:/VSD_Sqd_Project/sifive_hifive1_BitNet_MNIST_App/freedom-metal/src/drivers/riscv_cpu.c:29
    }
    return (struct metal_cpu *)NULL;
2010bd76:	4781                	li	a5,0
C:/VSD_Sqd_Project/sifive_hifive1_BitNet_MNIST_App/freedom-metal/src/drivers/riscv_cpu.c:30
}
2010bd78:	853e                	mv	a0,a5
2010bd7a:	4472                	lw	s0,28(sp)
2010bd7c:	6105                	add	sp,sp,32
2010bd7e:	8082                	ret

2010bd80 <__metal_myhart_id>:
__metal_myhart_id():
C:/VSD_Sqd_Project/sifive_hifive1_BitNet_MNIST_App/freedom-metal/src/drivers/riscv_cpu.c:32

uintptr_t __metal_myhart_id(void) {
2010bd80:	1101                	add	sp,sp,-32
2010bd82:	ce22                	sw	s0,28(sp)
2010bd84:	1000                	add	s0,sp,32
C:/VSD_Sqd_Project/sifive_hifive1_BitNet_MNIST_App/freedom-metal/src/drivers/riscv_cpu.c:34
    uintptr_t myhart;
    __asm__ volatile("csrr %0, mhartid" : "=r"(myhart));
2010bd86:	f14027f3          	csrr	a5,mhartid
2010bd8a:	fef42623          	sw	a5,-20(s0)
C:/VSD_Sqd_Project/sifive_hifive1_BitNet_MNIST_App/freedom-metal/src/drivers/riscv_cpu.c:35
    return myhart;
2010bd8e:	fec42783          	lw	a5,-20(s0)
C:/VSD_Sqd_Project/sifive_hifive1_BitNet_MNIST_App/freedom-metal/src/drivers/riscv_cpu.c:36
}
2010bd92:	853e                	mv	a0,a5
2010bd94:	4472                	lw	s0,28(sp)
2010bd96:	6105                	add	sp,sp,32
2010bd98:	8082                	ret

2010bd9a <__metal_interrupt_global_enable>:
__metal_interrupt_global_enable():
C:/VSD_Sqd_Project/sifive_hifive1_BitNet_MNIST_App/freedom-metal/src/drivers/riscv_cpu.c:45
    for (ptr = base; ptr < (base + size); ptr++) {
        *ptr = 0;
    }
}

void __metal_interrupt_global_enable(void) {
2010bd9a:	1101                	add	sp,sp,-32
2010bd9c:	ce22                	sw	s0,28(sp)
2010bd9e:	1000                	add	s0,sp,32
C:/VSD_Sqd_Project/sifive_hifive1_BitNet_MNIST_App/freedom-metal/src/drivers/riscv_cpu.c:47
    uintptr_t m;
    __asm__ volatile("csrrs %0, mstatus, %1"
2010bda0:	47a1                	li	a5,8
2010bda2:	3007a7f3          	csrrs	a5,mstatus,a5
2010bda6:	fef42623          	sw	a5,-20(s0)
C:/VSD_Sqd_Project/sifive_hifive1_BitNet_MNIST_App/freedom-metal/src/drivers/riscv_cpu.c:50
                     : "=r"(m)
                     : "r"(METAL_MIE_INTERRUPT));
}
2010bdaa:	0001                	nop
2010bdac:	4472                	lw	s0,28(sp)
2010bdae:	6105                	add	sp,sp,32
2010bdb0:	8082                	ret

2010bdb2 <__metal_interrupt_global_disable>:
__metal_interrupt_global_disable():
C:/VSD_Sqd_Project/sifive_hifive1_BitNet_MNIST_App/freedom-metal/src/drivers/riscv_cpu.c:52

void __metal_interrupt_global_disable(void) {
2010bdb2:	1101                	add	sp,sp,-32
2010bdb4:	ce22                	sw	s0,28(sp)
2010bdb6:	1000                	add	s0,sp,32
C:/VSD_Sqd_Project/sifive_hifive1_BitNet_MNIST_App/freedom-metal/src/drivers/riscv_cpu.c:54
    uintptr_t m;
    __asm__ volatile("csrrc %0, mstatus, %1"
2010bdb8:	47a1                	li	a5,8
2010bdba:	3007b7f3          	csrrc	a5,mstatus,a5
2010bdbe:	fef42623          	sw	a5,-20(s0)
C:/VSD_Sqd_Project/sifive_hifive1_BitNet_MNIST_App/freedom-metal/src/drivers/riscv_cpu.c:57
                     : "=r"(m)
                     : "r"(METAL_MIE_INTERRUPT));
}
2010bdc2:	0001                	nop
2010bdc4:	4472                	lw	s0,28(sp)
2010bdc6:	6105                	add	sp,sp,32
2010bdc8:	8082                	ret

2010bdca <__metal_interrupt_software_enable>:
__metal_interrupt_software_enable():
C:/VSD_Sqd_Project/sifive_hifive1_BitNet_MNIST_App/freedom-metal/src/drivers/riscv_cpu.c:59

void __metal_interrupt_software_enable(void) {
2010bdca:	1101                	add	sp,sp,-32
2010bdcc:	ce22                	sw	s0,28(sp)
2010bdce:	1000                	add	s0,sp,32
C:/VSD_Sqd_Project/sifive_hifive1_BitNet_MNIST_App/freedom-metal/src/drivers/riscv_cpu.c:61
    uintptr_t m;
    __asm__ volatile("csrrs %0, mie, %1"
2010bdd0:	47a1                	li	a5,8
2010bdd2:	3047a7f3          	csrrs	a5,mie,a5
2010bdd6:	fef42623          	sw	a5,-20(s0)
C:/VSD_Sqd_Project/sifive_hifive1_BitNet_MNIST_App/freedom-metal/src/drivers/riscv_cpu.c:64
                     : "=r"(m)
                     : "r"(METAL_LOCAL_INTERRUPT_SW));
}
2010bdda:	0001                	nop
2010bddc:	4472                	lw	s0,28(sp)
2010bdde:	6105                	add	sp,sp,32
2010bde0:	8082                	ret

2010bde2 <__metal_interrupt_software_disable>:
__metal_interrupt_software_disable():
C:/VSD_Sqd_Project/sifive_hifive1_BitNet_MNIST_App/freedom-metal/src/drivers/riscv_cpu.c:66

void __metal_interrupt_software_disable(void) {
2010bde2:	1101                	add	sp,sp,-32
2010bde4:	ce22                	sw	s0,28(sp)
2010bde6:	1000                	add	s0,sp,32
C:/VSD_Sqd_Project/sifive_hifive1_BitNet_MNIST_App/freedom-metal/src/drivers/riscv_cpu.c:68
    uintptr_t m;
    __asm__ volatile("csrrc %0, mie, %1"
2010bde8:	47a1                	li	a5,8
2010bdea:	3047b7f3          	csrrc	a5,mie,a5
2010bdee:	fef42623          	sw	a5,-20(s0)
C:/VSD_Sqd_Project/sifive_hifive1_BitNet_MNIST_App/freedom-metal/src/drivers/riscv_cpu.c:71
                     : "=r"(m)
                     : "r"(METAL_LOCAL_INTERRUPT_SW));
}
2010bdf2:	0001                	nop
2010bdf4:	4472                	lw	s0,28(sp)
2010bdf6:	6105                	add	sp,sp,32
2010bdf8:	8082                	ret

2010bdfa <__metal_interrupt_timer_enable>:
__metal_interrupt_timer_enable():
C:/VSD_Sqd_Project/sifive_hifive1_BitNet_MNIST_App/freedom-metal/src/drivers/riscv_cpu.c:73

void __metal_interrupt_timer_enable(void) {
2010bdfa:	1101                	add	sp,sp,-32
2010bdfc:	ce22                	sw	s0,28(sp)
2010bdfe:	1000                	add	s0,sp,32
C:/VSD_Sqd_Project/sifive_hifive1_BitNet_MNIST_App/freedom-metal/src/drivers/riscv_cpu.c:75
    uintptr_t m;
    __asm__ volatile("csrrs %0, mie, %1"
2010be00:	08000793          	li	a5,128
2010be04:	3047a7f3          	csrrs	a5,mie,a5
2010be08:	fef42623          	sw	a5,-20(s0)
C:/VSD_Sqd_Project/sifive_hifive1_BitNet_MNIST_App/freedom-metal/src/drivers/riscv_cpu.c:78
                     : "=r"(m)
                     : "r"(METAL_LOCAL_INTERRUPT_TMR));
}
2010be0c:	0001                	nop
2010be0e:	4472                	lw	s0,28(sp)
2010be10:	6105                	add	sp,sp,32
2010be12:	8082                	ret

2010be14 <__metal_interrupt_timer_disable>:
__metal_interrupt_timer_disable():
C:/VSD_Sqd_Project/sifive_hifive1_BitNet_MNIST_App/freedom-metal/src/drivers/riscv_cpu.c:80

void __metal_interrupt_timer_disable(void) {
2010be14:	1101                	add	sp,sp,-32
2010be16:	ce22                	sw	s0,28(sp)
2010be18:	1000                	add	s0,sp,32
C:/VSD_Sqd_Project/sifive_hifive1_BitNet_MNIST_App/freedom-metal/src/drivers/riscv_cpu.c:82
    uintptr_t m;
    __asm__ volatile("csrrc %0, mie, %1"
2010be1a:	08000793          	li	a5,128
2010be1e:	3047b7f3          	csrrc	a5,mie,a5
2010be22:	fef42623          	sw	a5,-20(s0)
C:/VSD_Sqd_Project/sifive_hifive1_BitNet_MNIST_App/freedom-metal/src/drivers/riscv_cpu.c:85
                     : "=r"(m)
                     : "r"(METAL_LOCAL_INTERRUPT_TMR));
}
2010be26:	0001                	nop
2010be28:	4472                	lw	s0,28(sp)
2010be2a:	6105                	add	sp,sp,32
2010be2c:	8082                	ret

2010be2e <__metal_interrupt_external_enable>:
__metal_interrupt_external_enable():
C:/VSD_Sqd_Project/sifive_hifive1_BitNet_MNIST_App/freedom-metal/src/drivers/riscv_cpu.c:87

void __metal_interrupt_external_enable(void) {
2010be2e:	1101                	add	sp,sp,-32
2010be30:	ce22                	sw	s0,28(sp)
2010be32:	1000                	add	s0,sp,32
C:/VSD_Sqd_Project/sifive_hifive1_BitNet_MNIST_App/freedom-metal/src/drivers/riscv_cpu.c:89
    uintptr_t m;
    __asm__ volatile("csrrs %0, mie, %1"
2010be34:	6785                	lui	a5,0x1
2010be36:	80078793          	add	a5,a5,-2048 # 800 <__heap_size>
2010be3a:	3047a7f3          	csrrs	a5,mie,a5
2010be3e:	fef42623          	sw	a5,-20(s0)
C:/VSD_Sqd_Project/sifive_hifive1_BitNet_MNIST_App/freedom-metal/src/drivers/riscv_cpu.c:92
                     : "=r"(m)
                     : "r"(METAL_LOCAL_INTERRUPT_EXT));
}
2010be42:	0001                	nop
2010be44:	4472                	lw	s0,28(sp)
2010be46:	6105                	add	sp,sp,32
2010be48:	8082                	ret

2010be4a <__metal_interrupt_external_disable>:
__metal_interrupt_external_disable():
C:/VSD_Sqd_Project/sifive_hifive1_BitNet_MNIST_App/freedom-metal/src/drivers/riscv_cpu.c:94

void __metal_interrupt_external_disable(void) {
2010be4a:	1101                	add	sp,sp,-32
2010be4c:	ce22                	sw	s0,28(sp)
2010be4e:	1000                	add	s0,sp,32
C:/VSD_Sqd_Project/sifive_hifive1_BitNet_MNIST_App/freedom-metal/src/drivers/riscv_cpu.c:96
    unsigned long m;
    __asm__ volatile("csrrc %0, mie, %1"
2010be50:	6785                	lui	a5,0x1
2010be52:	80078793          	add	a5,a5,-2048 # 800 <__heap_size>
2010be56:	3047b7f3          	csrrc	a5,mie,a5
2010be5a:	fef42623          	sw	a5,-20(s0)
C:/VSD_Sqd_Project/sifive_hifive1_BitNet_MNIST_App/freedom-metal/src/drivers/riscv_cpu.c:99
                     : "=r"(m)
                     : "r"(METAL_LOCAL_INTERRUPT_EXT));
}
2010be5e:	0001                	nop
2010be60:	4472                	lw	s0,28(sp)
2010be62:	6105                	add	sp,sp,32
2010be64:	8082                	ret

2010be66 <__metal_interrupt_local_enable>:
__metal_interrupt_local_enable():
C:/VSD_Sqd_Project/sifive_hifive1_BitNet_MNIST_App/freedom-metal/src/drivers/riscv_cpu.c:101

void __metal_interrupt_local_enable(int id) {
2010be66:	7179                	add	sp,sp,-48
2010be68:	d622                	sw	s0,44(sp)
2010be6a:	1800                	add	s0,sp,48
2010be6c:	fca42e23          	sw	a0,-36(s0)
C:/VSD_Sqd_Project/sifive_hifive1_BitNet_MNIST_App/freedom-metal/src/drivers/riscv_cpu.c:102
    uintptr_t b = 1 << id;
2010be70:	fdc42783          	lw	a5,-36(s0)
2010be74:	4705                	li	a4,1
2010be76:	00f717b3          	sll	a5,a4,a5
2010be7a:	fef42623          	sw	a5,-20(s0)
C:/VSD_Sqd_Project/sifive_hifive1_BitNet_MNIST_App/freedom-metal/src/drivers/riscv_cpu.c:104
    uintptr_t m;
    __asm__ volatile("csrrs %0, mie, %1" : "=r"(m) : "r"(b));
2010be7e:	fec42783          	lw	a5,-20(s0)
2010be82:	3047a7f3          	csrrs	a5,mie,a5
2010be86:	fef42423          	sw	a5,-24(s0)
C:/VSD_Sqd_Project/sifive_hifive1_BitNet_MNIST_App/freedom-metal/src/drivers/riscv_cpu.c:105
}
2010be8a:	0001                	nop
2010be8c:	5432                	lw	s0,44(sp)
2010be8e:	6145                	add	sp,sp,48
2010be90:	8082                	ret

2010be92 <__metal_interrupt_local_disable>:
__metal_interrupt_local_disable():
C:/VSD_Sqd_Project/sifive_hifive1_BitNet_MNIST_App/freedom-metal/src/drivers/riscv_cpu.c:107

void __metal_interrupt_local_disable(int id) {
2010be92:	7179                	add	sp,sp,-48
2010be94:	d622                	sw	s0,44(sp)
2010be96:	1800                	add	s0,sp,48
2010be98:	fca42e23          	sw	a0,-36(s0)
C:/VSD_Sqd_Project/sifive_hifive1_BitNet_MNIST_App/freedom-metal/src/drivers/riscv_cpu.c:108
    uintptr_t b = 1 << id;
2010be9c:	fdc42783          	lw	a5,-36(s0)
2010bea0:	4705                	li	a4,1
2010bea2:	00f717b3          	sll	a5,a4,a5
2010bea6:	fef42623          	sw	a5,-20(s0)
C:/VSD_Sqd_Project/sifive_hifive1_BitNet_MNIST_App/freedom-metal/src/drivers/riscv_cpu.c:110
    uintptr_t m;
    __asm__ volatile("csrrc %0, mie, %1" : "=r"(m) : "r"(b));
2010beaa:	fec42783          	lw	a5,-20(s0)
2010beae:	3047b7f3          	csrrc	a5,mie,a5
2010beb2:	fef42423          	sw	a5,-24(s0)
C:/VSD_Sqd_Project/sifive_hifive1_BitNet_MNIST_App/freedom-metal/src/drivers/riscv_cpu.c:111
}
2010beb6:	0001                	nop
2010beb8:	5432                	lw	s0,44(sp)
2010beba:	6145                	add	sp,sp,48
2010bebc:	8082                	ret

2010bebe <__metal_default_exception_handler>:
__metal_default_exception_handler():
C:/VSD_Sqd_Project/sifive_hifive1_BitNet_MNIST_App/freedom-metal/src/drivers/riscv_cpu.c:113

void __metal_default_exception_handler(struct metal_cpu *cpu, int ecode) {
2010bebe:	1101                	add	sp,sp,-32
2010bec0:	ce06                	sw	ra,28(sp)
2010bec2:	cc22                	sw	s0,24(sp)
2010bec4:	1000                	add	s0,sp,32
2010bec6:	fea42623          	sw	a0,-20(s0)
2010beca:	feb42423          	sw	a1,-24(s0)
C:/VSD_Sqd_Project/sifive_hifive1_BitNet_MNIST_App/freedom-metal/src/drivers/riscv_cpu.c:114
    metal_shutdown(100);
2010bece:	06400513          	li	a0,100
2010bed2:	35b030ef          	jal	2010fa2c <metal_shutdown>

2010bed6 <__metal_default_interrupt_handler>:
__metal_default_interrupt_handler():
C:/VSD_Sqd_Project/sifive_hifive1_BitNet_MNIST_App/freedom-metal/src/drivers/riscv_cpu.c:117
}

void __metal_default_interrupt_handler(int id, void *priv) {
2010bed6:	1101                	add	sp,sp,-32
2010bed8:	ce06                	sw	ra,28(sp)
2010beda:	cc22                	sw	s0,24(sp)
2010bedc:	1000                	add	s0,sp,32
2010bede:	fea42623          	sw	a0,-20(s0)
2010bee2:	feb42423          	sw	a1,-24(s0)
C:/VSD_Sqd_Project/sifive_hifive1_BitNet_MNIST_App/freedom-metal/src/drivers/riscv_cpu.c:118
    metal_shutdown(200);
2010bee6:	0c800513          	li	a0,200
2010beea:	343030ef          	jal	2010fa2c <metal_shutdown>

2010beee <metal_interrupt_vector_handler>:
metal_interrupt_vector_handler():
C:/VSD_Sqd_Project/sifive_hifive1_BitNet_MNIST_App/freedom-metal/src/drivers/riscv_cpu.c:122
}

/* The metal_interrupt_vector_handler() function can be redefined. */
void __attribute__((weak, interrupt)) metal_interrupt_vector_handler(void) {
2010beee:	715d                	add	sp,sp,-80
2010bef0:	c686                	sw	ra,76(sp)
2010bef2:	c496                	sw	t0,72(sp)
2010bef4:	c29a                	sw	t1,68(sp)
2010bef6:	c09e                	sw	t2,64(sp)
2010bef8:	de22                	sw	s0,60(sp)
2010befa:	dc2a                	sw	a0,56(sp)
2010befc:	da2e                	sw	a1,52(sp)
2010befe:	d832                	sw	a2,48(sp)
2010bf00:	d636                	sw	a3,44(sp)
2010bf02:	d43a                	sw	a4,40(sp)
2010bf04:	d23e                	sw	a5,36(sp)
2010bf06:	d042                	sw	a6,32(sp)
2010bf08:	ce46                	sw	a7,28(sp)
2010bf0a:	cc72                	sw	t3,24(sp)
2010bf0c:	ca76                	sw	t4,20(sp)
2010bf0e:	c87a                	sw	t5,16(sp)
2010bf10:	c67e                	sw	t6,12(sp)
2010bf12:	0880                	add	s0,sp,80
C:/VSD_Sqd_Project/sifive_hifive1_BitNet_MNIST_App/freedom-metal/src/drivers/riscv_cpu.c:123
    metal_shutdown(300);
2010bf14:	12c00513          	li	a0,300
2010bf18:	315030ef          	jal	2010fa2c <metal_shutdown>

2010bf1c <metal_software_interrupt_vector_handler>:
metal_software_interrupt_vector_handler():
C:/VSD_Sqd_Project/sifive_hifive1_BitNet_MNIST_App/freedom-metal/src/drivers/riscv_cpu.c:128
}

/* The metal_software_interrupt_vector_handler() function can be redefined. */
void __attribute__((weak, interrupt))
metal_software_interrupt_vector_handler(void) {
2010bf1c:	711d                	add	sp,sp,-96
2010bf1e:	ce86                	sw	ra,92(sp)
2010bf20:	cc96                	sw	t0,88(sp)
2010bf22:	ca9a                	sw	t1,84(sp)
2010bf24:	c89e                	sw	t2,80(sp)
2010bf26:	c6a2                	sw	s0,76(sp)
2010bf28:	c4aa                	sw	a0,72(sp)
2010bf2a:	c2ae                	sw	a1,68(sp)
2010bf2c:	c0b2                	sw	a2,64(sp)
2010bf2e:	de36                	sw	a3,60(sp)
2010bf30:	dc3a                	sw	a4,56(sp)
2010bf32:	da3e                	sw	a5,52(sp)
2010bf34:	d842                	sw	a6,48(sp)
2010bf36:	d646                	sw	a7,44(sp)
2010bf38:	d472                	sw	t3,40(sp)
2010bf3a:	d276                	sw	t4,36(sp)
2010bf3c:	d07a                	sw	t5,32(sp)
2010bf3e:	ce7e                	sw	t6,28(sp)
2010bf40:	1080                	add	s0,sp,96
C:/VSD_Sqd_Project/sifive_hifive1_BitNet_MNIST_App/freedom-metal/src/drivers/riscv_cpu.c:129
    __METAL_IRQ_VECTOR_HANDLER(METAL_INTERRUPT_ID_SW);
2010bf42:	3d3d                	jal	2010bd80 <__metal_myhart_id>
2010bf44:	872a                	mv	a4,a0
C:/VSD_Sqd_Project/sifive_hifive1_BitNet_MNIST_App/freedom-metal/src/drivers/riscv_cpu.c:129 (discriminator 1)
2010bf46:	800017b7          	lui	a5,0x80001
2010bf4a:	070a                	sll	a4,a4,0x2
2010bf4c:	a7878793          	add	a5,a5,-1416 # 80000a78 <__metal_cpu_table>
2010bf50:	97ba                	add	a5,a5,a4
2010bf52:	439c                	lw	a5,0(a5)
2010bf54:	faf42623          	sw	a5,-84(s0)
2010bf58:	fac42783          	lw	a5,-84(s0)
2010bf5c:	c785                	beqz	a5,2010bf84 <metal_software_interrupt_vector_handler+0x68>
2010bf5e:	fac42503          	lw	a0,-84(s0)
2010bf62:	3345                	jal	2010bd02 <__metal_driver_cpu_interrupt_controller>
2010bf64:	faa42423          	sw	a0,-88(s0)
2010bf68:	fa842783          	lw	a5,-88(s0)
2010bf6c:	0e07a783          	lw	a5,224(a5)
2010bf70:	faf42223          	sw	a5,-92(s0)
2010bf74:	fa842783          	lw	a5,-88(s0)
2010bf78:	0d87a783          	lw	a5,216(a5)
2010bf7c:	fa442583          	lw	a1,-92(s0)
2010bf80:	450d                	li	a0,3
2010bf82:	9782                	jalr	a5
C:/VSD_Sqd_Project/sifive_hifive1_BitNet_MNIST_App/freedom-metal/src/drivers/riscv_cpu.c:130
}
2010bf84:	0001                	nop
2010bf86:	40f6                	lw	ra,92(sp)
2010bf88:	42e6                	lw	t0,88(sp)
2010bf8a:	4356                	lw	t1,84(sp)
2010bf8c:	43c6                	lw	t2,80(sp)
2010bf8e:	4436                	lw	s0,76(sp)
2010bf90:	4526                	lw	a0,72(sp)
2010bf92:	4596                	lw	a1,68(sp)
2010bf94:	4606                	lw	a2,64(sp)
2010bf96:	56f2                	lw	a3,60(sp)
2010bf98:	5762                	lw	a4,56(sp)
2010bf9a:	57d2                	lw	a5,52(sp)
2010bf9c:	5842                	lw	a6,48(sp)
2010bf9e:	58b2                	lw	a7,44(sp)
2010bfa0:	5e22                	lw	t3,40(sp)
2010bfa2:	5e92                	lw	t4,36(sp)
2010bfa4:	5f02                	lw	t5,32(sp)
2010bfa6:	4ff2                	lw	t6,28(sp)
2010bfa8:	6125                	add	sp,sp,96
2010bfaa:	30200073          	mret

2010bfae <__metal_default_sw_handler>:
__metal_default_sw_handler():
C:/VSD_Sqd_Project/sifive_hifive1_BitNet_MNIST_App/freedom-metal/src/drivers/riscv_cpu.c:132

void __metal_default_sw_handler(int id, void *priv) {
2010bfae:	7179                	add	sp,sp,-48
2010bfb0:	d606                	sw	ra,44(sp)
2010bfb2:	d422                	sw	s0,40(sp)
2010bfb4:	1800                	add	s0,sp,48
2010bfb6:	fca42e23          	sw	a0,-36(s0)
2010bfba:	fcb42c23          	sw	a1,-40(s0)
C:/VSD_Sqd_Project/sifive_hifive1_BitNet_MNIST_App/freedom-metal/src/drivers/riscv_cpu.c:135
    uintptr_t mcause;
    struct __metal_driver_riscv_cpu_intc *intc;
    struct __metal_driver_cpu *cpu = __metal_cpu_table[__metal_myhart_id()];
2010bfbe:	33c9                	jal	2010bd80 <__metal_myhart_id>
2010bfc0:	872a                	mv	a4,a0
C:/VSD_Sqd_Project/sifive_hifive1_BitNet_MNIST_App/freedom-metal/src/drivers/riscv_cpu.c:135 (discriminator 1)
2010bfc2:	800017b7          	lui	a5,0x80001
2010bfc6:	070a                	sll	a4,a4,0x2
2010bfc8:	a7878793          	add	a5,a5,-1416 # 80000a78 <__metal_cpu_table>
2010bfcc:	97ba                	add	a5,a5,a4
2010bfce:	439c                	lw	a5,0(a5)
2010bfd0:	fef42623          	sw	a5,-20(s0)
C:/VSD_Sqd_Project/sifive_hifive1_BitNet_MNIST_App/freedom-metal/src/drivers/riscv_cpu.c:137

    __asm__ volatile("csrr %0, mcause" : "=r"(mcause));
2010bfd4:	342027f3          	csrr	a5,mcause
2010bfd8:	fef42423          	sw	a5,-24(s0)
C:/VSD_Sqd_Project/sifive_hifive1_BitNet_MNIST_App/freedom-metal/src/drivers/riscv_cpu.c:138
    if (cpu) {
2010bfdc:	fec42783          	lw	a5,-20(s0)
2010bfe0:	c795                	beqz	a5,2010c00c <__metal_default_sw_handler+0x5e>
C:/VSD_Sqd_Project/sifive_hifive1_BitNet_MNIST_App/freedom-metal/src/drivers/riscv_cpu.c:140
        intc = (struct __metal_driver_riscv_cpu_intc *)
            __metal_driver_cpu_interrupt_controller((struct metal_cpu *)cpu);
2010bfe2:	fec42503          	lw	a0,-20(s0)
2010bfe6:	3b31                	jal	2010bd02 <__metal_driver_cpu_interrupt_controller>
2010bfe8:	fea42223          	sw	a0,-28(s0)
C:/VSD_Sqd_Project/sifive_hifive1_BitNet_MNIST_App/freedom-metal/src/drivers/riscv_cpu.c:141
        intc->metal_exception_table[mcause & METAL_MCAUSE_CAUSE](
2010bfec:	fe842783          	lw	a5,-24(s0)
2010bff0:	3ff7f793          	and	a5,a5,1023
2010bff4:	fe442703          	lw	a4,-28(s0)
2010bff8:	0e878793          	add	a5,a5,232
2010bffc:	078a                	sll	a5,a5,0x2
2010bffe:	97ba                	add	a5,a5,a4
2010c000:	439c                	lw	a5,0(a5)
2010c002:	fdc42583          	lw	a1,-36(s0)
2010c006:	fec42503          	lw	a0,-20(s0)
2010c00a:	9782                	jalr	a5
C:/VSD_Sqd_Project/sifive_hifive1_BitNet_MNIST_App/freedom-metal/src/drivers/riscv_cpu.c:144
            (struct metal_cpu *)cpu, id);
    }
}
2010c00c:	0001                	nop
2010c00e:	50b2                	lw	ra,44(sp)
2010c010:	5422                	lw	s0,40(sp)
2010c012:	6145                	add	sp,sp,48
2010c014:	8082                	ret

2010c016 <metal_timer_interrupt_vector_handler>:
metal_timer_interrupt_vector_handler():
C:/VSD_Sqd_Project/sifive_hifive1_BitNet_MNIST_App/freedom-metal/src/drivers/riscv_cpu.c:148

/* The metal_timer_interrupt_vector_handler() function can be redefined. */
void __attribute__((weak, interrupt))
metal_timer_interrupt_vector_handler(void) {
2010c016:	711d                	add	sp,sp,-96
2010c018:	ce86                	sw	ra,92(sp)
2010c01a:	cc96                	sw	t0,88(sp)
2010c01c:	ca9a                	sw	t1,84(sp)
2010c01e:	c89e                	sw	t2,80(sp)
2010c020:	c6a2                	sw	s0,76(sp)
2010c022:	c4aa                	sw	a0,72(sp)
2010c024:	c2ae                	sw	a1,68(sp)
2010c026:	c0b2                	sw	a2,64(sp)
2010c028:	de36                	sw	a3,60(sp)
2010c02a:	dc3a                	sw	a4,56(sp)
2010c02c:	da3e                	sw	a5,52(sp)
2010c02e:	d842                	sw	a6,48(sp)
2010c030:	d646                	sw	a7,44(sp)
2010c032:	d472                	sw	t3,40(sp)
2010c034:	d276                	sw	t4,36(sp)
2010c036:	d07a                	sw	t5,32(sp)
2010c038:	ce7e                	sw	t6,28(sp)
2010c03a:	1080                	add	s0,sp,96
C:/VSD_Sqd_Project/sifive_hifive1_BitNet_MNIST_App/freedom-metal/src/drivers/riscv_cpu.c:149
    __METAL_IRQ_VECTOR_HANDLER(METAL_INTERRUPT_ID_TMR);
2010c03c:	3391                	jal	2010bd80 <__metal_myhart_id>
2010c03e:	872a                	mv	a4,a0
C:/VSD_Sqd_Project/sifive_hifive1_BitNet_MNIST_App/freedom-metal/src/drivers/riscv_cpu.c:149 (discriminator 1)
2010c040:	800017b7          	lui	a5,0x80001
2010c044:	070a                	sll	a4,a4,0x2
2010c046:	a7878793          	add	a5,a5,-1416 # 80000a78 <__metal_cpu_table>
2010c04a:	97ba                	add	a5,a5,a4
2010c04c:	439c                	lw	a5,0(a5)
2010c04e:	faf42623          	sw	a5,-84(s0)
2010c052:	fac42783          	lw	a5,-84(s0)
2010c056:	c785                	beqz	a5,2010c07e <metal_timer_interrupt_vector_handler+0x68>
2010c058:	fac42503          	lw	a0,-84(s0)
2010c05c:	315d                	jal	2010bd02 <__metal_driver_cpu_interrupt_controller>
2010c05e:	faa42423          	sw	a0,-88(s0)
2010c062:	fa842783          	lw	a5,-88(s0)
2010c066:	1407a783          	lw	a5,320(a5)
2010c06a:	faf42223          	sw	a5,-92(s0)
2010c06e:	fa842783          	lw	a5,-88(s0)
2010c072:	1387a783          	lw	a5,312(a5)
2010c076:	fa442583          	lw	a1,-92(s0)
2010c07a:	451d                	li	a0,7
2010c07c:	9782                	jalr	a5
C:/VSD_Sqd_Project/sifive_hifive1_BitNet_MNIST_App/freedom-metal/src/drivers/riscv_cpu.c:150
}
2010c07e:	0001                	nop
2010c080:	40f6                	lw	ra,92(sp)
2010c082:	42e6                	lw	t0,88(sp)
2010c084:	4356                	lw	t1,84(sp)
2010c086:	43c6                	lw	t2,80(sp)
2010c088:	4436                	lw	s0,76(sp)
2010c08a:	4526                	lw	a0,72(sp)
2010c08c:	4596                	lw	a1,68(sp)
2010c08e:	4606                	lw	a2,64(sp)
2010c090:	56f2                	lw	a3,60(sp)
2010c092:	5762                	lw	a4,56(sp)
2010c094:	57d2                	lw	a5,52(sp)
2010c096:	5842                	lw	a6,48(sp)
2010c098:	58b2                	lw	a7,44(sp)
2010c09a:	5e22                	lw	t3,40(sp)
2010c09c:	5e92                	lw	t4,36(sp)
2010c09e:	5f02                	lw	t5,32(sp)
2010c0a0:	4ff2                	lw	t6,28(sp)
2010c0a2:	6125                	add	sp,sp,96
2010c0a4:	30200073          	mret

2010c0a8 <__metal_default_beu_handler>:
__metal_default_beu_handler():
C:/VSD_Sqd_Project/sifive_hifive1_BitNet_MNIST_App/freedom-metal/src/drivers/riscv_cpu.c:152

void __metal_default_beu_handler(int id, void *priv) {}
2010c0a8:	1101                	add	sp,sp,-32
2010c0aa:	ce22                	sw	s0,28(sp)
2010c0ac:	1000                	add	s0,sp,32
2010c0ae:	fea42623          	sw	a0,-20(s0)
2010c0b2:	feb42423          	sw	a1,-24(s0)
2010c0b6:	0001                	nop
2010c0b8:	4472                	lw	s0,28(sp)
2010c0ba:	6105                	add	sp,sp,32
2010c0bc:	8082                	ret

2010c0be <__metal_default_timer_handler>:
__metal_default_timer_handler():
C:/VSD_Sqd_Project/sifive_hifive1_BitNet_MNIST_App/freedom-metal/src/drivers/riscv_cpu.c:154

void __metal_default_timer_handler(int id, void *priv) {
2010c0be:	7179                	add	sp,sp,-48
2010c0c0:	d606                	sw	ra,44(sp)
2010c0c2:	d422                	sw	s0,40(sp)
2010c0c4:	1800                	add	s0,sp,48
2010c0c6:	fca42e23          	sw	a0,-36(s0)
2010c0ca:	fcb42c23          	sw	a1,-40(s0)
C:/VSD_Sqd_Project/sifive_hifive1_BitNet_MNIST_App/freedom-metal/src/drivers/riscv_cpu.c:155
    struct metal_cpu *cpu = __metal_driver_cpu_get(__metal_myhart_id());
2010c0ce:	394d                	jal	2010bd80 <__metal_myhart_id>
2010c0d0:	87aa                	mv	a5,a0
C:/VSD_Sqd_Project/sifive_hifive1_BitNet_MNIST_App/freedom-metal/src/drivers/riscv_cpu.c:155 (discriminator 1)
2010c0d2:	853e                	mv	a0,a5
2010c0d4:	39b5                	jal	2010bd50 <__metal_driver_cpu_get>
2010c0d6:	fea42623          	sw	a0,-20(s0)
C:/VSD_Sqd_Project/sifive_hifive1_BitNet_MNIST_App/freedom-metal/src/drivers/riscv_cpu.c:156
    unsigned long long time = __metal_driver_cpu_mtime_get(cpu);
2010c0da:	fec42503          	lw	a0,-20(s0)
2010c0de:	2c4010ef          	jal	2010d3a2 <__metal_driver_cpu_mtime_get>
2010c0e2:	fea42023          	sw	a0,-32(s0)
2010c0e6:	feb42223          	sw	a1,-28(s0)
C:/VSD_Sqd_Project/sifive_hifive1_BitNet_MNIST_App/freedom-metal/src/drivers/riscv_cpu.c:159

    /* Set a 10 cycle timer */
    __metal_driver_cpu_mtimecmp_set(cpu, time + 10);
2010c0ea:	fe042703          	lw	a4,-32(s0)
2010c0ee:	fe442783          	lw	a5,-28(s0)
2010c0f2:	4529                	li	a0,10
2010c0f4:	4581                	li	a1,0
2010c0f6:	00a70633          	add	a2,a4,a0
2010c0fa:	8832                	mv	a6,a2
2010c0fc:	00e83833          	sltu	a6,a6,a4
2010c100:	00b786b3          	add	a3,a5,a1
2010c104:	00d807b3          	add	a5,a6,a3
2010c108:	86be                	mv	a3,a5
2010c10a:	8732                	mv	a4,a2
2010c10c:	87b6                	mv	a5,a3
2010c10e:	85ba                	mv	a1,a4
2010c110:	863e                	mv	a2,a5
2010c112:	fec42503          	lw	a0,-20(s0)
2010c116:	2f2010ef          	jal	2010d408 <__metal_driver_cpu_mtimecmp_set>
C:/VSD_Sqd_Project/sifive_hifive1_BitNet_MNIST_App/freedom-metal/src/drivers/riscv_cpu.c:160
}
2010c11a:	0001                	nop
2010c11c:	50b2                	lw	ra,44(sp)
2010c11e:	5422                	lw	s0,40(sp)
2010c120:	6145                	add	sp,sp,48
2010c122:	8082                	ret
	...

2010c180 <__metal_exception_handler>:
__metal_exception_handler():
C:/VSD_Sqd_Project/sifive_hifive1_BitNet_MNIST_App/freedom-metal/src/drivers/riscv_cpu.c:169
metal_external_interrupt_vector_handler(void) {
    __METAL_IRQ_VECTOR_HANDLER(METAL_INTERRUPT_ID_EXT);
}

void __metal_exception_handler(void) __attribute__((interrupt, aligned(128)));
void __metal_exception_handler(void) {
2010c180:	7119                	add	sp,sp,-128
2010c182:	de86                	sw	ra,124(sp)
2010c184:	dc96                	sw	t0,120(sp)
2010c186:	da9a                	sw	t1,116(sp)
2010c188:	d89e                	sw	t2,112(sp)
2010c18a:	d6a2                	sw	s0,108(sp)
2010c18c:	d4aa                	sw	a0,104(sp)
2010c18e:	d2ae                	sw	a1,100(sp)
2010c190:	d0b2                	sw	a2,96(sp)
2010c192:	ceb6                	sw	a3,92(sp)
2010c194:	ccba                	sw	a4,88(sp)
2010c196:	cabe                	sw	a5,84(sp)
2010c198:	c8c2                	sw	a6,80(sp)
2010c19a:	c6c6                	sw	a7,76(sp)
2010c19c:	c4f2                	sw	t3,72(sp)
2010c19e:	c2f6                	sw	t4,68(sp)
2010c1a0:	c0fa                	sw	t5,64(sp)
2010c1a2:	de7e                	sw	t6,60(sp)
2010c1a4:	0100                	add	s0,sp,128
C:/VSD_Sqd_Project/sifive_hifive1_BitNet_MNIST_App/freedom-metal/src/drivers/riscv_cpu.c:174
    int id;
    void *priv;
    uintptr_t mcause, mepc, mtval, mtvec;
    struct __metal_driver_riscv_cpu_intc *intc;
    struct __metal_driver_cpu *cpu = __metal_cpu_table[__metal_myhart_id()];
2010c1a6:	bdbff0ef          	jal	2010bd80 <__metal_myhart_id>
2010c1aa:	872a                	mv	a4,a0
C:/VSD_Sqd_Project/sifive_hifive1_BitNet_MNIST_App/freedom-metal/src/drivers/riscv_cpu.c:174 (discriminator 1)
2010c1ac:	800017b7          	lui	a5,0x80001
2010c1b0:	070a                	sll	a4,a4,0x2
2010c1b2:	a7878793          	add	a5,a5,-1416 # 80000a78 <__metal_cpu_table>
2010c1b6:	97ba                	add	a5,a5,a4
2010c1b8:	439c                	lw	a5,0(a5)
2010c1ba:	faf42623          	sw	a5,-84(s0)
C:/VSD_Sqd_Project/sifive_hifive1_BitNet_MNIST_App/freedom-metal/src/drivers/riscv_cpu.c:176

    __asm__ volatile("csrr %0, mcause" : "=r"(mcause));
2010c1be:	342027f3          	csrr	a5,mcause
2010c1c2:	faf42423          	sw	a5,-88(s0)
C:/VSD_Sqd_Project/sifive_hifive1_BitNet_MNIST_App/freedom-metal/src/drivers/riscv_cpu.c:177
    __asm__ volatile("csrr %0, mepc" : "=r"(mepc));
2010c1c6:	341027f3          	csrr	a5,mepc
2010c1ca:	faf42223          	sw	a5,-92(s0)
C:/VSD_Sqd_Project/sifive_hifive1_BitNet_MNIST_App/freedom-metal/src/drivers/riscv_cpu.c:178
    __asm__ volatile("csrr %0, mtval" : "=r"(mtval));
2010c1ce:	343027f3          	csrr	a5,mtval
2010c1d2:	faf42023          	sw	a5,-96(s0)
C:/VSD_Sqd_Project/sifive_hifive1_BitNet_MNIST_App/freedom-metal/src/drivers/riscv_cpu.c:179
    __asm__ volatile("csrr %0, mtvec" : "=r"(mtvec));
2010c1d6:	305027f3          	csrr	a5,mtvec
2010c1da:	f8f42e23          	sw	a5,-100(s0)
C:/VSD_Sqd_Project/sifive_hifive1_BitNet_MNIST_App/freedom-metal/src/drivers/riscv_cpu.c:181

    if (cpu) {
2010c1de:	fac42783          	lw	a5,-84(s0)
2010c1e2:	cbfd                	beqz	a5,2010c2d8 <__metal_exception_handler+0x158>
C:/VSD_Sqd_Project/sifive_hifive1_BitNet_MNIST_App/freedom-metal/src/drivers/riscv_cpu.c:183
        intc = (struct __metal_driver_riscv_cpu_intc *)
            __metal_driver_cpu_interrupt_controller((struct metal_cpu *)cpu);
2010c1e4:	fac42503          	lw	a0,-84(s0)
2010c1e8:	b1bff0ef          	jal	2010bd02 <__metal_driver_cpu_interrupt_controller>
2010c1ec:	f8a42c23          	sw	a0,-104(s0)
C:/VSD_Sqd_Project/sifive_hifive1_BitNet_MNIST_App/freedom-metal/src/drivers/riscv_cpu.c:184
        id = mcause & METAL_MCAUSE_CAUSE;
2010c1f0:	fa842783          	lw	a5,-88(s0)
2010c1f4:	3ff7f793          	and	a5,a5,1023
2010c1f8:	f8f42a23          	sw	a5,-108(s0)
C:/VSD_Sqd_Project/sifive_hifive1_BitNet_MNIST_App/freedom-metal/src/drivers/riscv_cpu.c:185
        if (mcause & METAL_MCAUSE_INTR) {
2010c1fc:	fa842783          	lw	a5,-88(s0)
2010c200:	0a07de63          	bgez	a5,2010c2bc <__metal_exception_handler+0x13c>
C:/VSD_Sqd_Project/sifive_hifive1_BitNet_MNIST_App/freedom-metal/src/drivers/riscv_cpu.c:186
            if (id == METAL_INTERRUPT_ID_BEU) {
2010c204:	f9442703          	lw	a4,-108(s0)
2010c208:	08000793          	li	a5,128
2010c20c:	02f71263          	bne	a4,a5,2010c230 <__metal_exception_handler+0xb0>
C:/VSD_Sqd_Project/sifive_hifive1_BitNet_MNIST_App/freedom-metal/src/drivers/riscv_cpu.c:187
                priv = intc->metal_int_beu.exint_data;
2010c210:	f9842783          	lw	a5,-104(s0)
2010c214:	3987a783          	lw	a5,920(a5)
2010c218:	f8f42623          	sw	a5,-116(s0)
C:/VSD_Sqd_Project/sifive_hifive1_BitNet_MNIST_App/freedom-metal/src/drivers/riscv_cpu.c:188
                intc->metal_int_beu.handler(id, priv);
2010c21c:	f9842783          	lw	a5,-104(s0)
2010c220:	3907a783          	lw	a5,912(a5)
2010c224:	f8c42583          	lw	a1,-116(s0)
2010c228:	f9442503          	lw	a0,-108(s0)
2010c22c:	9782                	jalr	a5
C:/VSD_Sqd_Project/sifive_hifive1_BitNet_MNIST_App/freedom-metal/src/drivers/riscv_cpu.c:189
                return;
2010c22e:	a06d                	j	2010c2d8 <__metal_exception_handler+0x158>
C:/VSD_Sqd_Project/sifive_hifive1_BitNet_MNIST_App/freedom-metal/src/drivers/riscv_cpu.c:191
            }
            if ((id < METAL_INTERRUPT_ID_CSW) ||
2010c230:	f9442703          	lw	a4,-108(s0)
2010c234:	47ad                	li	a5,11
2010c236:	00e7d763          	bge	a5,a4,2010c244 <__metal_exception_handler+0xc4>
C:/VSD_Sqd_Project/sifive_hifive1_BitNet_MNIST_App/freedom-metal/src/drivers/riscv_cpu.c:192
                ((mtvec & METAL_MTVEC_MASK) == METAL_MTVEC_DIRECT)) {
2010c23a:	f9c42783          	lw	a5,-100(s0)
2010c23e:	03f7f793          	and	a5,a5,63
C:/VSD_Sqd_Project/sifive_hifive1_BitNet_MNIST_App/freedom-metal/src/drivers/riscv_cpu.c:191 (discriminator 1)
            if ((id < METAL_INTERRUPT_ID_CSW) ||
2010c242:	ef9d                	bnez	a5,2010c280 <__metal_exception_handler+0x100>
C:/VSD_Sqd_Project/sifive_hifive1_BitNet_MNIST_App/freedom-metal/src/drivers/riscv_cpu.c:193
                priv = intc->metal_int_table[id].exint_data;
2010c244:	f9842683          	lw	a3,-104(s0)
2010c248:	f9442703          	lw	a4,-108(s0)
2010c24c:	87ba                	mv	a5,a4
2010c24e:	0786                	sll	a5,a5,0x1
2010c250:	97ba                	add	a5,a5,a4
2010c252:	078e                	sll	a5,a5,0x3
2010c254:	97b6                	add	a5,a5,a3
2010c256:	0987a783          	lw	a5,152(a5)
2010c25a:	f8f42623          	sw	a5,-116(s0)
C:/VSD_Sqd_Project/sifive_hifive1_BitNet_MNIST_App/freedom-metal/src/drivers/riscv_cpu.c:194
                intc->metal_int_table[id].handler(id, priv);
2010c25e:	f9842683          	lw	a3,-104(s0)
2010c262:	f9442703          	lw	a4,-108(s0)
2010c266:	87ba                	mv	a5,a4
2010c268:	0786                	sll	a5,a5,0x1
2010c26a:	97ba                	add	a5,a5,a4
2010c26c:	078e                	sll	a5,a5,0x3
2010c26e:	97b6                	add	a5,a5,a3
2010c270:	0907a783          	lw	a5,144(a5)
2010c274:	f8c42583          	lw	a1,-116(s0)
2010c278:	f9442503          	lw	a0,-108(s0)
2010c27c:	9782                	jalr	a5
C:/VSD_Sqd_Project/sifive_hifive1_BitNet_MNIST_App/freedom-metal/src/drivers/riscv_cpu.c:195
                return;
2010c27e:	a8a9                	j	2010c2d8 <__metal_exception_handler+0x158>
C:/VSD_Sqd_Project/sifive_hifive1_BitNet_MNIST_App/freedom-metal/src/drivers/riscv_cpu.c:197
            }
            if ((mtvec & METAL_MTVEC_MASK) == METAL_MTVEC_CLIC) {
2010c280:	f9c42783          	lw	a5,-100(s0)
2010c284:	03f7f713          	and	a4,a5,63
2010c288:	4789                	li	a5,2
2010c28a:	04f71763          	bne	a4,a5,2010c2d8 <__metal_exception_handler+0x158>
C:/VSD_Sqd_Project/sifive_hifive1_BitNet_MNIST_App/freedom-metal/src/drivers/riscv_cpu.c:201
                uintptr_t mtvt;
                metal_interrupt_handler_t mtvt_handler;

                __asm__ volatile("csrr %0, 0x307" : "=r"(mtvt));
2010c28e:	307027f3          	csrr	a5,mtvt
2010c292:	f8f42823          	sw	a5,-112(s0)
C:/VSD_Sqd_Project/sifive_hifive1_BitNet_MNIST_App/freedom-metal/src/drivers/riscv_cpu.c:202
                priv = intc->metal_int_table[METAL_INTERRUPT_ID_SW].sub_int;
2010c296:	f9842783          	lw	a5,-104(s0)
2010c29a:	0dc7a783          	lw	a5,220(a5)
2010c29e:	f8f42623          	sw	a5,-116(s0)
C:/VSD_Sqd_Project/sifive_hifive1_BitNet_MNIST_App/freedom-metal/src/drivers/riscv_cpu.c:203
                mtvt_handler = (metal_interrupt_handler_t) * (uintptr_t *)mtvt;
2010c2a2:	f9042783          	lw	a5,-112(s0)
2010c2a6:	439c                	lw	a5,0(a5)
2010c2a8:	f8f42423          	sw	a5,-120(s0)
C:/VSD_Sqd_Project/sifive_hifive1_BitNet_MNIST_App/freedom-metal/src/drivers/riscv_cpu.c:204
                mtvt_handler(id, priv);
2010c2ac:	f8842783          	lw	a5,-120(s0)
2010c2b0:	f8c42583          	lw	a1,-116(s0)
2010c2b4:	f9442503          	lw	a0,-108(s0)
2010c2b8:	9782                	jalr	a5
C:/VSD_Sqd_Project/sifive_hifive1_BitNet_MNIST_App/freedom-metal/src/drivers/riscv_cpu.c:205
                return;
2010c2ba:	a839                	j	2010c2d8 <__metal_exception_handler+0x158>
C:/VSD_Sqd_Project/sifive_hifive1_BitNet_MNIST_App/freedom-metal/src/drivers/riscv_cpu.c:208
            }
        } else {
            intc->metal_exception_table[id]((struct metal_cpu *)cpu, id);
2010c2bc:	f9842703          	lw	a4,-104(s0)
2010c2c0:	f9442783          	lw	a5,-108(s0)
2010c2c4:	0e878793          	add	a5,a5,232
2010c2c8:	078a                	sll	a5,a5,0x2
2010c2ca:	97ba                	add	a5,a5,a4
2010c2cc:	439c                	lw	a5,0(a5)
2010c2ce:	f9442583          	lw	a1,-108(s0)
2010c2d2:	fac42503          	lw	a0,-84(s0)
2010c2d6:	9782                	jalr	a5
C:/VSD_Sqd_Project/sifive_hifive1_BitNet_MNIST_App/freedom-metal/src/drivers/riscv_cpu.c:211
        }
    }
}
2010c2d8:	50f6                	lw	ra,124(sp)
2010c2da:	52e6                	lw	t0,120(sp)
2010c2dc:	5356                	lw	t1,116(sp)
2010c2de:	53c6                	lw	t2,112(sp)
2010c2e0:	5436                	lw	s0,108(sp)
2010c2e2:	5526                	lw	a0,104(sp)
2010c2e4:	5596                	lw	a1,100(sp)
2010c2e6:	5606                	lw	a2,96(sp)
2010c2e8:	46f6                	lw	a3,92(sp)
2010c2ea:	4766                	lw	a4,88(sp)
2010c2ec:	47d6                	lw	a5,84(sp)
2010c2ee:	4846                	lw	a6,80(sp)
2010c2f0:	48b6                	lw	a7,76(sp)
2010c2f2:	4e26                	lw	t3,72(sp)
2010c2f4:	4e96                	lw	t4,68(sp)
2010c2f6:	4f06                	lw	t5,64(sp)
2010c2f8:	5ff2                	lw	t6,60(sp)
2010c2fa:	6109                	add	sp,sp,128
2010c2fc:	30200073          	mret
	...

2010c37a <metal_lc0_interrupt_vector_handler>:
metal_lc0_interrupt_vector_handler():
C:/VSD_Sqd_Project/sifive_hifive1_BitNet_MNIST_App/freedom-metal/src/drivers/riscv_cpu.c:214

/* The metal_lc0_interrupt_vector_handler() function can be redefined. */
void __attribute__((weak, interrupt)) metal_lc0_interrupt_vector_handler(void) {
2010c37a:	711d                	add	sp,sp,-96
2010c37c:	ce86                	sw	ra,92(sp)
2010c37e:	cc96                	sw	t0,88(sp)
2010c380:	ca9a                	sw	t1,84(sp)
2010c382:	c89e                	sw	t2,80(sp)
2010c384:	c6a2                	sw	s0,76(sp)
2010c386:	c4aa                	sw	a0,72(sp)
2010c388:	c2ae                	sw	a1,68(sp)
2010c38a:	c0b2                	sw	a2,64(sp)
2010c38c:	de36                	sw	a3,60(sp)
2010c38e:	dc3a                	sw	a4,56(sp)
2010c390:	da3e                	sw	a5,52(sp)
2010c392:	d842                	sw	a6,48(sp)
2010c394:	d646                	sw	a7,44(sp)
2010c396:	d472                	sw	t3,40(sp)
2010c398:	d276                	sw	t4,36(sp)
2010c39a:	d07a                	sw	t5,32(sp)
2010c39c:	ce7e                	sw	t6,28(sp)
2010c39e:	1080                	add	s0,sp,96
C:/VSD_Sqd_Project/sifive_hifive1_BitNet_MNIST_App/freedom-metal/src/drivers/riscv_cpu.c:215
    __METAL_IRQ_VECTOR_HANDLER(METAL_INTERRUPT_ID_LC0);
2010c3a0:	9e1ff0ef          	jal	2010bd80 <__metal_myhart_id>
2010c3a4:	872a                	mv	a4,a0
C:/VSD_Sqd_Project/sifive_hifive1_BitNet_MNIST_App/freedom-metal/src/drivers/riscv_cpu.c:215 (discriminator 1)
2010c3a6:	800017b7          	lui	a5,0x80001
2010c3aa:	070a                	sll	a4,a4,0x2
2010c3ac:	a7878793          	add	a5,a5,-1416 # 80000a78 <__metal_cpu_table>
2010c3b0:	97ba                	add	a5,a5,a4
2010c3b2:	439c                	lw	a5,0(a5)
2010c3b4:	faf42623          	sw	a5,-84(s0)
2010c3b8:	fac42783          	lw	a5,-84(s0)
2010c3bc:	c78d                	beqz	a5,2010c3e6 <metal_lc0_interrupt_vector_handler+0x6c>
2010c3be:	fac42503          	lw	a0,-84(s0)
2010c3c2:	941ff0ef          	jal	2010bd02 <__metal_driver_cpu_interrupt_controller>
2010c3c6:	faa42423          	sw	a0,-88(s0)
2010c3ca:	fa842783          	lw	a5,-88(s0)
2010c3ce:	2187a783          	lw	a5,536(a5)
2010c3d2:	faf42223          	sw	a5,-92(s0)
2010c3d6:	fa842783          	lw	a5,-88(s0)
2010c3da:	2107a783          	lw	a5,528(a5)
2010c3de:	fa442583          	lw	a1,-92(s0)
2010c3e2:	4541                	li	a0,16
2010c3e4:	9782                	jalr	a5
C:/VSD_Sqd_Project/sifive_hifive1_BitNet_MNIST_App/freedom-metal/src/drivers/riscv_cpu.c:216
}
2010c3e6:	0001                	nop
2010c3e8:	40f6                	lw	ra,92(sp)
2010c3ea:	42e6                	lw	t0,88(sp)
2010c3ec:	4356                	lw	t1,84(sp)
2010c3ee:	43c6                	lw	t2,80(sp)
2010c3f0:	4436                	lw	s0,76(sp)
2010c3f2:	4526                	lw	a0,72(sp)
2010c3f4:	4596                	lw	a1,68(sp)
2010c3f6:	4606                	lw	a2,64(sp)
2010c3f8:	56f2                	lw	a3,60(sp)
2010c3fa:	5762                	lw	a4,56(sp)
2010c3fc:	57d2                	lw	a5,52(sp)
2010c3fe:	5842                	lw	a6,48(sp)
2010c400:	58b2                	lw	a7,44(sp)
2010c402:	5e22                	lw	t3,40(sp)
2010c404:	5e92                	lw	t4,36(sp)
2010c406:	5f02                	lw	t5,32(sp)
2010c408:	4ff2                	lw	t6,28(sp)
2010c40a:	6125                	add	sp,sp,96
2010c40c:	30200073          	mret

2010c410 <metal_lc1_interrupt_vector_handler>:
metal_lc1_interrupt_vector_handler():
C:/VSD_Sqd_Project/sifive_hifive1_BitNet_MNIST_App/freedom-metal/src/drivers/riscv_cpu.c:219

/* The metal_lc1_interrupt_vector_handler() function can be redefined. */
void __attribute__((weak, interrupt)) metal_lc1_interrupt_vector_handler(void) {
2010c410:	711d                	add	sp,sp,-96
2010c412:	ce86                	sw	ra,92(sp)
2010c414:	cc96                	sw	t0,88(sp)
2010c416:	ca9a                	sw	t1,84(sp)
2010c418:	c89e                	sw	t2,80(sp)
2010c41a:	c6a2                	sw	s0,76(sp)
2010c41c:	c4aa                	sw	a0,72(sp)
2010c41e:	c2ae                	sw	a1,68(sp)
2010c420:	c0b2                	sw	a2,64(sp)
2010c422:	de36                	sw	a3,60(sp)
2010c424:	dc3a                	sw	a4,56(sp)
2010c426:	da3e                	sw	a5,52(sp)
2010c428:	d842                	sw	a6,48(sp)
2010c42a:	d646                	sw	a7,44(sp)
2010c42c:	d472                	sw	t3,40(sp)
2010c42e:	d276                	sw	t4,36(sp)
2010c430:	d07a                	sw	t5,32(sp)
2010c432:	ce7e                	sw	t6,28(sp)
2010c434:	1080                	add	s0,sp,96
C:/VSD_Sqd_Project/sifive_hifive1_BitNet_MNIST_App/freedom-metal/src/drivers/riscv_cpu.c:220
    __METAL_IRQ_VECTOR_HANDLER(METAL_INTERRUPT_ID_LC1);
2010c436:	94bff0ef          	jal	2010bd80 <__metal_myhart_id>
2010c43a:	872a                	mv	a4,a0
C:/VSD_Sqd_Project/sifive_hifive1_BitNet_MNIST_App/freedom-metal/src/drivers/riscv_cpu.c:220 (discriminator 1)
2010c43c:	800017b7          	lui	a5,0x80001
2010c440:	070a                	sll	a4,a4,0x2
2010c442:	a7878793          	add	a5,a5,-1416 # 80000a78 <__metal_cpu_table>
2010c446:	97ba                	add	a5,a5,a4
2010c448:	439c                	lw	a5,0(a5)
2010c44a:	faf42623          	sw	a5,-84(s0)
2010c44e:	fac42783          	lw	a5,-84(s0)
2010c452:	c78d                	beqz	a5,2010c47c <metal_lc1_interrupt_vector_handler+0x6c>
2010c454:	fac42503          	lw	a0,-84(s0)
2010c458:	8abff0ef          	jal	2010bd02 <__metal_driver_cpu_interrupt_controller>
2010c45c:	faa42423          	sw	a0,-88(s0)
2010c460:	fa842783          	lw	a5,-88(s0)
2010c464:	2307a783          	lw	a5,560(a5)
2010c468:	faf42223          	sw	a5,-92(s0)
2010c46c:	fa842783          	lw	a5,-88(s0)
2010c470:	2287a783          	lw	a5,552(a5)
2010c474:	fa442583          	lw	a1,-92(s0)
2010c478:	4545                	li	a0,17
2010c47a:	9782                	jalr	a5
C:/VSD_Sqd_Project/sifive_hifive1_BitNet_MNIST_App/freedom-metal/src/drivers/riscv_cpu.c:221
}
2010c47c:	0001                	nop
2010c47e:	40f6                	lw	ra,92(sp)
2010c480:	42e6                	lw	t0,88(sp)
2010c482:	4356                	lw	t1,84(sp)
2010c484:	43c6                	lw	t2,80(sp)
2010c486:	4436                	lw	s0,76(sp)
2010c488:	4526                	lw	a0,72(sp)
2010c48a:	4596                	lw	a1,68(sp)
2010c48c:	4606                	lw	a2,64(sp)
2010c48e:	56f2                	lw	a3,60(sp)
2010c490:	5762                	lw	a4,56(sp)
2010c492:	57d2                	lw	a5,52(sp)
2010c494:	5842                	lw	a6,48(sp)
2010c496:	58b2                	lw	a7,44(sp)
2010c498:	5e22                	lw	t3,40(sp)
2010c49a:	5e92                	lw	t4,36(sp)
2010c49c:	5f02                	lw	t5,32(sp)
2010c49e:	4ff2                	lw	t6,28(sp)
2010c4a0:	6125                	add	sp,sp,96
2010c4a2:	30200073          	mret

2010c4a6 <metal_lc2_interrupt_vector_handler>:
metal_lc2_interrupt_vector_handler():
C:/VSD_Sqd_Project/sifive_hifive1_BitNet_MNIST_App/freedom-metal/src/drivers/riscv_cpu.c:224

/* The metal_lc2_interrupt_vector_handler() function can be redefined. */
void __attribute__((weak, interrupt)) metal_lc2_interrupt_vector_handler(void) {
2010c4a6:	711d                	add	sp,sp,-96
2010c4a8:	ce86                	sw	ra,92(sp)
2010c4aa:	cc96                	sw	t0,88(sp)
2010c4ac:	ca9a                	sw	t1,84(sp)
2010c4ae:	c89e                	sw	t2,80(sp)
2010c4b0:	c6a2                	sw	s0,76(sp)
2010c4b2:	c4aa                	sw	a0,72(sp)
2010c4b4:	c2ae                	sw	a1,68(sp)
2010c4b6:	c0b2                	sw	a2,64(sp)
2010c4b8:	de36                	sw	a3,60(sp)
2010c4ba:	dc3a                	sw	a4,56(sp)
2010c4bc:	da3e                	sw	a5,52(sp)
2010c4be:	d842                	sw	a6,48(sp)
2010c4c0:	d646                	sw	a7,44(sp)
2010c4c2:	d472                	sw	t3,40(sp)
2010c4c4:	d276                	sw	t4,36(sp)
2010c4c6:	d07a                	sw	t5,32(sp)
2010c4c8:	ce7e                	sw	t6,28(sp)
2010c4ca:	1080                	add	s0,sp,96
C:/VSD_Sqd_Project/sifive_hifive1_BitNet_MNIST_App/freedom-metal/src/drivers/riscv_cpu.c:225
    __METAL_IRQ_VECTOR_HANDLER(METAL_INTERRUPT_ID_LC2);
2010c4cc:	8b5ff0ef          	jal	2010bd80 <__metal_myhart_id>
2010c4d0:	872a                	mv	a4,a0
C:/VSD_Sqd_Project/sifive_hifive1_BitNet_MNIST_App/freedom-metal/src/drivers/riscv_cpu.c:225 (discriminator 1)
2010c4d2:	800017b7          	lui	a5,0x80001
2010c4d6:	070a                	sll	a4,a4,0x2
2010c4d8:	a7878793          	add	a5,a5,-1416 # 80000a78 <__metal_cpu_table>
2010c4dc:	97ba                	add	a5,a5,a4
2010c4de:	439c                	lw	a5,0(a5)
2010c4e0:	faf42623          	sw	a5,-84(s0)
2010c4e4:	fac42783          	lw	a5,-84(s0)
2010c4e8:	c78d                	beqz	a5,2010c512 <metal_lc2_interrupt_vector_handler+0x6c>
2010c4ea:	fac42503          	lw	a0,-84(s0)
2010c4ee:	815ff0ef          	jal	2010bd02 <__metal_driver_cpu_interrupt_controller>
2010c4f2:	faa42423          	sw	a0,-88(s0)
2010c4f6:	fa842783          	lw	a5,-88(s0)
2010c4fa:	2487a783          	lw	a5,584(a5)
2010c4fe:	faf42223          	sw	a5,-92(s0)
2010c502:	fa842783          	lw	a5,-88(s0)
2010c506:	2407a783          	lw	a5,576(a5)
2010c50a:	fa442583          	lw	a1,-92(s0)
2010c50e:	4549                	li	a0,18
2010c510:	9782                	jalr	a5
C:/VSD_Sqd_Project/sifive_hifive1_BitNet_MNIST_App/freedom-metal/src/drivers/riscv_cpu.c:226
}
2010c512:	0001                	nop
2010c514:	40f6                	lw	ra,92(sp)
2010c516:	42e6                	lw	t0,88(sp)
2010c518:	4356                	lw	t1,84(sp)
2010c51a:	43c6                	lw	t2,80(sp)
2010c51c:	4436                	lw	s0,76(sp)
2010c51e:	4526                	lw	a0,72(sp)
2010c520:	4596                	lw	a1,68(sp)
2010c522:	4606                	lw	a2,64(sp)
2010c524:	56f2                	lw	a3,60(sp)
2010c526:	5762                	lw	a4,56(sp)
2010c528:	57d2                	lw	a5,52(sp)
2010c52a:	5842                	lw	a6,48(sp)
2010c52c:	58b2                	lw	a7,44(sp)
2010c52e:	5e22                	lw	t3,40(sp)
2010c530:	5e92                	lw	t4,36(sp)
2010c532:	5f02                	lw	t5,32(sp)
2010c534:	4ff2                	lw	t6,28(sp)
2010c536:	6125                	add	sp,sp,96
2010c538:	30200073          	mret

2010c53c <metal_lc3_interrupt_vector_handler>:
metal_lc3_interrupt_vector_handler():
C:/VSD_Sqd_Project/sifive_hifive1_BitNet_MNIST_App/freedom-metal/src/drivers/riscv_cpu.c:229

/* The metal_lc3_interrupt_vector_handler() function can be redefined. */
void __attribute__((weak, interrupt)) metal_lc3_interrupt_vector_handler(void) {
2010c53c:	711d                	add	sp,sp,-96
2010c53e:	ce86                	sw	ra,92(sp)
2010c540:	cc96                	sw	t0,88(sp)
2010c542:	ca9a                	sw	t1,84(sp)
2010c544:	c89e                	sw	t2,80(sp)
2010c546:	c6a2                	sw	s0,76(sp)
2010c548:	c4aa                	sw	a0,72(sp)
2010c54a:	c2ae                	sw	a1,68(sp)
2010c54c:	c0b2                	sw	a2,64(sp)
2010c54e:	de36                	sw	a3,60(sp)
2010c550:	dc3a                	sw	a4,56(sp)
2010c552:	da3e                	sw	a5,52(sp)
2010c554:	d842                	sw	a6,48(sp)
2010c556:	d646                	sw	a7,44(sp)
2010c558:	d472                	sw	t3,40(sp)
2010c55a:	d276                	sw	t4,36(sp)
2010c55c:	d07a                	sw	t5,32(sp)
2010c55e:	ce7e                	sw	t6,28(sp)
2010c560:	1080                	add	s0,sp,96
C:/VSD_Sqd_Project/sifive_hifive1_BitNet_MNIST_App/freedom-metal/src/drivers/riscv_cpu.c:230
    __METAL_IRQ_VECTOR_HANDLER(METAL_INTERRUPT_ID_LC3);
2010c562:	81fff0ef          	jal	2010bd80 <__metal_myhart_id>
2010c566:	872a                	mv	a4,a0
C:/VSD_Sqd_Project/sifive_hifive1_BitNet_MNIST_App/freedom-metal/src/drivers/riscv_cpu.c:230 (discriminator 1)
2010c568:	800017b7          	lui	a5,0x80001
2010c56c:	070a                	sll	a4,a4,0x2
2010c56e:	a7878793          	add	a5,a5,-1416 # 80000a78 <__metal_cpu_table>
2010c572:	97ba                	add	a5,a5,a4
2010c574:	439c                	lw	a5,0(a5)
2010c576:	faf42623          	sw	a5,-84(s0)
2010c57a:	fac42783          	lw	a5,-84(s0)
2010c57e:	c78d                	beqz	a5,2010c5a8 <metal_lc3_interrupt_vector_handler+0x6c>
2010c580:	fac42503          	lw	a0,-84(s0)
2010c584:	f7eff0ef          	jal	2010bd02 <__metal_driver_cpu_interrupt_controller>
2010c588:	faa42423          	sw	a0,-88(s0)
2010c58c:	fa842783          	lw	a5,-88(s0)
2010c590:	2607a783          	lw	a5,608(a5)
2010c594:	faf42223          	sw	a5,-92(s0)
2010c598:	fa842783          	lw	a5,-88(s0)
2010c59c:	2587a783          	lw	a5,600(a5)
2010c5a0:	fa442583          	lw	a1,-92(s0)
2010c5a4:	454d                	li	a0,19
2010c5a6:	9782                	jalr	a5
C:/VSD_Sqd_Project/sifive_hifive1_BitNet_MNIST_App/freedom-metal/src/drivers/riscv_cpu.c:231
}
2010c5a8:	0001                	nop
2010c5aa:	40f6                	lw	ra,92(sp)
2010c5ac:	42e6                	lw	t0,88(sp)
2010c5ae:	4356                	lw	t1,84(sp)
2010c5b0:	43c6                	lw	t2,80(sp)
2010c5b2:	4436                	lw	s0,76(sp)
2010c5b4:	4526                	lw	a0,72(sp)
2010c5b6:	4596                	lw	a1,68(sp)
2010c5b8:	4606                	lw	a2,64(sp)
2010c5ba:	56f2                	lw	a3,60(sp)
2010c5bc:	5762                	lw	a4,56(sp)
2010c5be:	57d2                	lw	a5,52(sp)
2010c5c0:	5842                	lw	a6,48(sp)
2010c5c2:	58b2                	lw	a7,44(sp)
2010c5c4:	5e22                	lw	t3,40(sp)
2010c5c6:	5e92                	lw	t4,36(sp)
2010c5c8:	5f02                	lw	t5,32(sp)
2010c5ca:	4ff2                	lw	t6,28(sp)
2010c5cc:	6125                	add	sp,sp,96
2010c5ce:	30200073          	mret

2010c5d2 <metal_lc4_interrupt_vector_handler>:
metal_lc4_interrupt_vector_handler():
C:/VSD_Sqd_Project/sifive_hifive1_BitNet_MNIST_App/freedom-metal/src/drivers/riscv_cpu.c:234

/* The metal_lc4_interrupt_vector_handler() function can be redefined. */
void __attribute__((weak, interrupt)) metal_lc4_interrupt_vector_handler(void) {
2010c5d2:	711d                	add	sp,sp,-96
2010c5d4:	ce86                	sw	ra,92(sp)
2010c5d6:	cc96                	sw	t0,88(sp)
2010c5d8:	ca9a                	sw	t1,84(sp)
2010c5da:	c89e                	sw	t2,80(sp)
2010c5dc:	c6a2                	sw	s0,76(sp)
2010c5de:	c4aa                	sw	a0,72(sp)
2010c5e0:	c2ae                	sw	a1,68(sp)
2010c5e2:	c0b2                	sw	a2,64(sp)
2010c5e4:	de36                	sw	a3,60(sp)
2010c5e6:	dc3a                	sw	a4,56(sp)
2010c5e8:	da3e                	sw	a5,52(sp)
2010c5ea:	d842                	sw	a6,48(sp)
2010c5ec:	d646                	sw	a7,44(sp)
2010c5ee:	d472                	sw	t3,40(sp)
2010c5f0:	d276                	sw	t4,36(sp)
2010c5f2:	d07a                	sw	t5,32(sp)
2010c5f4:	ce7e                	sw	t6,28(sp)
2010c5f6:	1080                	add	s0,sp,96
C:/VSD_Sqd_Project/sifive_hifive1_BitNet_MNIST_App/freedom-metal/src/drivers/riscv_cpu.c:235
    __METAL_IRQ_VECTOR_HANDLER(METAL_INTERRUPT_ID_LC4);
2010c5f8:	f88ff0ef          	jal	2010bd80 <__metal_myhart_id>
2010c5fc:	872a                	mv	a4,a0
C:/VSD_Sqd_Project/sifive_hifive1_BitNet_MNIST_App/freedom-metal/src/drivers/riscv_cpu.c:235 (discriminator 1)
2010c5fe:	800017b7          	lui	a5,0x80001
2010c602:	070a                	sll	a4,a4,0x2
2010c604:	a7878793          	add	a5,a5,-1416 # 80000a78 <__metal_cpu_table>
2010c608:	97ba                	add	a5,a5,a4
2010c60a:	439c                	lw	a5,0(a5)
2010c60c:	faf42623          	sw	a5,-84(s0)
2010c610:	fac42783          	lw	a5,-84(s0)
2010c614:	c78d                	beqz	a5,2010c63e <metal_lc4_interrupt_vector_handler+0x6c>
2010c616:	fac42503          	lw	a0,-84(s0)
2010c61a:	ee8ff0ef          	jal	2010bd02 <__metal_driver_cpu_interrupt_controller>
2010c61e:	faa42423          	sw	a0,-88(s0)
2010c622:	fa842783          	lw	a5,-88(s0)
2010c626:	2787a783          	lw	a5,632(a5)
2010c62a:	faf42223          	sw	a5,-92(s0)
2010c62e:	fa842783          	lw	a5,-88(s0)
2010c632:	2707a783          	lw	a5,624(a5)
2010c636:	fa442583          	lw	a1,-92(s0)
2010c63a:	4551                	li	a0,20
2010c63c:	9782                	jalr	a5
C:/VSD_Sqd_Project/sifive_hifive1_BitNet_MNIST_App/freedom-metal/src/drivers/riscv_cpu.c:236
}
2010c63e:	0001                	nop
2010c640:	40f6                	lw	ra,92(sp)
2010c642:	42e6                	lw	t0,88(sp)
2010c644:	4356                	lw	t1,84(sp)
2010c646:	43c6                	lw	t2,80(sp)
2010c648:	4436                	lw	s0,76(sp)
2010c64a:	4526                	lw	a0,72(sp)
2010c64c:	4596                	lw	a1,68(sp)
2010c64e:	4606                	lw	a2,64(sp)
2010c650:	56f2                	lw	a3,60(sp)
2010c652:	5762                	lw	a4,56(sp)
2010c654:	57d2                	lw	a5,52(sp)
2010c656:	5842                	lw	a6,48(sp)
2010c658:	58b2                	lw	a7,44(sp)
2010c65a:	5e22                	lw	t3,40(sp)
2010c65c:	5e92                	lw	t4,36(sp)
2010c65e:	5f02                	lw	t5,32(sp)
2010c660:	4ff2                	lw	t6,28(sp)
2010c662:	6125                	add	sp,sp,96
2010c664:	30200073          	mret

2010c668 <metal_lc5_interrupt_vector_handler>:
metal_lc5_interrupt_vector_handler():
C:/VSD_Sqd_Project/sifive_hifive1_BitNet_MNIST_App/freedom-metal/src/drivers/riscv_cpu.c:239

/* The metal_lc5_interrupt_vector_handler() function can be redefined. */
void __attribute__((weak, interrupt)) metal_lc5_interrupt_vector_handler(void) {
2010c668:	711d                	add	sp,sp,-96
2010c66a:	ce86                	sw	ra,92(sp)
2010c66c:	cc96                	sw	t0,88(sp)
2010c66e:	ca9a                	sw	t1,84(sp)
2010c670:	c89e                	sw	t2,80(sp)
2010c672:	c6a2                	sw	s0,76(sp)
2010c674:	c4aa                	sw	a0,72(sp)
2010c676:	c2ae                	sw	a1,68(sp)
2010c678:	c0b2                	sw	a2,64(sp)
2010c67a:	de36                	sw	a3,60(sp)
2010c67c:	dc3a                	sw	a4,56(sp)
2010c67e:	da3e                	sw	a5,52(sp)
2010c680:	d842                	sw	a6,48(sp)
2010c682:	d646                	sw	a7,44(sp)
2010c684:	d472                	sw	t3,40(sp)
2010c686:	d276                	sw	t4,36(sp)
2010c688:	d07a                	sw	t5,32(sp)
2010c68a:	ce7e                	sw	t6,28(sp)
2010c68c:	1080                	add	s0,sp,96
C:/VSD_Sqd_Project/sifive_hifive1_BitNet_MNIST_App/freedom-metal/src/drivers/riscv_cpu.c:240
    __METAL_IRQ_VECTOR_HANDLER(METAL_INTERRUPT_ID_LC5);
2010c68e:	ef2ff0ef          	jal	2010bd80 <__metal_myhart_id>
2010c692:	872a                	mv	a4,a0
C:/VSD_Sqd_Project/sifive_hifive1_BitNet_MNIST_App/freedom-metal/src/drivers/riscv_cpu.c:240 (discriminator 1)
2010c694:	800017b7          	lui	a5,0x80001
2010c698:	070a                	sll	a4,a4,0x2
2010c69a:	a7878793          	add	a5,a5,-1416 # 80000a78 <__metal_cpu_table>
2010c69e:	97ba                	add	a5,a5,a4
2010c6a0:	439c                	lw	a5,0(a5)
2010c6a2:	faf42623          	sw	a5,-84(s0)
2010c6a6:	fac42783          	lw	a5,-84(s0)
2010c6aa:	c78d                	beqz	a5,2010c6d4 <metal_lc5_interrupt_vector_handler+0x6c>
2010c6ac:	fac42503          	lw	a0,-84(s0)
2010c6b0:	e52ff0ef          	jal	2010bd02 <__metal_driver_cpu_interrupt_controller>
2010c6b4:	faa42423          	sw	a0,-88(s0)
2010c6b8:	fa842783          	lw	a5,-88(s0)
2010c6bc:	2907a783          	lw	a5,656(a5)
2010c6c0:	faf42223          	sw	a5,-92(s0)
2010c6c4:	fa842783          	lw	a5,-88(s0)
2010c6c8:	2887a783          	lw	a5,648(a5)
2010c6cc:	fa442583          	lw	a1,-92(s0)
2010c6d0:	4555                	li	a0,21
2010c6d2:	9782                	jalr	a5
C:/VSD_Sqd_Project/sifive_hifive1_BitNet_MNIST_App/freedom-metal/src/drivers/riscv_cpu.c:241
}
2010c6d4:	0001                	nop
2010c6d6:	40f6                	lw	ra,92(sp)
2010c6d8:	42e6                	lw	t0,88(sp)
2010c6da:	4356                	lw	t1,84(sp)
2010c6dc:	43c6                	lw	t2,80(sp)
2010c6de:	4436                	lw	s0,76(sp)
2010c6e0:	4526                	lw	a0,72(sp)
2010c6e2:	4596                	lw	a1,68(sp)
2010c6e4:	4606                	lw	a2,64(sp)
2010c6e6:	56f2                	lw	a3,60(sp)
2010c6e8:	5762                	lw	a4,56(sp)
2010c6ea:	57d2                	lw	a5,52(sp)
2010c6ec:	5842                	lw	a6,48(sp)
2010c6ee:	58b2                	lw	a7,44(sp)
2010c6f0:	5e22                	lw	t3,40(sp)
2010c6f2:	5e92                	lw	t4,36(sp)
2010c6f4:	5f02                	lw	t5,32(sp)
2010c6f6:	4ff2                	lw	t6,28(sp)
2010c6f8:	6125                	add	sp,sp,96
2010c6fa:	30200073          	mret

2010c6fe <metal_lc6_interrupt_vector_handler>:
metal_lc6_interrupt_vector_handler():
C:/VSD_Sqd_Project/sifive_hifive1_BitNet_MNIST_App/freedom-metal/src/drivers/riscv_cpu.c:244

/* The metal_lc6_interrupt_vector_handler() function can be redefined. */
void __attribute__((weak, interrupt)) metal_lc6_interrupt_vector_handler(void) {
2010c6fe:	711d                	add	sp,sp,-96
2010c700:	ce86                	sw	ra,92(sp)
2010c702:	cc96                	sw	t0,88(sp)
2010c704:	ca9a                	sw	t1,84(sp)
2010c706:	c89e                	sw	t2,80(sp)
2010c708:	c6a2                	sw	s0,76(sp)
2010c70a:	c4aa                	sw	a0,72(sp)
2010c70c:	c2ae                	sw	a1,68(sp)
2010c70e:	c0b2                	sw	a2,64(sp)
2010c710:	de36                	sw	a3,60(sp)
2010c712:	dc3a                	sw	a4,56(sp)
2010c714:	da3e                	sw	a5,52(sp)
2010c716:	d842                	sw	a6,48(sp)
2010c718:	d646                	sw	a7,44(sp)
2010c71a:	d472                	sw	t3,40(sp)
2010c71c:	d276                	sw	t4,36(sp)
2010c71e:	d07a                	sw	t5,32(sp)
2010c720:	ce7e                	sw	t6,28(sp)
2010c722:	1080                	add	s0,sp,96
C:/VSD_Sqd_Project/sifive_hifive1_BitNet_MNIST_App/freedom-metal/src/drivers/riscv_cpu.c:245
    __METAL_IRQ_VECTOR_HANDLER(METAL_INTERRUPT_ID_LC6);
2010c724:	e5cff0ef          	jal	2010bd80 <__metal_myhart_id>
2010c728:	872a                	mv	a4,a0
C:/VSD_Sqd_Project/sifive_hifive1_BitNet_MNIST_App/freedom-metal/src/drivers/riscv_cpu.c:245 (discriminator 1)
2010c72a:	800017b7          	lui	a5,0x80001
2010c72e:	070a                	sll	a4,a4,0x2
2010c730:	a7878793          	add	a5,a5,-1416 # 80000a78 <__metal_cpu_table>
2010c734:	97ba                	add	a5,a5,a4
2010c736:	439c                	lw	a5,0(a5)
2010c738:	faf42623          	sw	a5,-84(s0)
2010c73c:	fac42783          	lw	a5,-84(s0)
2010c740:	c78d                	beqz	a5,2010c76a <metal_lc6_interrupt_vector_handler+0x6c>
2010c742:	fac42503          	lw	a0,-84(s0)
2010c746:	dbcff0ef          	jal	2010bd02 <__metal_driver_cpu_interrupt_controller>
2010c74a:	faa42423          	sw	a0,-88(s0)
2010c74e:	fa842783          	lw	a5,-88(s0)
2010c752:	2a87a783          	lw	a5,680(a5)
2010c756:	faf42223          	sw	a5,-92(s0)
2010c75a:	fa842783          	lw	a5,-88(s0)
2010c75e:	2a07a783          	lw	a5,672(a5)
2010c762:	fa442583          	lw	a1,-92(s0)
2010c766:	4559                	li	a0,22
2010c768:	9782                	jalr	a5
C:/VSD_Sqd_Project/sifive_hifive1_BitNet_MNIST_App/freedom-metal/src/drivers/riscv_cpu.c:246
}
2010c76a:	0001                	nop
2010c76c:	40f6                	lw	ra,92(sp)
2010c76e:	42e6                	lw	t0,88(sp)
2010c770:	4356                	lw	t1,84(sp)
2010c772:	43c6                	lw	t2,80(sp)
2010c774:	4436                	lw	s0,76(sp)
2010c776:	4526                	lw	a0,72(sp)
2010c778:	4596                	lw	a1,68(sp)
2010c77a:	4606                	lw	a2,64(sp)
2010c77c:	56f2                	lw	a3,60(sp)
2010c77e:	5762                	lw	a4,56(sp)
2010c780:	57d2                	lw	a5,52(sp)
2010c782:	5842                	lw	a6,48(sp)
2010c784:	58b2                	lw	a7,44(sp)
2010c786:	5e22                	lw	t3,40(sp)
2010c788:	5e92                	lw	t4,36(sp)
2010c78a:	5f02                	lw	t5,32(sp)
2010c78c:	4ff2                	lw	t6,28(sp)
2010c78e:	6125                	add	sp,sp,96
2010c790:	30200073          	mret

2010c794 <metal_lc7_interrupt_vector_handler>:
metal_lc7_interrupt_vector_handler():
C:/VSD_Sqd_Project/sifive_hifive1_BitNet_MNIST_App/freedom-metal/src/drivers/riscv_cpu.c:249

/* The metal_lc7_interrupt_vector_handler() function can be redefined. */
void __attribute__((weak, interrupt)) metal_lc7_interrupt_vector_handler(void) {
2010c794:	711d                	add	sp,sp,-96
2010c796:	ce86                	sw	ra,92(sp)
2010c798:	cc96                	sw	t0,88(sp)
2010c79a:	ca9a                	sw	t1,84(sp)
2010c79c:	c89e                	sw	t2,80(sp)
2010c79e:	c6a2                	sw	s0,76(sp)
2010c7a0:	c4aa                	sw	a0,72(sp)
2010c7a2:	c2ae                	sw	a1,68(sp)
2010c7a4:	c0b2                	sw	a2,64(sp)
2010c7a6:	de36                	sw	a3,60(sp)
2010c7a8:	dc3a                	sw	a4,56(sp)
2010c7aa:	da3e                	sw	a5,52(sp)
2010c7ac:	d842                	sw	a6,48(sp)
2010c7ae:	d646                	sw	a7,44(sp)
2010c7b0:	d472                	sw	t3,40(sp)
2010c7b2:	d276                	sw	t4,36(sp)
2010c7b4:	d07a                	sw	t5,32(sp)
2010c7b6:	ce7e                	sw	t6,28(sp)
2010c7b8:	1080                	add	s0,sp,96
C:/VSD_Sqd_Project/sifive_hifive1_BitNet_MNIST_App/freedom-metal/src/drivers/riscv_cpu.c:250
    __METAL_IRQ_VECTOR_HANDLER(METAL_INTERRUPT_ID_LC7);
2010c7ba:	dc6ff0ef          	jal	2010bd80 <__metal_myhart_id>
2010c7be:	872a                	mv	a4,a0
C:/VSD_Sqd_Project/sifive_hifive1_BitNet_MNIST_App/freedom-metal/src/drivers/riscv_cpu.c:250 (discriminator 1)
2010c7c0:	800017b7          	lui	a5,0x80001
2010c7c4:	070a                	sll	a4,a4,0x2
2010c7c6:	a7878793          	add	a5,a5,-1416 # 80000a78 <__metal_cpu_table>
2010c7ca:	97ba                	add	a5,a5,a4
2010c7cc:	439c                	lw	a5,0(a5)
2010c7ce:	faf42623          	sw	a5,-84(s0)
2010c7d2:	fac42783          	lw	a5,-84(s0)
2010c7d6:	c78d                	beqz	a5,2010c800 <metal_lc7_interrupt_vector_handler+0x6c>
2010c7d8:	fac42503          	lw	a0,-84(s0)
2010c7dc:	d26ff0ef          	jal	2010bd02 <__metal_driver_cpu_interrupt_controller>
2010c7e0:	faa42423          	sw	a0,-88(s0)
2010c7e4:	fa842783          	lw	a5,-88(s0)
2010c7e8:	2c07a783          	lw	a5,704(a5)
2010c7ec:	faf42223          	sw	a5,-92(s0)
2010c7f0:	fa842783          	lw	a5,-88(s0)
2010c7f4:	2b87a783          	lw	a5,696(a5)
2010c7f8:	fa442583          	lw	a1,-92(s0)
2010c7fc:	455d                	li	a0,23
2010c7fe:	9782                	jalr	a5
C:/VSD_Sqd_Project/sifive_hifive1_BitNet_MNIST_App/freedom-metal/src/drivers/riscv_cpu.c:251
}
2010c800:	0001                	nop
2010c802:	40f6                	lw	ra,92(sp)
2010c804:	42e6                	lw	t0,88(sp)
2010c806:	4356                	lw	t1,84(sp)
2010c808:	43c6                	lw	t2,80(sp)
2010c80a:	4436                	lw	s0,76(sp)
2010c80c:	4526                	lw	a0,72(sp)
2010c80e:	4596                	lw	a1,68(sp)
2010c810:	4606                	lw	a2,64(sp)
2010c812:	56f2                	lw	a3,60(sp)
2010c814:	5762                	lw	a4,56(sp)
2010c816:	57d2                	lw	a5,52(sp)
2010c818:	5842                	lw	a6,48(sp)
2010c81a:	58b2                	lw	a7,44(sp)
2010c81c:	5e22                	lw	t3,40(sp)
2010c81e:	5e92                	lw	t4,36(sp)
2010c820:	5f02                	lw	t5,32(sp)
2010c822:	4ff2                	lw	t6,28(sp)
2010c824:	6125                	add	sp,sp,96
2010c826:	30200073          	mret

2010c82a <metal_lc8_interrupt_vector_handler>:
metal_lc8_interrupt_vector_handler():
C:/VSD_Sqd_Project/sifive_hifive1_BitNet_MNIST_App/freedom-metal/src/drivers/riscv_cpu.c:254

/* The metal_lc8_interrupt_vector_handler() function can be redefined. */
void __attribute__((weak, interrupt)) metal_lc8_interrupt_vector_handler(void) {
2010c82a:	711d                	add	sp,sp,-96
2010c82c:	ce86                	sw	ra,92(sp)
2010c82e:	cc96                	sw	t0,88(sp)
2010c830:	ca9a                	sw	t1,84(sp)
2010c832:	c89e                	sw	t2,80(sp)
2010c834:	c6a2                	sw	s0,76(sp)
2010c836:	c4aa                	sw	a0,72(sp)
2010c838:	c2ae                	sw	a1,68(sp)
2010c83a:	c0b2                	sw	a2,64(sp)
2010c83c:	de36                	sw	a3,60(sp)
2010c83e:	dc3a                	sw	a4,56(sp)
2010c840:	da3e                	sw	a5,52(sp)
2010c842:	d842                	sw	a6,48(sp)
2010c844:	d646                	sw	a7,44(sp)
2010c846:	d472                	sw	t3,40(sp)
2010c848:	d276                	sw	t4,36(sp)
2010c84a:	d07a                	sw	t5,32(sp)
2010c84c:	ce7e                	sw	t6,28(sp)
2010c84e:	1080                	add	s0,sp,96
C:/VSD_Sqd_Project/sifive_hifive1_BitNet_MNIST_App/freedom-metal/src/drivers/riscv_cpu.c:255
    __METAL_IRQ_VECTOR_HANDLER(METAL_INTERRUPT_ID_LC8);
2010c850:	d30ff0ef          	jal	2010bd80 <__metal_myhart_id>
2010c854:	872a                	mv	a4,a0
C:/VSD_Sqd_Project/sifive_hifive1_BitNet_MNIST_App/freedom-metal/src/drivers/riscv_cpu.c:255 (discriminator 1)
2010c856:	800017b7          	lui	a5,0x80001
2010c85a:	070a                	sll	a4,a4,0x2
2010c85c:	a7878793          	add	a5,a5,-1416 # 80000a78 <__metal_cpu_table>
2010c860:	97ba                	add	a5,a5,a4
2010c862:	439c                	lw	a5,0(a5)
2010c864:	faf42623          	sw	a5,-84(s0)
2010c868:	fac42783          	lw	a5,-84(s0)
2010c86c:	c78d                	beqz	a5,2010c896 <metal_lc8_interrupt_vector_handler+0x6c>
2010c86e:	fac42503          	lw	a0,-84(s0)
2010c872:	c90ff0ef          	jal	2010bd02 <__metal_driver_cpu_interrupt_controller>
2010c876:	faa42423          	sw	a0,-88(s0)
2010c87a:	fa842783          	lw	a5,-88(s0)
2010c87e:	2d87a783          	lw	a5,728(a5)
2010c882:	faf42223          	sw	a5,-92(s0)
2010c886:	fa842783          	lw	a5,-88(s0)
2010c88a:	2d07a783          	lw	a5,720(a5)
2010c88e:	fa442583          	lw	a1,-92(s0)
2010c892:	4561                	li	a0,24
2010c894:	9782                	jalr	a5
C:/VSD_Sqd_Project/sifive_hifive1_BitNet_MNIST_App/freedom-metal/src/drivers/riscv_cpu.c:256
}
2010c896:	0001                	nop
2010c898:	40f6                	lw	ra,92(sp)
2010c89a:	42e6                	lw	t0,88(sp)
2010c89c:	4356                	lw	t1,84(sp)
2010c89e:	43c6                	lw	t2,80(sp)
2010c8a0:	4436                	lw	s0,76(sp)
2010c8a2:	4526                	lw	a0,72(sp)
2010c8a4:	4596                	lw	a1,68(sp)
2010c8a6:	4606                	lw	a2,64(sp)
2010c8a8:	56f2                	lw	a3,60(sp)
2010c8aa:	5762                	lw	a4,56(sp)
2010c8ac:	57d2                	lw	a5,52(sp)
2010c8ae:	5842                	lw	a6,48(sp)
2010c8b0:	58b2                	lw	a7,44(sp)
2010c8b2:	5e22                	lw	t3,40(sp)
2010c8b4:	5e92                	lw	t4,36(sp)
2010c8b6:	5f02                	lw	t5,32(sp)
2010c8b8:	4ff2                	lw	t6,28(sp)
2010c8ba:	6125                	add	sp,sp,96
2010c8bc:	30200073          	mret

2010c8c0 <metal_lc9_interrupt_vector_handler>:
metal_lc9_interrupt_vector_handler():
C:/VSD_Sqd_Project/sifive_hifive1_BitNet_MNIST_App/freedom-metal/src/drivers/riscv_cpu.c:259

/* The metal_lc9_interrupt_vector_handler() function can be redefined. */
void __attribute__((weak, interrupt)) metal_lc9_interrupt_vector_handler(void) {
2010c8c0:	711d                	add	sp,sp,-96
2010c8c2:	ce86                	sw	ra,92(sp)
2010c8c4:	cc96                	sw	t0,88(sp)
2010c8c6:	ca9a                	sw	t1,84(sp)
2010c8c8:	c89e                	sw	t2,80(sp)
2010c8ca:	c6a2                	sw	s0,76(sp)
2010c8cc:	c4aa                	sw	a0,72(sp)
2010c8ce:	c2ae                	sw	a1,68(sp)
2010c8d0:	c0b2                	sw	a2,64(sp)
2010c8d2:	de36                	sw	a3,60(sp)
2010c8d4:	dc3a                	sw	a4,56(sp)
2010c8d6:	da3e                	sw	a5,52(sp)
2010c8d8:	d842                	sw	a6,48(sp)
2010c8da:	d646                	sw	a7,44(sp)
2010c8dc:	d472                	sw	t3,40(sp)
2010c8de:	d276                	sw	t4,36(sp)
2010c8e0:	d07a                	sw	t5,32(sp)
2010c8e2:	ce7e                	sw	t6,28(sp)
2010c8e4:	1080                	add	s0,sp,96
C:/VSD_Sqd_Project/sifive_hifive1_BitNet_MNIST_App/freedom-metal/src/drivers/riscv_cpu.c:260
    __METAL_IRQ_VECTOR_HANDLER(METAL_INTERRUPT_ID_LC9);
2010c8e6:	c9aff0ef          	jal	2010bd80 <__metal_myhart_id>
2010c8ea:	872a                	mv	a4,a0
C:/VSD_Sqd_Project/sifive_hifive1_BitNet_MNIST_App/freedom-metal/src/drivers/riscv_cpu.c:260 (discriminator 1)
2010c8ec:	800017b7          	lui	a5,0x80001
2010c8f0:	070a                	sll	a4,a4,0x2
2010c8f2:	a7878793          	add	a5,a5,-1416 # 80000a78 <__metal_cpu_table>
2010c8f6:	97ba                	add	a5,a5,a4
2010c8f8:	439c                	lw	a5,0(a5)
2010c8fa:	faf42623          	sw	a5,-84(s0)
2010c8fe:	fac42783          	lw	a5,-84(s0)
2010c902:	c78d                	beqz	a5,2010c92c <metal_lc9_interrupt_vector_handler+0x6c>
2010c904:	fac42503          	lw	a0,-84(s0)
2010c908:	bfaff0ef          	jal	2010bd02 <__metal_driver_cpu_interrupt_controller>
2010c90c:	faa42423          	sw	a0,-88(s0)
2010c910:	fa842783          	lw	a5,-88(s0)
2010c914:	2f07a783          	lw	a5,752(a5)
2010c918:	faf42223          	sw	a5,-92(s0)
2010c91c:	fa842783          	lw	a5,-88(s0)
2010c920:	2e87a783          	lw	a5,744(a5)
2010c924:	fa442583          	lw	a1,-92(s0)
2010c928:	4565                	li	a0,25
2010c92a:	9782                	jalr	a5
C:/VSD_Sqd_Project/sifive_hifive1_BitNet_MNIST_App/freedom-metal/src/drivers/riscv_cpu.c:261
}
2010c92c:	0001                	nop
2010c92e:	40f6                	lw	ra,92(sp)
2010c930:	42e6                	lw	t0,88(sp)
2010c932:	4356                	lw	t1,84(sp)
2010c934:	43c6                	lw	t2,80(sp)
2010c936:	4436                	lw	s0,76(sp)
2010c938:	4526                	lw	a0,72(sp)
2010c93a:	4596                	lw	a1,68(sp)
2010c93c:	4606                	lw	a2,64(sp)
2010c93e:	56f2                	lw	a3,60(sp)
2010c940:	5762                	lw	a4,56(sp)
2010c942:	57d2                	lw	a5,52(sp)
2010c944:	5842                	lw	a6,48(sp)
2010c946:	58b2                	lw	a7,44(sp)
2010c948:	5e22                	lw	t3,40(sp)
2010c94a:	5e92                	lw	t4,36(sp)
2010c94c:	5f02                	lw	t5,32(sp)
2010c94e:	4ff2                	lw	t6,28(sp)
2010c950:	6125                	add	sp,sp,96
2010c952:	30200073          	mret

2010c956 <metal_lc10_interrupt_vector_handler>:
metal_lc10_interrupt_vector_handler():
C:/VSD_Sqd_Project/sifive_hifive1_BitNet_MNIST_App/freedom-metal/src/drivers/riscv_cpu.c:265

/* The metal_lc10_interrupt_vector_handler() function can be redefined. */
void __attribute__((weak, interrupt))
metal_lc10_interrupt_vector_handler(void) {
2010c956:	711d                	add	sp,sp,-96
2010c958:	ce86                	sw	ra,92(sp)
2010c95a:	cc96                	sw	t0,88(sp)
2010c95c:	ca9a                	sw	t1,84(sp)
2010c95e:	c89e                	sw	t2,80(sp)
2010c960:	c6a2                	sw	s0,76(sp)
2010c962:	c4aa                	sw	a0,72(sp)
2010c964:	c2ae                	sw	a1,68(sp)
2010c966:	c0b2                	sw	a2,64(sp)
2010c968:	de36                	sw	a3,60(sp)
2010c96a:	dc3a                	sw	a4,56(sp)
2010c96c:	da3e                	sw	a5,52(sp)
2010c96e:	d842                	sw	a6,48(sp)
2010c970:	d646                	sw	a7,44(sp)
2010c972:	d472                	sw	t3,40(sp)
2010c974:	d276                	sw	t4,36(sp)
2010c976:	d07a                	sw	t5,32(sp)
2010c978:	ce7e                	sw	t6,28(sp)
2010c97a:	1080                	add	s0,sp,96
C:/VSD_Sqd_Project/sifive_hifive1_BitNet_MNIST_App/freedom-metal/src/drivers/riscv_cpu.c:266
    __METAL_IRQ_VECTOR_HANDLER(METAL_INTERRUPT_ID_LC10);
2010c97c:	c04ff0ef          	jal	2010bd80 <__metal_myhart_id>
2010c980:	872a                	mv	a4,a0
C:/VSD_Sqd_Project/sifive_hifive1_BitNet_MNIST_App/freedom-metal/src/drivers/riscv_cpu.c:266 (discriminator 1)
2010c982:	800017b7          	lui	a5,0x80001
2010c986:	070a                	sll	a4,a4,0x2
2010c988:	a7878793          	add	a5,a5,-1416 # 80000a78 <__metal_cpu_table>
2010c98c:	97ba                	add	a5,a5,a4
2010c98e:	439c                	lw	a5,0(a5)
2010c990:	faf42623          	sw	a5,-84(s0)
2010c994:	fac42783          	lw	a5,-84(s0)
2010c998:	c78d                	beqz	a5,2010c9c2 <metal_lc10_interrupt_vector_handler+0x6c>
2010c99a:	fac42503          	lw	a0,-84(s0)
2010c99e:	b64ff0ef          	jal	2010bd02 <__metal_driver_cpu_interrupt_controller>
2010c9a2:	faa42423          	sw	a0,-88(s0)
2010c9a6:	fa842783          	lw	a5,-88(s0)
2010c9aa:	3087a783          	lw	a5,776(a5)
2010c9ae:	faf42223          	sw	a5,-92(s0)
2010c9b2:	fa842783          	lw	a5,-88(s0)
2010c9b6:	3007a783          	lw	a5,768(a5)
2010c9ba:	fa442583          	lw	a1,-92(s0)
2010c9be:	4569                	li	a0,26
2010c9c0:	9782                	jalr	a5
C:/VSD_Sqd_Project/sifive_hifive1_BitNet_MNIST_App/freedom-metal/src/drivers/riscv_cpu.c:267
}
2010c9c2:	0001                	nop
2010c9c4:	40f6                	lw	ra,92(sp)
2010c9c6:	42e6                	lw	t0,88(sp)
2010c9c8:	4356                	lw	t1,84(sp)
2010c9ca:	43c6                	lw	t2,80(sp)
2010c9cc:	4436                	lw	s0,76(sp)
2010c9ce:	4526                	lw	a0,72(sp)
2010c9d0:	4596                	lw	a1,68(sp)
2010c9d2:	4606                	lw	a2,64(sp)
2010c9d4:	56f2                	lw	a3,60(sp)
2010c9d6:	5762                	lw	a4,56(sp)
2010c9d8:	57d2                	lw	a5,52(sp)
2010c9da:	5842                	lw	a6,48(sp)
2010c9dc:	58b2                	lw	a7,44(sp)
2010c9de:	5e22                	lw	t3,40(sp)
2010c9e0:	5e92                	lw	t4,36(sp)
2010c9e2:	5f02                	lw	t5,32(sp)
2010c9e4:	4ff2                	lw	t6,28(sp)
2010c9e6:	6125                	add	sp,sp,96
2010c9e8:	30200073          	mret

2010c9ec <metal_lc11_interrupt_vector_handler>:
metal_lc11_interrupt_vector_handler():
C:/VSD_Sqd_Project/sifive_hifive1_BitNet_MNIST_App/freedom-metal/src/drivers/riscv_cpu.c:271

/* The metal_lc11_interrupt_vector_handler() function can be redefined. */
void __attribute__((weak, interrupt))
metal_lc11_interrupt_vector_handler(void) {
2010c9ec:	711d                	add	sp,sp,-96
2010c9ee:	ce86                	sw	ra,92(sp)
2010c9f0:	cc96                	sw	t0,88(sp)
2010c9f2:	ca9a                	sw	t1,84(sp)
2010c9f4:	c89e                	sw	t2,80(sp)
2010c9f6:	c6a2                	sw	s0,76(sp)
2010c9f8:	c4aa                	sw	a0,72(sp)
2010c9fa:	c2ae                	sw	a1,68(sp)
2010c9fc:	c0b2                	sw	a2,64(sp)
2010c9fe:	de36                	sw	a3,60(sp)
2010ca00:	dc3a                	sw	a4,56(sp)
2010ca02:	da3e                	sw	a5,52(sp)
2010ca04:	d842                	sw	a6,48(sp)
2010ca06:	d646                	sw	a7,44(sp)
2010ca08:	d472                	sw	t3,40(sp)
2010ca0a:	d276                	sw	t4,36(sp)
2010ca0c:	d07a                	sw	t5,32(sp)
2010ca0e:	ce7e                	sw	t6,28(sp)
2010ca10:	1080                	add	s0,sp,96
C:/VSD_Sqd_Project/sifive_hifive1_BitNet_MNIST_App/freedom-metal/src/drivers/riscv_cpu.c:272
    __METAL_IRQ_VECTOR_HANDLER(METAL_INTERRUPT_ID_LC11);
2010ca12:	b6eff0ef          	jal	2010bd80 <__metal_myhart_id>
2010ca16:	872a                	mv	a4,a0
C:/VSD_Sqd_Project/sifive_hifive1_BitNet_MNIST_App/freedom-metal/src/drivers/riscv_cpu.c:272 (discriminator 1)
2010ca18:	800017b7          	lui	a5,0x80001
2010ca1c:	070a                	sll	a4,a4,0x2
2010ca1e:	a7878793          	add	a5,a5,-1416 # 80000a78 <__metal_cpu_table>
2010ca22:	97ba                	add	a5,a5,a4
2010ca24:	439c                	lw	a5,0(a5)
2010ca26:	faf42623          	sw	a5,-84(s0)
2010ca2a:	fac42783          	lw	a5,-84(s0)
2010ca2e:	c78d                	beqz	a5,2010ca58 <metal_lc11_interrupt_vector_handler+0x6c>
2010ca30:	fac42503          	lw	a0,-84(s0)
2010ca34:	aceff0ef          	jal	2010bd02 <__metal_driver_cpu_interrupt_controller>
2010ca38:	faa42423          	sw	a0,-88(s0)
2010ca3c:	fa842783          	lw	a5,-88(s0)
2010ca40:	3207a783          	lw	a5,800(a5)
2010ca44:	faf42223          	sw	a5,-92(s0)
2010ca48:	fa842783          	lw	a5,-88(s0)
2010ca4c:	3187a783          	lw	a5,792(a5)
2010ca50:	fa442583          	lw	a1,-92(s0)
2010ca54:	456d                	li	a0,27
2010ca56:	9782                	jalr	a5
C:/VSD_Sqd_Project/sifive_hifive1_BitNet_MNIST_App/freedom-metal/src/drivers/riscv_cpu.c:273
}
2010ca58:	0001                	nop
2010ca5a:	40f6                	lw	ra,92(sp)
2010ca5c:	42e6                	lw	t0,88(sp)
2010ca5e:	4356                	lw	t1,84(sp)
2010ca60:	43c6                	lw	t2,80(sp)
2010ca62:	4436                	lw	s0,76(sp)
2010ca64:	4526                	lw	a0,72(sp)
2010ca66:	4596                	lw	a1,68(sp)
2010ca68:	4606                	lw	a2,64(sp)
2010ca6a:	56f2                	lw	a3,60(sp)
2010ca6c:	5762                	lw	a4,56(sp)
2010ca6e:	57d2                	lw	a5,52(sp)
2010ca70:	5842                	lw	a6,48(sp)
2010ca72:	58b2                	lw	a7,44(sp)
2010ca74:	5e22                	lw	t3,40(sp)
2010ca76:	5e92                	lw	t4,36(sp)
2010ca78:	5f02                	lw	t5,32(sp)
2010ca7a:	4ff2                	lw	t6,28(sp)
2010ca7c:	6125                	add	sp,sp,96
2010ca7e:	30200073          	mret

2010ca82 <metal_lc12_interrupt_vector_handler>:
metal_lc12_interrupt_vector_handler():
C:/VSD_Sqd_Project/sifive_hifive1_BitNet_MNIST_App/freedom-metal/src/drivers/riscv_cpu.c:277

/* The metal_lc12_interrupt_vector_handler() function can be redefined. */
void __attribute__((weak, interrupt))
metal_lc12_interrupt_vector_handler(void) {
2010ca82:	711d                	add	sp,sp,-96
2010ca84:	ce86                	sw	ra,92(sp)
2010ca86:	cc96                	sw	t0,88(sp)
2010ca88:	ca9a                	sw	t1,84(sp)
2010ca8a:	c89e                	sw	t2,80(sp)
2010ca8c:	c6a2                	sw	s0,76(sp)
2010ca8e:	c4aa                	sw	a0,72(sp)
2010ca90:	c2ae                	sw	a1,68(sp)
2010ca92:	c0b2                	sw	a2,64(sp)
2010ca94:	de36                	sw	a3,60(sp)
2010ca96:	dc3a                	sw	a4,56(sp)
2010ca98:	da3e                	sw	a5,52(sp)
2010ca9a:	d842                	sw	a6,48(sp)
2010ca9c:	d646                	sw	a7,44(sp)
2010ca9e:	d472                	sw	t3,40(sp)
2010caa0:	d276                	sw	t4,36(sp)
2010caa2:	d07a                	sw	t5,32(sp)
2010caa4:	ce7e                	sw	t6,28(sp)
2010caa6:	1080                	add	s0,sp,96
C:/VSD_Sqd_Project/sifive_hifive1_BitNet_MNIST_App/freedom-metal/src/drivers/riscv_cpu.c:278
    __METAL_IRQ_VECTOR_HANDLER(METAL_INTERRUPT_ID_LC12);
2010caa8:	ad8ff0ef          	jal	2010bd80 <__metal_myhart_id>
2010caac:	872a                	mv	a4,a0
C:/VSD_Sqd_Project/sifive_hifive1_BitNet_MNIST_App/freedom-metal/src/drivers/riscv_cpu.c:278 (discriminator 1)
2010caae:	800017b7          	lui	a5,0x80001
2010cab2:	070a                	sll	a4,a4,0x2
2010cab4:	a7878793          	add	a5,a5,-1416 # 80000a78 <__metal_cpu_table>
2010cab8:	97ba                	add	a5,a5,a4
2010caba:	439c                	lw	a5,0(a5)
2010cabc:	faf42623          	sw	a5,-84(s0)
2010cac0:	fac42783          	lw	a5,-84(s0)
2010cac4:	c78d                	beqz	a5,2010caee <metal_lc12_interrupt_vector_handler+0x6c>
2010cac6:	fac42503          	lw	a0,-84(s0)
2010caca:	a38ff0ef          	jal	2010bd02 <__metal_driver_cpu_interrupt_controller>
2010cace:	faa42423          	sw	a0,-88(s0)
2010cad2:	fa842783          	lw	a5,-88(s0)
2010cad6:	3387a783          	lw	a5,824(a5)
2010cada:	faf42223          	sw	a5,-92(s0)
2010cade:	fa842783          	lw	a5,-88(s0)
2010cae2:	3307a783          	lw	a5,816(a5)
2010cae6:	fa442583          	lw	a1,-92(s0)
2010caea:	4571                	li	a0,28
2010caec:	9782                	jalr	a5
C:/VSD_Sqd_Project/sifive_hifive1_BitNet_MNIST_App/freedom-metal/src/drivers/riscv_cpu.c:279
}
2010caee:	0001                	nop
2010caf0:	40f6                	lw	ra,92(sp)
2010caf2:	42e6                	lw	t0,88(sp)
2010caf4:	4356                	lw	t1,84(sp)
2010caf6:	43c6                	lw	t2,80(sp)
2010caf8:	4436                	lw	s0,76(sp)
2010cafa:	4526                	lw	a0,72(sp)
2010cafc:	4596                	lw	a1,68(sp)
2010cafe:	4606                	lw	a2,64(sp)
2010cb00:	56f2                	lw	a3,60(sp)
2010cb02:	5762                	lw	a4,56(sp)
2010cb04:	57d2                	lw	a5,52(sp)
2010cb06:	5842                	lw	a6,48(sp)
2010cb08:	58b2                	lw	a7,44(sp)
2010cb0a:	5e22                	lw	t3,40(sp)
2010cb0c:	5e92                	lw	t4,36(sp)
2010cb0e:	5f02                	lw	t5,32(sp)
2010cb10:	4ff2                	lw	t6,28(sp)
2010cb12:	6125                	add	sp,sp,96
2010cb14:	30200073          	mret

2010cb18 <metal_lc13_interrupt_vector_handler>:
metal_lc13_interrupt_vector_handler():
C:/VSD_Sqd_Project/sifive_hifive1_BitNet_MNIST_App/freedom-metal/src/drivers/riscv_cpu.c:283

/* The metal_lc13_interrupt_vector_handler() function can be redefined. */
void __attribute__((weak, interrupt))
metal_lc13_interrupt_vector_handler(void) {
2010cb18:	711d                	add	sp,sp,-96
2010cb1a:	ce86                	sw	ra,92(sp)
2010cb1c:	cc96                	sw	t0,88(sp)
2010cb1e:	ca9a                	sw	t1,84(sp)
2010cb20:	c89e                	sw	t2,80(sp)
2010cb22:	c6a2                	sw	s0,76(sp)
2010cb24:	c4aa                	sw	a0,72(sp)
2010cb26:	c2ae                	sw	a1,68(sp)
2010cb28:	c0b2                	sw	a2,64(sp)
2010cb2a:	de36                	sw	a3,60(sp)
2010cb2c:	dc3a                	sw	a4,56(sp)
2010cb2e:	da3e                	sw	a5,52(sp)
2010cb30:	d842                	sw	a6,48(sp)
2010cb32:	d646                	sw	a7,44(sp)
2010cb34:	d472                	sw	t3,40(sp)
2010cb36:	d276                	sw	t4,36(sp)
2010cb38:	d07a                	sw	t5,32(sp)
2010cb3a:	ce7e                	sw	t6,28(sp)
2010cb3c:	1080                	add	s0,sp,96
C:/VSD_Sqd_Project/sifive_hifive1_BitNet_MNIST_App/freedom-metal/src/drivers/riscv_cpu.c:284
    __METAL_IRQ_VECTOR_HANDLER(METAL_INTERRUPT_ID_LC13);
2010cb3e:	a42ff0ef          	jal	2010bd80 <__metal_myhart_id>
2010cb42:	872a                	mv	a4,a0
C:/VSD_Sqd_Project/sifive_hifive1_BitNet_MNIST_App/freedom-metal/src/drivers/riscv_cpu.c:284 (discriminator 1)
2010cb44:	800017b7          	lui	a5,0x80001
2010cb48:	070a                	sll	a4,a4,0x2
2010cb4a:	a7878793          	add	a5,a5,-1416 # 80000a78 <__metal_cpu_table>
2010cb4e:	97ba                	add	a5,a5,a4
2010cb50:	439c                	lw	a5,0(a5)
2010cb52:	faf42623          	sw	a5,-84(s0)
2010cb56:	fac42783          	lw	a5,-84(s0)
2010cb5a:	c78d                	beqz	a5,2010cb84 <metal_lc13_interrupt_vector_handler+0x6c>
2010cb5c:	fac42503          	lw	a0,-84(s0)
2010cb60:	9a2ff0ef          	jal	2010bd02 <__metal_driver_cpu_interrupt_controller>
2010cb64:	faa42423          	sw	a0,-88(s0)
2010cb68:	fa842783          	lw	a5,-88(s0)
2010cb6c:	3507a783          	lw	a5,848(a5)
2010cb70:	faf42223          	sw	a5,-92(s0)
2010cb74:	fa842783          	lw	a5,-88(s0)
2010cb78:	3487a783          	lw	a5,840(a5)
2010cb7c:	fa442583          	lw	a1,-92(s0)
2010cb80:	4575                	li	a0,29
2010cb82:	9782                	jalr	a5
C:/VSD_Sqd_Project/sifive_hifive1_BitNet_MNIST_App/freedom-metal/src/drivers/riscv_cpu.c:285
}
2010cb84:	0001                	nop
2010cb86:	40f6                	lw	ra,92(sp)
2010cb88:	42e6                	lw	t0,88(sp)
2010cb8a:	4356                	lw	t1,84(sp)
2010cb8c:	43c6                	lw	t2,80(sp)
2010cb8e:	4436                	lw	s0,76(sp)
2010cb90:	4526                	lw	a0,72(sp)
2010cb92:	4596                	lw	a1,68(sp)
2010cb94:	4606                	lw	a2,64(sp)
2010cb96:	56f2                	lw	a3,60(sp)
2010cb98:	5762                	lw	a4,56(sp)
2010cb9a:	57d2                	lw	a5,52(sp)
2010cb9c:	5842                	lw	a6,48(sp)
2010cb9e:	58b2                	lw	a7,44(sp)
2010cba0:	5e22                	lw	t3,40(sp)
2010cba2:	5e92                	lw	t4,36(sp)
2010cba4:	5f02                	lw	t5,32(sp)
2010cba6:	4ff2                	lw	t6,28(sp)
2010cba8:	6125                	add	sp,sp,96
2010cbaa:	30200073          	mret

2010cbae <metal_lc14_interrupt_vector_handler>:
metal_lc14_interrupt_vector_handler():
C:/VSD_Sqd_Project/sifive_hifive1_BitNet_MNIST_App/freedom-metal/src/drivers/riscv_cpu.c:289

/* The metal_lc14_interrupt_vector_handler() function can be redefined. */
void __attribute__((weak, interrupt))
metal_lc14_interrupt_vector_handler(void) {
2010cbae:	711d                	add	sp,sp,-96
2010cbb0:	ce86                	sw	ra,92(sp)
2010cbb2:	cc96                	sw	t0,88(sp)
2010cbb4:	ca9a                	sw	t1,84(sp)
2010cbb6:	c89e                	sw	t2,80(sp)
2010cbb8:	c6a2                	sw	s0,76(sp)
2010cbba:	c4aa                	sw	a0,72(sp)
2010cbbc:	c2ae                	sw	a1,68(sp)
2010cbbe:	c0b2                	sw	a2,64(sp)
2010cbc0:	de36                	sw	a3,60(sp)
2010cbc2:	dc3a                	sw	a4,56(sp)
2010cbc4:	da3e                	sw	a5,52(sp)
2010cbc6:	d842                	sw	a6,48(sp)
2010cbc8:	d646                	sw	a7,44(sp)
2010cbca:	d472                	sw	t3,40(sp)
2010cbcc:	d276                	sw	t4,36(sp)
2010cbce:	d07a                	sw	t5,32(sp)
2010cbd0:	ce7e                	sw	t6,28(sp)
2010cbd2:	1080                	add	s0,sp,96
C:/VSD_Sqd_Project/sifive_hifive1_BitNet_MNIST_App/freedom-metal/src/drivers/riscv_cpu.c:290
    __METAL_IRQ_VECTOR_HANDLER(METAL_INTERRUPT_ID_LC14);
2010cbd4:	9acff0ef          	jal	2010bd80 <__metal_myhart_id>
2010cbd8:	872a                	mv	a4,a0
C:/VSD_Sqd_Project/sifive_hifive1_BitNet_MNIST_App/freedom-metal/src/drivers/riscv_cpu.c:290 (discriminator 1)
2010cbda:	800017b7          	lui	a5,0x80001
2010cbde:	070a                	sll	a4,a4,0x2
2010cbe0:	a7878793          	add	a5,a5,-1416 # 80000a78 <__metal_cpu_table>
2010cbe4:	97ba                	add	a5,a5,a4
2010cbe6:	439c                	lw	a5,0(a5)
2010cbe8:	faf42623          	sw	a5,-84(s0)
2010cbec:	fac42783          	lw	a5,-84(s0)
2010cbf0:	c78d                	beqz	a5,2010cc1a <metal_lc14_interrupt_vector_handler+0x6c>
2010cbf2:	fac42503          	lw	a0,-84(s0)
2010cbf6:	90cff0ef          	jal	2010bd02 <__metal_driver_cpu_interrupt_controller>
2010cbfa:	faa42423          	sw	a0,-88(s0)
2010cbfe:	fa842783          	lw	a5,-88(s0)
2010cc02:	3687a783          	lw	a5,872(a5)
2010cc06:	faf42223          	sw	a5,-92(s0)
2010cc0a:	fa842783          	lw	a5,-88(s0)
2010cc0e:	3607a783          	lw	a5,864(a5)
2010cc12:	fa442583          	lw	a1,-92(s0)
2010cc16:	4579                	li	a0,30
2010cc18:	9782                	jalr	a5
C:/VSD_Sqd_Project/sifive_hifive1_BitNet_MNIST_App/freedom-metal/src/drivers/riscv_cpu.c:291
}
2010cc1a:	0001                	nop
2010cc1c:	40f6                	lw	ra,92(sp)
2010cc1e:	42e6                	lw	t0,88(sp)
2010cc20:	4356                	lw	t1,84(sp)
2010cc22:	43c6                	lw	t2,80(sp)
2010cc24:	4436                	lw	s0,76(sp)
2010cc26:	4526                	lw	a0,72(sp)
2010cc28:	4596                	lw	a1,68(sp)
2010cc2a:	4606                	lw	a2,64(sp)
2010cc2c:	56f2                	lw	a3,60(sp)
2010cc2e:	5762                	lw	a4,56(sp)
2010cc30:	57d2                	lw	a5,52(sp)
2010cc32:	5842                	lw	a6,48(sp)
2010cc34:	58b2                	lw	a7,44(sp)
2010cc36:	5e22                	lw	t3,40(sp)
2010cc38:	5e92                	lw	t4,36(sp)
2010cc3a:	5f02                	lw	t5,32(sp)
2010cc3c:	4ff2                	lw	t6,28(sp)
2010cc3e:	6125                	add	sp,sp,96
2010cc40:	30200073          	mret

2010cc44 <metal_lc15_interrupt_vector_handler>:
metal_lc15_interrupt_vector_handler():
C:/VSD_Sqd_Project/sifive_hifive1_BitNet_MNIST_App/freedom-metal/src/drivers/riscv_cpu.c:295

/* The metal_lc15_interrupt_vector_handler() function can be redefined. */
void __attribute__((weak, interrupt))
metal_lc15_interrupt_vector_handler(void) {
2010cc44:	711d                	add	sp,sp,-96
2010cc46:	ce86                	sw	ra,92(sp)
2010cc48:	cc96                	sw	t0,88(sp)
2010cc4a:	ca9a                	sw	t1,84(sp)
2010cc4c:	c89e                	sw	t2,80(sp)
2010cc4e:	c6a2                	sw	s0,76(sp)
2010cc50:	c4aa                	sw	a0,72(sp)
2010cc52:	c2ae                	sw	a1,68(sp)
2010cc54:	c0b2                	sw	a2,64(sp)
2010cc56:	de36                	sw	a3,60(sp)
2010cc58:	dc3a                	sw	a4,56(sp)
2010cc5a:	da3e                	sw	a5,52(sp)
2010cc5c:	d842                	sw	a6,48(sp)
2010cc5e:	d646                	sw	a7,44(sp)
2010cc60:	d472                	sw	t3,40(sp)
2010cc62:	d276                	sw	t4,36(sp)
2010cc64:	d07a                	sw	t5,32(sp)
2010cc66:	ce7e                	sw	t6,28(sp)
2010cc68:	1080                	add	s0,sp,96
C:/VSD_Sqd_Project/sifive_hifive1_BitNet_MNIST_App/freedom-metal/src/drivers/riscv_cpu.c:296
    __METAL_IRQ_VECTOR_HANDLER(METAL_INTERRUPT_ID_LC15);
2010cc6a:	916ff0ef          	jal	2010bd80 <__metal_myhart_id>
2010cc6e:	872a                	mv	a4,a0
C:/VSD_Sqd_Project/sifive_hifive1_BitNet_MNIST_App/freedom-metal/src/drivers/riscv_cpu.c:296 (discriminator 1)
2010cc70:	800017b7          	lui	a5,0x80001
2010cc74:	070a                	sll	a4,a4,0x2
2010cc76:	a7878793          	add	a5,a5,-1416 # 80000a78 <__metal_cpu_table>
2010cc7a:	97ba                	add	a5,a5,a4
2010cc7c:	439c                	lw	a5,0(a5)
2010cc7e:	faf42623          	sw	a5,-84(s0)
2010cc82:	fac42783          	lw	a5,-84(s0)
2010cc86:	c78d                	beqz	a5,2010ccb0 <metal_lc15_interrupt_vector_handler+0x6c>
2010cc88:	fac42503          	lw	a0,-84(s0)
2010cc8c:	876ff0ef          	jal	2010bd02 <__metal_driver_cpu_interrupt_controller>
2010cc90:	faa42423          	sw	a0,-88(s0)
2010cc94:	fa842783          	lw	a5,-88(s0)
2010cc98:	3807a783          	lw	a5,896(a5)
2010cc9c:	faf42223          	sw	a5,-92(s0)
2010cca0:	fa842783          	lw	a5,-88(s0)
2010cca4:	3787a783          	lw	a5,888(a5)
2010cca8:	fa442583          	lw	a1,-92(s0)
2010ccac:	457d                	li	a0,31
2010ccae:	9782                	jalr	a5
C:/VSD_Sqd_Project/sifive_hifive1_BitNet_MNIST_App/freedom-metal/src/drivers/riscv_cpu.c:297
}
2010ccb0:	0001                	nop
2010ccb2:	40f6                	lw	ra,92(sp)
2010ccb4:	42e6                	lw	t0,88(sp)
2010ccb6:	4356                	lw	t1,84(sp)
2010ccb8:	43c6                	lw	t2,80(sp)
2010ccba:	4436                	lw	s0,76(sp)
2010ccbc:	4526                	lw	a0,72(sp)
2010ccbe:	4596                	lw	a1,68(sp)
2010ccc0:	4606                	lw	a2,64(sp)
2010ccc2:	56f2                	lw	a3,60(sp)
2010ccc4:	5762                	lw	a4,56(sp)
2010ccc6:	57d2                	lw	a5,52(sp)
2010ccc8:	5842                	lw	a6,48(sp)
2010ccca:	58b2                	lw	a7,44(sp)
2010cccc:	5e22                	lw	t3,40(sp)
2010ccce:	5e92                	lw	t4,36(sp)
2010ccd0:	5f02                	lw	t5,32(sp)
2010ccd2:	4ff2                	lw	t6,28(sp)
2010ccd4:	6125                	add	sp,sp,96
2010ccd6:	30200073          	mret

2010ccda <__metal_controller_interrupt_vector_mode>:
__metal_controller_interrupt_vector_mode():
C:/VSD_Sqd_Project/sifive_hifive1_BitNet_MNIST_App/freedom-metal/src/drivers/riscv_cpu.c:299

metal_vector_mode __metal_controller_interrupt_vector_mode(void) {
2010ccda:	1101                	add	sp,sp,-32
2010ccdc:	ce22                	sw	s0,28(sp)
2010ccde:	1000                	add	s0,sp,32
C:/VSD_Sqd_Project/sifive_hifive1_BitNet_MNIST_App/freedom-metal/src/drivers/riscv_cpu.c:302
    uintptr_t val;

    __asm__ volatile("csrr %0, mtvec" : "=r"(val));
2010cce0:	305027f3          	csrr	a5,mtvec
2010cce4:	fef42623          	sw	a5,-20(s0)
C:/VSD_Sqd_Project/sifive_hifive1_BitNet_MNIST_App/freedom-metal/src/drivers/riscv_cpu.c:303
    val &= METAL_MTVEC_MASK;
2010cce8:	fec42783          	lw	a5,-20(s0)
2010ccec:	03f7f793          	and	a5,a5,63
2010ccf0:	fef42623          	sw	a5,-20(s0)
C:/VSD_Sqd_Project/sifive_hifive1_BitNet_MNIST_App/freedom-metal/src/drivers/riscv_cpu.c:305

    switch (val) {
2010ccf4:	fec42703          	lw	a4,-20(s0)
2010ccf8:	478d                	li	a5,3
2010ccfa:	02f70363          	beq	a4,a5,2010cd20 <__metal_controller_interrupt_vector_mode+0x46>
2010ccfe:	fec42703          	lw	a4,-20(s0)
2010cd02:	478d                	li	a5,3
2010cd04:	02e7e263          	bltu	a5,a4,2010cd28 <__metal_controller_interrupt_vector_mode+0x4e>
2010cd08:	fec42703          	lw	a4,-20(s0)
2010cd0c:	4785                	li	a5,1
2010cd0e:	00f70b63          	beq	a4,a5,2010cd24 <__metal_controller_interrupt_vector_mode+0x4a>
2010cd12:	fec42703          	lw	a4,-20(s0)
2010cd16:	4789                	li	a5,2
2010cd18:	00f71863          	bne	a4,a5,2010cd28 <__metal_controller_interrupt_vector_mode+0x4e>
C:/VSD_Sqd_Project/sifive_hifive1_BitNet_MNIST_App/freedom-metal/src/drivers/riscv_cpu.c:307
    case METAL_MTVEC_CLIC:
        return METAL_SELECTIVE_VECTOR_MODE;
2010cd1c:	478d                	li	a5,3
2010cd1e:	a031                	j	2010cd2a <__metal_controller_interrupt_vector_mode+0x50>
C:/VSD_Sqd_Project/sifive_hifive1_BitNet_MNIST_App/freedom-metal/src/drivers/riscv_cpu.c:309
    case METAL_MTVEC_CLIC_VECTORED:
        return METAL_HARDWARE_VECTOR_MODE;
2010cd20:	4791                	li	a5,4
2010cd22:	a021                	j	2010cd2a <__metal_controller_interrupt_vector_mode+0x50>
C:/VSD_Sqd_Project/sifive_hifive1_BitNet_MNIST_App/freedom-metal/src/drivers/riscv_cpu.c:311
    case METAL_MTVEC_VECTORED:
        return METAL_VECTOR_MODE;
2010cd24:	4785                	li	a5,1
2010cd26:	a011                	j	2010cd2a <__metal_controller_interrupt_vector_mode+0x50>
C:/VSD_Sqd_Project/sifive_hifive1_BitNet_MNIST_App/freedom-metal/src/drivers/riscv_cpu.c:313
    }
    return METAL_DIRECT_MODE;
2010cd28:	4781                	li	a5,0
C:/VSD_Sqd_Project/sifive_hifive1_BitNet_MNIST_App/freedom-metal/src/drivers/riscv_cpu.c:314
}
2010cd2a:	853e                	mv	a0,a5
2010cd2c:	4472                	lw	s0,28(sp)
2010cd2e:	6105                	add	sp,sp,32
2010cd30:	8082                	ret

2010cd32 <__metal_controller_interrupt_vector>:
__metal_controller_interrupt_vector():
C:/VSD_Sqd_Project/sifive_hifive1_BitNet_MNIST_App/freedom-metal/src/drivers/riscv_cpu.c:317

void __metal_controller_interrupt_vector(metal_vector_mode mode,
                                         void *vec_table) {
2010cd32:	7179                	add	sp,sp,-48
2010cd34:	d622                	sw	s0,44(sp)
2010cd36:	1800                	add	s0,sp,48
2010cd38:	fca42e23          	sw	a0,-36(s0)
2010cd3c:	fcb42c23          	sw	a1,-40(s0)
C:/VSD_Sqd_Project/sifive_hifive1_BitNet_MNIST_App/freedom-metal/src/drivers/riscv_cpu.c:320
    uintptr_t trap_entry, val;

    __asm__ volatile("csrr %0, mtvec" : "=r"(val));
2010cd40:	305027f3          	csrr	a5,mtvec
2010cd44:	fef42623          	sw	a5,-20(s0)
C:/VSD_Sqd_Project/sifive_hifive1_BitNet_MNIST_App/freedom-metal/src/drivers/riscv_cpu.c:321
    val &= ~(METAL_MTVEC_CLIC_VECTORED | METAL_MTVEC_CLIC_RESERVED);
2010cd48:	fec42783          	lw	a5,-20(s0)
2010cd4c:	fc07f793          	and	a5,a5,-64
2010cd50:	fef42623          	sw	a5,-20(s0)
C:/VSD_Sqd_Project/sifive_hifive1_BitNet_MNIST_App/freedom-metal/src/drivers/riscv_cpu.c:322
    trap_entry = (uintptr_t)vec_table;
2010cd54:	fd842783          	lw	a5,-40(s0)
2010cd58:	fef42423          	sw	a5,-24(s0)
C:/VSD_Sqd_Project/sifive_hifive1_BitNet_MNIST_App/freedom-metal/src/drivers/riscv_cpu.c:324

    switch (mode) {
2010cd5c:	fdc42703          	lw	a4,-36(s0)
2010cd60:	4791                	li	a5,4
2010cd62:	04f70563          	beq	a4,a5,2010cdac <__metal_controller_interrupt_vector+0x7a>
2010cd66:	fdc42703          	lw	a4,-36(s0)
2010cd6a:	4791                	li	a5,4
2010cd6c:	06e7e863          	bltu	a5,a4,2010cddc <__metal_controller_interrupt_vector+0xaa>
2010cd70:	fdc42703          	lw	a4,-36(s0)
2010cd74:	478d                	li	a5,3
2010cd76:	06e7e363          	bltu	a5,a4,2010cddc <__metal_controller_interrupt_vector+0xaa>
2010cd7a:	fdc42703          	lw	a4,-36(s0)
2010cd7e:	4789                	li	a5,2
2010cd80:	00f77b63          	bgeu	a4,a5,2010cd96 <__metal_controller_interrupt_vector+0x64>
2010cd84:	fdc42783          	lw	a5,-36(s0)
2010cd88:	c7a1                	beqz	a5,2010cdd0 <__metal_controller_interrupt_vector+0x9e>
2010cd8a:	fdc42703          	lw	a4,-36(s0)
2010cd8e:	4785                	li	a5,1
2010cd90:	02f70963          	beq	a4,a5,2010cdc2 <__metal_controller_interrupt_vector+0x90>
C:/VSD_Sqd_Project/sifive_hifive1_BitNet_MNIST_App/freedom-metal/src/drivers/riscv_cpu.c:344
    case METAL_DIRECT_MODE:
        __asm__ volatile(
            "csrw mtvec, %0" ::"r"(trap_entry & ~METAL_MTVEC_CLIC_VECTORED));
        break;
    }
}
2010cd94:	a0a1                	j	2010cddc <__metal_controller_interrupt_vector+0xaa>
C:/VSD_Sqd_Project/sifive_hifive1_BitNet_MNIST_App/freedom-metal/src/drivers/riscv_cpu.c:327
        __asm__ volatile("csrw 0x307, %0" ::"r"(trap_entry));
2010cd96:	fe842783          	lw	a5,-24(s0)
2010cd9a:	30779073          	csrw	mtvt,a5
C:/VSD_Sqd_Project/sifive_hifive1_BitNet_MNIST_App/freedom-metal/src/drivers/riscv_cpu.c:328
        __asm__ volatile("csrw mtvec, %0" ::"r"(val | METAL_MTVEC_CLIC));
2010cd9e:	fec42783          	lw	a5,-20(s0)
2010cda2:	0027e793          	or	a5,a5,2
2010cda6:	30579073          	csrw	mtvec,a5
C:/VSD_Sqd_Project/sifive_hifive1_BitNet_MNIST_App/freedom-metal/src/drivers/riscv_cpu.c:329
        break;
2010cdaa:	a80d                	j	2010cddc <__metal_controller_interrupt_vector+0xaa>
C:/VSD_Sqd_Project/sifive_hifive1_BitNet_MNIST_App/freedom-metal/src/drivers/riscv_cpu.c:331
        __asm__ volatile("csrw 0x307, %0" ::"r"(trap_entry));
2010cdac:	fe842783          	lw	a5,-24(s0)
2010cdb0:	30779073          	csrw	mtvt,a5
C:/VSD_Sqd_Project/sifive_hifive1_BitNet_MNIST_App/freedom-metal/src/drivers/riscv_cpu.c:333
            "csrw mtvec, %0" ::"r"(val | METAL_MTVEC_CLIC_VECTORED));
2010cdb4:	fec42783          	lw	a5,-20(s0)
2010cdb8:	0037e793          	or	a5,a5,3
C:/VSD_Sqd_Project/sifive_hifive1_BitNet_MNIST_App/freedom-metal/src/drivers/riscv_cpu.c:332
        __asm__ volatile(
2010cdbc:	30579073          	csrw	mtvec,a5
C:/VSD_Sqd_Project/sifive_hifive1_BitNet_MNIST_App/freedom-metal/src/drivers/riscv_cpu.c:334
        break;
2010cdc0:	a831                	j	2010cddc <__metal_controller_interrupt_vector+0xaa>
C:/VSD_Sqd_Project/sifive_hifive1_BitNet_MNIST_App/freedom-metal/src/drivers/riscv_cpu.c:337
            "csrw mtvec, %0" ::"r"(trap_entry | METAL_MTVEC_VECTORED));
2010cdc2:	fe842783          	lw	a5,-24(s0)
2010cdc6:	0017e793          	or	a5,a5,1
C:/VSD_Sqd_Project/sifive_hifive1_BitNet_MNIST_App/freedom-metal/src/drivers/riscv_cpu.c:336
        __asm__ volatile(
2010cdca:	30579073          	csrw	mtvec,a5
C:/VSD_Sqd_Project/sifive_hifive1_BitNet_MNIST_App/freedom-metal/src/drivers/riscv_cpu.c:338
        break;
2010cdce:	a039                	j	2010cddc <__metal_controller_interrupt_vector+0xaa>
C:/VSD_Sqd_Project/sifive_hifive1_BitNet_MNIST_App/freedom-metal/src/drivers/riscv_cpu.c:341
            "csrw mtvec, %0" ::"r"(trap_entry & ~METAL_MTVEC_CLIC_VECTORED));
2010cdd0:	fe842783          	lw	a5,-24(s0)
2010cdd4:	9bf1                	and	a5,a5,-4
C:/VSD_Sqd_Project/sifive_hifive1_BitNet_MNIST_App/freedom-metal/src/drivers/riscv_cpu.c:340
        __asm__ volatile(
2010cdd6:	30579073          	csrw	mtvec,a5
C:/VSD_Sqd_Project/sifive_hifive1_BitNet_MNIST_App/freedom-metal/src/drivers/riscv_cpu.c:342
        break;
2010cdda:	0001                	nop
C:/VSD_Sqd_Project/sifive_hifive1_BitNet_MNIST_App/freedom-metal/src/drivers/riscv_cpu.c:344
}
2010cddc:	0001                	nop
2010cdde:	5432                	lw	s0,44(sp)
2010cde0:	6145                	add	sp,sp,48
2010cde2:	8082                	ret

2010cde4 <__metal_valid_interrupt_id>:
__metal_valid_interrupt_id():
C:/VSD_Sqd_Project/sifive_hifive1_BitNet_MNIST_App/freedom-metal/src/drivers/riscv_cpu.c:346

int __metal_valid_interrupt_id(int id) {
2010cde4:	1101                	add	sp,sp,-32
2010cde6:	ce22                	sw	s0,28(sp)
2010cde8:	1000                	add	s0,sp,32
2010cdea:	fea42623          	sw	a0,-20(s0)
C:/VSD_Sqd_Project/sifive_hifive1_BitNet_MNIST_App/freedom-metal/src/drivers/riscv_cpu.c:347
    switch (id) {
2010cdee:	fec42703          	lw	a4,-20(s0)
2010cdf2:	47fd                	li	a5,31
2010cdf4:	02e7c563          	blt	a5,a4,2010ce1e <__metal_valid_interrupt_id+0x3a>
2010cdf8:	fec42703          	lw	a4,-20(s0)
2010cdfc:	478d                	li	a5,3
2010cdfe:	02f74863          	blt	a4,a5,2010ce2e <__metal_valid_interrupt_id+0x4a>
2010ce02:	fec42783          	lw	a5,-20(s0)
2010ce06:	7745                	lui	a4,0xffff1
2010ce08:	88870713          	add	a4,a4,-1912 # ffff0888 <metal_segment_heap_target_end+0x7ffef008>
2010ce0c:	00f757b3          	srl	a5,a4,a5
2010ce10:	8b85                	and	a5,a5,1
2010ce12:	00f037b3          	snez	a5,a5
2010ce16:	0ff7f793          	zext.b	a5,a5
2010ce1a:	eb81                	bnez	a5,2010ce2a <__metal_valid_interrupt_id+0x46>
C:/VSD_Sqd_Project/sifive_hifive1_BitNet_MNIST_App/freedom-metal/src/drivers/riscv_cpu.c:370
    case METAL_INTERRUPT_ID_LC14:
    case METAL_INTERRUPT_ID_LC15:
    case METAL_INTERRUPT_ID_BEU:
        return 1;
    default:
        break;
2010ce1c:	a809                	j	2010ce2e <__metal_valid_interrupt_id+0x4a>
C:/VSD_Sqd_Project/sifive_hifive1_BitNet_MNIST_App/freedom-metal/src/drivers/riscv_cpu.c:347
    switch (id) {
2010ce1e:	fec42703          	lw	a4,-20(s0)
2010ce22:	08000793          	li	a5,128
2010ce26:	00f71463          	bne	a4,a5,2010ce2e <__metal_valid_interrupt_id+0x4a>
C:/VSD_Sqd_Project/sifive_hifive1_BitNet_MNIST_App/freedom-metal/src/drivers/riscv_cpu.c:368
        return 1;
2010ce2a:	4785                	li	a5,1
2010ce2c:	a019                	j	2010ce32 <__metal_valid_interrupt_id+0x4e>
C:/VSD_Sqd_Project/sifive_hifive1_BitNet_MNIST_App/freedom-metal/src/drivers/riscv_cpu.c:370
        break;
2010ce2e:	0001                	nop
C:/VSD_Sqd_Project/sifive_hifive1_BitNet_MNIST_App/freedom-metal/src/drivers/riscv_cpu.c:373
    }

    return 0;
2010ce30:	4781                	li	a5,0
C:/VSD_Sqd_Project/sifive_hifive1_BitNet_MNIST_App/freedom-metal/src/drivers/riscv_cpu.c:374
}
2010ce32:	853e                	mv	a0,a5
2010ce34:	4472                	lw	s0,28(sp)
2010ce36:	6105                	add	sp,sp,32
2010ce38:	8082                	ret

2010ce3a <__metal_local_interrupt_enable>:
__metal_local_interrupt_enable():
C:/VSD_Sqd_Project/sifive_hifive1_BitNet_MNIST_App/freedom-metal/src/drivers/riscv_cpu.c:377

int __metal_local_interrupt_enable(struct metal_interrupt *controller,
                                   metal_interrupt_id_e id, int enable) {
2010ce3a:	7179                	add	sp,sp,-48
2010ce3c:	d606                	sw	ra,44(sp)
2010ce3e:	d422                	sw	s0,40(sp)
2010ce40:	1800                	add	s0,sp,48
2010ce42:	fca42e23          	sw	a0,-36(s0)
2010ce46:	fcb42c23          	sw	a1,-40(s0)
2010ce4a:	fcc42a23          	sw	a2,-44(s0)
C:/VSD_Sqd_Project/sifive_hifive1_BitNet_MNIST_App/freedom-metal/src/drivers/riscv_cpu.c:378
    int rc = 0;
2010ce4e:	fe042623          	sw	zero,-20(s0)
C:/VSD_Sqd_Project/sifive_hifive1_BitNet_MNIST_App/freedom-metal/src/drivers/riscv_cpu.c:380

    if (!controller) {
2010ce52:	fdc42783          	lw	a5,-36(s0)
2010ce56:	e399                	bnez	a5,2010ce5c <__metal_local_interrupt_enable+0x22>
C:/VSD_Sqd_Project/sifive_hifive1_BitNet_MNIST_App/freedom-metal/src/drivers/riscv_cpu.c:381
        return -1;
2010ce58:	57fd                	li	a5,-1
2010ce5a:	a849                	j	2010ceec <__metal_local_interrupt_enable+0xb2>
C:/VSD_Sqd_Project/sifive_hifive1_BitNet_MNIST_App/freedom-metal/src/drivers/riscv_cpu.c:384
    }

    switch (id) {
2010ce5c:	fd842703          	lw	a4,-40(s0)
2010ce60:	47fd                	li	a5,31
2010ce62:	08e7e063          	bltu	a5,a4,2010cee2 <__metal_local_interrupt_enable+0xa8>
2010ce66:	fd842783          	lw	a5,-40(s0)
2010ce6a:	00279713          	sll	a4,a5,0x2
2010ce6e:	201097b7          	lui	a5,0x20109
2010ce72:	a5878793          	add	a5,a5,-1448 # 20108a58 <__metal_driver_vtable_riscv_clint0+0x64>
2010ce76:	97ba                	add	a5,a5,a4
2010ce78:	439c                	lw	a5,0(a5)
2010ce7a:	8782                	jr	a5
C:/VSD_Sqd_Project/sifive_hifive1_BitNet_MNIST_App/freedom-metal/src/drivers/riscv_cpu.c:386
    case METAL_INTERRUPT_ID_BASE:
        if (enable) {
2010ce7c:	fd442783          	lw	a5,-44(s0)
2010ce80:	c781                	beqz	a5,2010ce88 <__metal_local_interrupt_enable+0x4e>
C:/VSD_Sqd_Project/sifive_hifive1_BitNet_MNIST_App/freedom-metal/src/drivers/riscv_cpu.c:387
            __metal_interrupt_global_enable();
2010ce82:	f19fe0ef          	jal	2010bd9a <__metal_interrupt_global_enable>
C:/VSD_Sqd_Project/sifive_hifive1_BitNet_MNIST_App/freedom-metal/src/drivers/riscv_cpu.c:391
        } else {
            __metal_interrupt_global_disable();
        }
        break;
2010ce86:	a08d                	j	2010cee8 <__metal_local_interrupt_enable+0xae>
C:/VSD_Sqd_Project/sifive_hifive1_BitNet_MNIST_App/freedom-metal/src/drivers/riscv_cpu.c:389
            __metal_interrupt_global_disable();
2010ce88:	f2bfe0ef          	jal	2010bdb2 <__metal_interrupt_global_disable>
C:/VSD_Sqd_Project/sifive_hifive1_BitNet_MNIST_App/freedom-metal/src/drivers/riscv_cpu.c:391
        break;
2010ce8c:	a8b1                	j	2010cee8 <__metal_local_interrupt_enable+0xae>
C:/VSD_Sqd_Project/sifive_hifive1_BitNet_MNIST_App/freedom-metal/src/drivers/riscv_cpu.c:393
    case METAL_INTERRUPT_ID_SW:
        if (enable) {
2010ce8e:	fd442783          	lw	a5,-44(s0)
2010ce92:	c781                	beqz	a5,2010ce9a <__metal_local_interrupt_enable+0x60>
C:/VSD_Sqd_Project/sifive_hifive1_BitNet_MNIST_App/freedom-metal/src/drivers/riscv_cpu.c:394
            __metal_interrupt_software_enable();
2010ce94:	f37fe0ef          	jal	2010bdca <__metal_interrupt_software_enable>
C:/VSD_Sqd_Project/sifive_hifive1_BitNet_MNIST_App/freedom-metal/src/drivers/riscv_cpu.c:398
        } else {
            __metal_interrupt_software_disable();
        }
        break;
2010ce98:	a881                	j	2010cee8 <__metal_local_interrupt_enable+0xae>
C:/VSD_Sqd_Project/sifive_hifive1_BitNet_MNIST_App/freedom-metal/src/drivers/riscv_cpu.c:396
            __metal_interrupt_software_disable();
2010ce9a:	f49fe0ef          	jal	2010bde2 <__metal_interrupt_software_disable>
C:/VSD_Sqd_Project/sifive_hifive1_BitNet_MNIST_App/freedom-metal/src/drivers/riscv_cpu.c:398
        break;
2010ce9e:	a0a9                	j	2010cee8 <__metal_local_interrupt_enable+0xae>
C:/VSD_Sqd_Project/sifive_hifive1_BitNet_MNIST_App/freedom-metal/src/drivers/riscv_cpu.c:400
    case METAL_INTERRUPT_ID_TMR:
        if (enable) {
2010cea0:	fd442783          	lw	a5,-44(s0)
2010cea4:	c781                	beqz	a5,2010ceac <__metal_local_interrupt_enable+0x72>
C:/VSD_Sqd_Project/sifive_hifive1_BitNet_MNIST_App/freedom-metal/src/drivers/riscv_cpu.c:401
            __metal_interrupt_timer_enable();
2010cea6:	f55fe0ef          	jal	2010bdfa <__metal_interrupt_timer_enable>
C:/VSD_Sqd_Project/sifive_hifive1_BitNet_MNIST_App/freedom-metal/src/drivers/riscv_cpu.c:405
        } else {
            __metal_interrupt_timer_disable();
        }
        break;
2010ceaa:	a83d                	j	2010cee8 <__metal_local_interrupt_enable+0xae>
C:/VSD_Sqd_Project/sifive_hifive1_BitNet_MNIST_App/freedom-metal/src/drivers/riscv_cpu.c:403
            __metal_interrupt_timer_disable();
2010ceac:	f69fe0ef          	jal	2010be14 <__metal_interrupt_timer_disable>
C:/VSD_Sqd_Project/sifive_hifive1_BitNet_MNIST_App/freedom-metal/src/drivers/riscv_cpu.c:405
        break;
2010ceb0:	a825                	j	2010cee8 <__metal_local_interrupt_enable+0xae>
C:/VSD_Sqd_Project/sifive_hifive1_BitNet_MNIST_App/freedom-metal/src/drivers/riscv_cpu.c:407
    case METAL_INTERRUPT_ID_EXT:
        if (enable) {
2010ceb2:	fd442783          	lw	a5,-44(s0)
2010ceb6:	c781                	beqz	a5,2010cebe <__metal_local_interrupt_enable+0x84>
C:/VSD_Sqd_Project/sifive_hifive1_BitNet_MNIST_App/freedom-metal/src/drivers/riscv_cpu.c:408
            __metal_interrupt_external_enable();
2010ceb8:	f77fe0ef          	jal	2010be2e <__metal_interrupt_external_enable>
C:/VSD_Sqd_Project/sifive_hifive1_BitNet_MNIST_App/freedom-metal/src/drivers/riscv_cpu.c:412
        } else {
            __metal_interrupt_external_disable();
        }
        break;
2010cebc:	a035                	j	2010cee8 <__metal_local_interrupt_enable+0xae>
C:/VSD_Sqd_Project/sifive_hifive1_BitNet_MNIST_App/freedom-metal/src/drivers/riscv_cpu.c:410
            __metal_interrupt_external_disable();
2010cebe:	f8dfe0ef          	jal	2010be4a <__metal_interrupt_external_disable>
C:/VSD_Sqd_Project/sifive_hifive1_BitNet_MNIST_App/freedom-metal/src/drivers/riscv_cpu.c:412
        break;
2010cec2:	a01d                	j	2010cee8 <__metal_local_interrupt_enable+0xae>
C:/VSD_Sqd_Project/sifive_hifive1_BitNet_MNIST_App/freedom-metal/src/drivers/riscv_cpu.c:429
    case METAL_INTERRUPT_ID_LC11:
    case METAL_INTERRUPT_ID_LC12:
    case METAL_INTERRUPT_ID_LC13:
    case METAL_INTERRUPT_ID_LC14:
    case METAL_INTERRUPT_ID_LC15:
        if (enable) {
2010cec4:	fd442783          	lw	a5,-44(s0)
2010cec8:	c799                	beqz	a5,2010ced6 <__metal_local_interrupt_enable+0x9c>
C:/VSD_Sqd_Project/sifive_hifive1_BitNet_MNIST_App/freedom-metal/src/drivers/riscv_cpu.c:430
            __metal_interrupt_local_enable(id);
2010ceca:	fd842783          	lw	a5,-40(s0)
2010cece:	853e                	mv	a0,a5
2010ced0:	f97fe0ef          	jal	2010be66 <__metal_interrupt_local_enable>
C:/VSD_Sqd_Project/sifive_hifive1_BitNet_MNIST_App/freedom-metal/src/drivers/riscv_cpu.c:434
        } else {
            __metal_interrupt_local_disable(id);
        }
        break;
2010ced4:	a811                	j	2010cee8 <__metal_local_interrupt_enable+0xae>
C:/VSD_Sqd_Project/sifive_hifive1_BitNet_MNIST_App/freedom-metal/src/drivers/riscv_cpu.c:432
            __metal_interrupt_local_disable(id);
2010ced6:	fd842783          	lw	a5,-40(s0)
2010ceda:	853e                	mv	a0,a5
2010cedc:	fb7fe0ef          	jal	2010be92 <__metal_interrupt_local_disable>
C:/VSD_Sqd_Project/sifive_hifive1_BitNet_MNIST_App/freedom-metal/src/drivers/riscv_cpu.c:434
        break;
2010cee0:	a021                	j	2010cee8 <__metal_local_interrupt_enable+0xae>
C:/VSD_Sqd_Project/sifive_hifive1_BitNet_MNIST_App/freedom-metal/src/drivers/riscv_cpu.c:436
    default:
        rc = -1;
2010cee2:	57fd                	li	a5,-1
2010cee4:	fef42623          	sw	a5,-20(s0)
C:/VSD_Sqd_Project/sifive_hifive1_BitNet_MNIST_App/freedom-metal/src/drivers/riscv_cpu.c:438
    }
    return rc;
2010cee8:	fec42783          	lw	a5,-20(s0)
C:/VSD_Sqd_Project/sifive_hifive1_BitNet_MNIST_App/freedom-metal/src/drivers/riscv_cpu.c:439
}
2010ceec:	853e                	mv	a0,a5
2010ceee:	50b2                	lw	ra,44(sp)
2010cef0:	5422                	lw	s0,40(sp)
2010cef2:	6145                	add	sp,sp,48
2010cef4:	8082                	ret

2010cef6 <__metal_exception_register>:
__metal_exception_register():
C:/VSD_Sqd_Project/sifive_hifive1_BitNet_MNIST_App/freedom-metal/src/drivers/riscv_cpu.c:442

int __metal_exception_register(struct metal_interrupt *controller, int ecode,
                               metal_exception_handler_t isr) {
2010cef6:	7179                	add	sp,sp,-48
2010cef8:	d622                	sw	s0,44(sp)
2010cefa:	1800                	add	s0,sp,48
2010cefc:	fca42e23          	sw	a0,-36(s0)
2010cf00:	fcb42c23          	sw	a1,-40(s0)
2010cf04:	fcc42a23          	sw	a2,-44(s0)
C:/VSD_Sqd_Project/sifive_hifive1_BitNet_MNIST_App/freedom-metal/src/drivers/riscv_cpu.c:443
    struct __metal_driver_riscv_cpu_intc *intc = (void *)(controller);
2010cf08:	fdc42783          	lw	a5,-36(s0)
2010cf0c:	fef42623          	sw	a5,-20(s0)
C:/VSD_Sqd_Project/sifive_hifive1_BitNet_MNIST_App/freedom-metal/src/drivers/riscv_cpu.c:445

    if ((ecode < METAL_MAX_EXCEPTION_CODE) && isr) {
2010cf10:	fd842703          	lw	a4,-40(s0)
2010cf14:	47ad                	li	a5,11
2010cf16:	02e7c263          	blt	a5,a4,2010cf3a <__metal_exception_register+0x44>
C:/VSD_Sqd_Project/sifive_hifive1_BitNet_MNIST_App/freedom-metal/src/drivers/riscv_cpu.c:445 (discriminator 1)
2010cf1a:	fd442783          	lw	a5,-44(s0)
2010cf1e:	cf91                	beqz	a5,2010cf3a <__metal_exception_register+0x44>
C:/VSD_Sqd_Project/sifive_hifive1_BitNet_MNIST_App/freedom-metal/src/drivers/riscv_cpu.c:446
        intc->metal_exception_table[ecode] = isr;
2010cf20:	fec42703          	lw	a4,-20(s0)
2010cf24:	fd842783          	lw	a5,-40(s0)
2010cf28:	0e878793          	add	a5,a5,232
2010cf2c:	078a                	sll	a5,a5,0x2
2010cf2e:	97ba                	add	a5,a5,a4
2010cf30:	fd442703          	lw	a4,-44(s0)
2010cf34:	c398                	sw	a4,0(a5)
C:/VSD_Sqd_Project/sifive_hifive1_BitNet_MNIST_App/freedom-metal/src/drivers/riscv_cpu.c:447
        return 0;
2010cf36:	4781                	li	a5,0
2010cf38:	a011                	j	2010cf3c <__metal_exception_register+0x46>
C:/VSD_Sqd_Project/sifive_hifive1_BitNet_MNIST_App/freedom-metal/src/drivers/riscv_cpu.c:449
    }
    return -1;
2010cf3a:	57fd                	li	a5,-1
C:/VSD_Sqd_Project/sifive_hifive1_BitNet_MNIST_App/freedom-metal/src/drivers/riscv_cpu.c:450
}
2010cf3c:	853e                	mv	a0,a5
2010cf3e:	5432                	lw	s0,44(sp)
2010cf40:	6145                	add	sp,sp,48
2010cf42:	8082                	ret

2010cf44 <__metal_driver_riscv_cpu_controller_interrupt_init>:
__metal_driver_riscv_cpu_controller_interrupt_init():
C:/VSD_Sqd_Project/sifive_hifive1_BitNet_MNIST_App/freedom-metal/src/drivers/riscv_cpu.c:454

extern void early_trap_vector(void);
void __metal_driver_riscv_cpu_controller_interrupt_init(
    struct metal_interrupt *controller) {
2010cf44:	7179                	add	sp,sp,-48
2010cf46:	d606                	sw	ra,44(sp)
2010cf48:	d422                	sw	s0,40(sp)
2010cf4a:	1800                	add	s0,sp,48
2010cf4c:	fca42e23          	sw	a0,-36(s0)
C:/VSD_Sqd_Project/sifive_hifive1_BitNet_MNIST_App/freedom-metal/src/drivers/riscv_cpu.c:455
    struct __metal_driver_riscv_cpu_intc *intc = (void *)(controller);
2010cf50:	fdc42783          	lw	a5,-36(s0)
2010cf54:	fef42223          	sw	a5,-28(s0)
C:/VSD_Sqd_Project/sifive_hifive1_BitNet_MNIST_App/freedom-metal/src/drivers/riscv_cpu.c:457

    if (!intc->init_done) {
2010cf58:	fe442783          	lw	a5,-28(s0)
2010cf5c:	43dc                	lw	a5,4(a5)
2010cf5e:	efdd                	bnez	a5,2010d01c <__metal_driver_riscv_cpu_controller_interrupt_init+0xd8>
C:/VSD_Sqd_Project/sifive_hifive1_BitNet_MNIST_App/freedom-metal/src/drivers/riscv_cpu.c:459
        /* Default to use direct interrupt, setup sw cb table*/
        for (int i = 0; i < METAL_MAX_MI; i++) {
2010cf60:	fe042623          	sw	zero,-20(s0)
2010cf64:	a0b9                	j	2010cfb2 <__metal_driver_riscv_cpu_controller_interrupt_init+0x6e>
C:/VSD_Sqd_Project/sifive_hifive1_BitNet_MNIST_App/freedom-metal/src/drivers/riscv_cpu.c:460
            intc->metal_int_table[i].handler = NULL;
2010cf66:	fe442683          	lw	a3,-28(s0)
2010cf6a:	fec42703          	lw	a4,-20(s0)
2010cf6e:	87ba                	mv	a5,a4
2010cf70:	0786                	sll	a5,a5,0x1
2010cf72:	97ba                	add	a5,a5,a4
2010cf74:	078e                	sll	a5,a5,0x3
2010cf76:	97b6                	add	a5,a5,a3
2010cf78:	0807a823          	sw	zero,144(a5)
C:/VSD_Sqd_Project/sifive_hifive1_BitNet_MNIST_App/freedom-metal/src/drivers/riscv_cpu.c:461
            intc->metal_int_table[i].sub_int = NULL;
2010cf7c:	fe442683          	lw	a3,-28(s0)
2010cf80:	fec42703          	lw	a4,-20(s0)
2010cf84:	87ba                	mv	a5,a4
2010cf86:	0786                	sll	a5,a5,0x1
2010cf88:	97ba                	add	a5,a5,a4
2010cf8a:	078e                	sll	a5,a5,0x3
2010cf8c:	97b6                	add	a5,a5,a3
2010cf8e:	0807aa23          	sw	zero,148(a5)
C:/VSD_Sqd_Project/sifive_hifive1_BitNet_MNIST_App/freedom-metal/src/drivers/riscv_cpu.c:462
            intc->metal_int_table[i].exint_data = NULL;
2010cf92:	fe442683          	lw	a3,-28(s0)
2010cf96:	fec42703          	lw	a4,-20(s0)
2010cf9a:	87ba                	mv	a5,a4
2010cf9c:	0786                	sll	a5,a5,0x1
2010cf9e:	97ba                	add	a5,a5,a4
2010cfa0:	078e                	sll	a5,a5,0x3
2010cfa2:	97b6                	add	a5,a5,a3
2010cfa4:	0807ac23          	sw	zero,152(a5)
C:/VSD_Sqd_Project/sifive_hifive1_BitNet_MNIST_App/freedom-metal/src/drivers/riscv_cpu.c:459 (discriminator 3)
        for (int i = 0; i < METAL_MAX_MI; i++) {
2010cfa8:	fec42783          	lw	a5,-20(s0)
2010cfac:	0785                	add	a5,a5,1
2010cfae:	fef42623          	sw	a5,-20(s0)
C:/VSD_Sqd_Project/sifive_hifive1_BitNet_MNIST_App/freedom-metal/src/drivers/riscv_cpu.c:459 (discriminator 1)
2010cfb2:	fec42703          	lw	a4,-20(s0)
2010cfb6:	47fd                	li	a5,31
2010cfb8:	fae7d7e3          	bge	a5,a4,2010cf66 <__metal_driver_riscv_cpu_controller_interrupt_init+0x22>
C:/VSD_Sqd_Project/sifive_hifive1_BitNet_MNIST_App/freedom-metal/src/drivers/riscv_cpu.c:465
        }

        for (int i = 0; i < METAL_MAX_ME; i++) {
2010cfbc:	fe042423          	sw	zero,-24(s0)
2010cfc0:	a01d                	j	2010cfe6 <__metal_driver_riscv_cpu_controller_interrupt_init+0xa2>
C:/VSD_Sqd_Project/sifive_hifive1_BitNet_MNIST_App/freedom-metal/src/drivers/riscv_cpu.c:466
            intc->metal_exception_table[i] = __metal_default_exception_handler;
2010cfc2:	fe442703          	lw	a4,-28(s0)
2010cfc6:	fe842783          	lw	a5,-24(s0)
2010cfca:	0e878793          	add	a5,a5,232
2010cfce:	078a                	sll	a5,a5,0x2
2010cfd0:	97ba                	add	a5,a5,a4
2010cfd2:	2010c737          	lui	a4,0x2010c
2010cfd6:	ebe70713          	add	a4,a4,-322 # 2010bebe <__metal_default_exception_handler>
2010cfda:	c398                	sw	a4,0(a5)
C:/VSD_Sqd_Project/sifive_hifive1_BitNet_MNIST_App/freedom-metal/src/drivers/riscv_cpu.c:465 (discriminator 3)
        for (int i = 0; i < METAL_MAX_ME; i++) {
2010cfdc:	fe842783          	lw	a5,-24(s0)
2010cfe0:	0785                	add	a5,a5,1
2010cfe2:	fef42423          	sw	a5,-24(s0)
C:/VSD_Sqd_Project/sifive_hifive1_BitNet_MNIST_App/freedom-metal/src/drivers/riscv_cpu.c:465 (discriminator 1)
2010cfe6:	fe842703          	lw	a4,-24(s0)
2010cfea:	47ad                	li	a5,11
2010cfec:	fce7dbe3          	bge	a5,a4,2010cfc2 <__metal_driver_riscv_cpu_controller_interrupt_init+0x7e>
C:/VSD_Sqd_Project/sifive_hifive1_BitNet_MNIST_App/freedom-metal/src/drivers/riscv_cpu.c:475
         * Set the real trap handler if the value of mtvec is equal to
         * early_trap_vector. If mtvec is not equal to early_trap_vector,
         * that means user has own trap handler, then we don't overwrite it.
         */
        uintptr_t mtvec;
        __asm__ volatile("csrr %0, mtvec" : "=r"(mtvec));
2010cff0:	305027f3          	csrr	a5,mtvec
2010cff4:	fef42023          	sw	a5,-32(s0)
C:/VSD_Sqd_Project/sifive_hifive1_BitNet_MNIST_App/freedom-metal/src/drivers/riscv_cpu.c:476
        if (mtvec == (uintptr_t)&early_trap_vector) {
2010cff8:	201007b7          	lui	a5,0x20100
2010cffc:	13478793          	add	a5,a5,308 # 20100134 <early_trap_vector>
2010d000:	fe042703          	lw	a4,-32(s0)
2010d004:	00f71863          	bne	a4,a5,2010d014 <__metal_driver_riscv_cpu_controller_interrupt_init+0xd0>
C:/VSD_Sqd_Project/sifive_hifive1_BitNet_MNIST_App/freedom-metal/src/drivers/riscv_cpu.c:477
            __metal_controller_interrupt_vector(
2010d008:	2010c7b7          	lui	a5,0x2010c
2010d00c:	18078593          	add	a1,a5,384 # 2010c180 <__metal_exception_handler>
2010d010:	4501                	li	a0,0
2010d012:	3305                	jal	2010cd32 <__metal_controller_interrupt_vector>
C:/VSD_Sqd_Project/sifive_hifive1_BitNet_MNIST_App/freedom-metal/src/drivers/riscv_cpu.c:481
                METAL_DIRECT_MODE,
                (void *)(uintptr_t)&__metal_exception_handler);
        }
        intc->init_done = 1;
2010d014:	fe442783          	lw	a5,-28(s0)
2010d018:	4705                	li	a4,1
2010d01a:	c3d8                	sw	a4,4(a5)
C:/VSD_Sqd_Project/sifive_hifive1_BitNet_MNIST_App/freedom-metal/src/drivers/riscv_cpu.c:483
    }
}
2010d01c:	0001                	nop
2010d01e:	50b2                	lw	ra,44(sp)
2010d020:	5422                	lw	s0,40(sp)
2010d022:	6145                	add	sp,sp,48
2010d024:	8082                	ret

2010d026 <__metal_driver_riscv_cpu_controller_interrupt_register>:
__metal_driver_riscv_cpu_controller_interrupt_register():
C:/VSD_Sqd_Project/sifive_hifive1_BitNet_MNIST_App/freedom-metal/src/drivers/riscv_cpu.c:487

int __metal_driver_riscv_cpu_controller_interrupt_register(
    struct metal_interrupt *controller, int id, metal_interrupt_handler_t isr,
    void *priv) {
2010d026:	7179                	add	sp,sp,-48
2010d028:	d606                	sw	ra,44(sp)
2010d02a:	d422                	sw	s0,40(sp)
2010d02c:	1800                	add	s0,sp,48
2010d02e:	fca42e23          	sw	a0,-36(s0)
2010d032:	fcb42c23          	sw	a1,-40(s0)
2010d036:	fcc42a23          	sw	a2,-44(s0)
2010d03a:	fcd42823          	sw	a3,-48(s0)
C:/VSD_Sqd_Project/sifive_hifive1_BitNet_MNIST_App/freedom-metal/src/drivers/riscv_cpu.c:488
    int rc = 0;
2010d03e:	fe042623          	sw	zero,-20(s0)
C:/VSD_Sqd_Project/sifive_hifive1_BitNet_MNIST_App/freedom-metal/src/drivers/riscv_cpu.c:489
    struct __metal_driver_riscv_cpu_intc *intc = (void *)(controller);
2010d042:	fdc42783          	lw	a5,-36(s0)
2010d046:	fef42423          	sw	a5,-24(s0)
C:/VSD_Sqd_Project/sifive_hifive1_BitNet_MNIST_App/freedom-metal/src/drivers/riscv_cpu.c:491

    if (!__metal_valid_interrupt_id(id)) {
2010d04a:	fd842503          	lw	a0,-40(s0)
2010d04e:	3b59                	jal	2010cde4 <__metal_valid_interrupt_id>
2010d050:	87aa                	mv	a5,a0
C:/VSD_Sqd_Project/sifive_hifive1_BitNet_MNIST_App/freedom-metal/src/drivers/riscv_cpu.c:491 (discriminator 1)
2010d052:	e399                	bnez	a5,2010d058 <__metal_driver_riscv_cpu_controller_interrupt_register+0x32>
C:/VSD_Sqd_Project/sifive_hifive1_BitNet_MNIST_App/freedom-metal/src/drivers/riscv_cpu.c:492
        return -11;
2010d054:	57d5                	li	a5,-11
2010d056:	a265                	j	2010d1fe <__metal_driver_riscv_cpu_controller_interrupt_register+0x1d8>
C:/VSD_Sqd_Project/sifive_hifive1_BitNet_MNIST_App/freedom-metal/src/drivers/riscv_cpu.c:494
    }
    if ((id == METAL_INTERRUPT_ID_BEU) &&
2010d058:	fd842703          	lw	a4,-40(s0)
2010d05c:	08000793          	li	a5,128
2010d060:	00f71863          	bne	a4,a5,2010d070 <__metal_driver_riscv_cpu_controller_interrupt_register+0x4a>
C:/VSD_Sqd_Project/sifive_hifive1_BitNet_MNIST_App/freedom-metal/src/drivers/riscv_cpu.c:495
        (__metal_controller_interrupt_vector_mode() != METAL_DIRECT_MODE)) {
2010d064:	c77ff0ef          	jal	2010ccda <__metal_controller_interrupt_vector_mode>
2010d068:	87aa                	mv	a5,a0
C:/VSD_Sqd_Project/sifive_hifive1_BitNet_MNIST_App/freedom-metal/src/drivers/riscv_cpu.c:494 (discriminator 1)
    if ((id == METAL_INTERRUPT_ID_BEU) &&
2010d06a:	c399                	beqz	a5,2010d070 <__metal_driver_riscv_cpu_controller_interrupt_register+0x4a>
C:/VSD_Sqd_Project/sifive_hifive1_BitNet_MNIST_App/freedom-metal/src/drivers/riscv_cpu.c:498
        /* Only allow registration of the bus error unit interrupt if
         * interrupt vectoring if off */
        return -13;
2010d06c:	57cd                	li	a5,-13
2010d06e:	aa41                	j	2010d1fe <__metal_driver_riscv_cpu_controller_interrupt_register+0x1d8>
C:/VSD_Sqd_Project/sifive_hifive1_BitNet_MNIST_App/freedom-metal/src/drivers/riscv_cpu.c:501
    }

    if (isr) {
2010d070:	fd442783          	lw	a5,-44(s0)
2010d074:	cfb9                	beqz	a5,2010d0d2 <__metal_driver_riscv_cpu_controller_interrupt_register+0xac>
C:/VSD_Sqd_Project/sifive_hifive1_BitNet_MNIST_App/freedom-metal/src/drivers/riscv_cpu.c:502
        if (id == METAL_INTERRUPT_ID_BEU) {
2010d076:	fd842703          	lw	a4,-40(s0)
2010d07a:	08000793          	li	a5,128
2010d07e:	00f71f63          	bne	a4,a5,2010d09c <__metal_driver_riscv_cpu_controller_interrupt_register+0x76>
C:/VSD_Sqd_Project/sifive_hifive1_BitNet_MNIST_App/freedom-metal/src/drivers/riscv_cpu.c:503
            intc->metal_int_beu.handler = isr;
2010d082:	fe842783          	lw	a5,-24(s0)
2010d086:	fd442703          	lw	a4,-44(s0)
2010d08a:	38e7a823          	sw	a4,912(a5)
C:/VSD_Sqd_Project/sifive_hifive1_BitNet_MNIST_App/freedom-metal/src/drivers/riscv_cpu.c:504
            intc->metal_int_beu.exint_data = priv;
2010d08e:	fe842783          	lw	a5,-24(s0)
2010d092:	fd042703          	lw	a4,-48(s0)
2010d096:	38e7ac23          	sw	a4,920(a5)
2010d09a:	a285                	j	2010d1fa <__metal_driver_riscv_cpu_controller_interrupt_register+0x1d4>
C:/VSD_Sqd_Project/sifive_hifive1_BitNet_MNIST_App/freedom-metal/src/drivers/riscv_cpu.c:506
        } else {
            intc->metal_int_table[id].handler = isr;
2010d09c:	fe842683          	lw	a3,-24(s0)
2010d0a0:	fd842703          	lw	a4,-40(s0)
2010d0a4:	87ba                	mv	a5,a4
2010d0a6:	0786                	sll	a5,a5,0x1
2010d0a8:	97ba                	add	a5,a5,a4
2010d0aa:	078e                	sll	a5,a5,0x3
2010d0ac:	97b6                	add	a5,a5,a3
2010d0ae:	fd442703          	lw	a4,-44(s0)
2010d0b2:	08e7a823          	sw	a4,144(a5)
C:/VSD_Sqd_Project/sifive_hifive1_BitNet_MNIST_App/freedom-metal/src/drivers/riscv_cpu.c:507
            intc->metal_int_table[id].exint_data = priv;
2010d0b6:	fe842683          	lw	a3,-24(s0)
2010d0ba:	fd842703          	lw	a4,-40(s0)
2010d0be:	87ba                	mv	a5,a4
2010d0c0:	0786                	sll	a5,a5,0x1
2010d0c2:	97ba                	add	a5,a5,a4
2010d0c4:	078e                	sll	a5,a5,0x3
2010d0c6:	97b6                	add	a5,a5,a3
2010d0c8:	fd042703          	lw	a4,-48(s0)
2010d0cc:	08e7ac23          	sw	a4,152(a5)
2010d0d0:	a22d                	j	2010d1fa <__metal_driver_riscv_cpu_controller_interrupt_register+0x1d4>
C:/VSD_Sqd_Project/sifive_hifive1_BitNet_MNIST_App/freedom-metal/src/drivers/riscv_cpu.c:510
        }
    } else {
        switch (id) {
2010d0d2:	fd842703          	lw	a4,-40(s0)
2010d0d6:	08000793          	li	a5,128
2010d0da:	0cf70163          	beq	a4,a5,2010d19c <__metal_driver_riscv_cpu_controller_interrupt_register+0x176>
2010d0de:	fd842703          	lw	a4,-40(s0)
2010d0e2:	08000793          	li	a5,128
2010d0e6:	10e7c763          	blt	a5,a4,2010d1f4 <__metal_driver_riscv_cpu_controller_interrupt_register+0x1ce>
2010d0ea:	fd842703          	lw	a4,-40(s0)
2010d0ee:	47fd                	li	a5,31
2010d0f0:	10e7c263          	blt	a5,a4,2010d1f4 <__metal_driver_riscv_cpu_controller_interrupt_register+0x1ce>
2010d0f4:	fd842703          	lw	a4,-40(s0)
2010d0f8:	47c1                	li	a5,16
2010d0fa:	0cf75063          	bge	a4,a5,2010d1ba <__metal_driver_riscv_cpu_controller_interrupt_register+0x194>
2010d0fe:	fd842703          	lw	a4,-40(s0)
2010d102:	47ad                	li	a5,11
2010d104:	0af70b63          	beq	a4,a5,2010d1ba <__metal_driver_riscv_cpu_controller_interrupt_register+0x194>
2010d108:	fd842703          	lw	a4,-40(s0)
2010d10c:	47ad                	li	a5,11
2010d10e:	0ee7c363          	blt	a5,a4,2010d1f4 <__metal_driver_riscv_cpu_controller_interrupt_register+0x1ce>
2010d112:	fd842703          	lw	a4,-40(s0)
2010d116:	478d                	li	a5,3
2010d118:	00f70863          	beq	a4,a5,2010d128 <__metal_driver_riscv_cpu_controller_interrupt_register+0x102>
2010d11c:	fd842703          	lw	a4,-40(s0)
2010d120:	479d                	li	a5,7
2010d122:	04f70063          	beq	a4,a5,2010d162 <__metal_driver_riscv_cpu_controller_interrupt_register+0x13c>
2010d126:	a0f9                	j	2010d1f4 <__metal_driver_riscv_cpu_controller_interrupt_register+0x1ce>
C:/VSD_Sqd_Project/sifive_hifive1_BitNet_MNIST_App/freedom-metal/src/drivers/riscv_cpu.c:512
        case METAL_INTERRUPT_ID_SW:
            intc->metal_int_table[id].handler = __metal_default_sw_handler;
2010d128:	fe842683          	lw	a3,-24(s0)
2010d12c:	fd842703          	lw	a4,-40(s0)
2010d130:	87ba                	mv	a5,a4
2010d132:	0786                	sll	a5,a5,0x1
2010d134:	97ba                	add	a5,a5,a4
2010d136:	078e                	sll	a5,a5,0x3
2010d138:	97b6                	add	a5,a5,a3
2010d13a:	2010c737          	lui	a4,0x2010c
2010d13e:	fae70713          	add	a4,a4,-82 # 2010bfae <__metal_default_sw_handler>
2010d142:	08e7a823          	sw	a4,144(a5)
C:/VSD_Sqd_Project/sifive_hifive1_BitNet_MNIST_App/freedom-metal/src/drivers/riscv_cpu.c:513
            intc->metal_int_table[id].sub_int = priv;
2010d146:	fe842683          	lw	a3,-24(s0)
2010d14a:	fd842703          	lw	a4,-40(s0)
2010d14e:	87ba                	mv	a5,a4
2010d150:	0786                	sll	a5,a5,0x1
2010d152:	97ba                	add	a5,a5,a4
2010d154:	078e                	sll	a5,a5,0x3
2010d156:	97b6                	add	a5,a5,a3
2010d158:	fd042703          	lw	a4,-48(s0)
2010d15c:	08e7aa23          	sw	a4,148(a5)
C:/VSD_Sqd_Project/sifive_hifive1_BitNet_MNIST_App/freedom-metal/src/drivers/riscv_cpu.c:514
            break;
2010d160:	a869                	j	2010d1fa <__metal_driver_riscv_cpu_controller_interrupt_register+0x1d4>
C:/VSD_Sqd_Project/sifive_hifive1_BitNet_MNIST_App/freedom-metal/src/drivers/riscv_cpu.c:516
        case METAL_INTERRUPT_ID_TMR:
            intc->metal_int_table[id].handler = __metal_default_timer_handler;
2010d162:	fe842683          	lw	a3,-24(s0)
2010d166:	fd842703          	lw	a4,-40(s0)
2010d16a:	87ba                	mv	a5,a4
2010d16c:	0786                	sll	a5,a5,0x1
2010d16e:	97ba                	add	a5,a5,a4
2010d170:	078e                	sll	a5,a5,0x3
2010d172:	97b6                	add	a5,a5,a3
2010d174:	2010c737          	lui	a4,0x2010c
2010d178:	0be70713          	add	a4,a4,190 # 2010c0be <__metal_default_timer_handler>
2010d17c:	08e7a823          	sw	a4,144(a5)
C:/VSD_Sqd_Project/sifive_hifive1_BitNet_MNIST_App/freedom-metal/src/drivers/riscv_cpu.c:517
            intc->metal_int_table[id].sub_int = priv;
2010d180:	fe842683          	lw	a3,-24(s0)
2010d184:	fd842703          	lw	a4,-40(s0)
2010d188:	87ba                	mv	a5,a4
2010d18a:	0786                	sll	a5,a5,0x1
2010d18c:	97ba                	add	a5,a5,a4
2010d18e:	078e                	sll	a5,a5,0x3
2010d190:	97b6                	add	a5,a5,a3
2010d192:	fd042703          	lw	a4,-48(s0)
2010d196:	08e7aa23          	sw	a4,148(a5)
C:/VSD_Sqd_Project/sifive_hifive1_BitNet_MNIST_App/freedom-metal/src/drivers/riscv_cpu.c:518
            break;
2010d19a:	a085                	j	2010d1fa <__metal_driver_riscv_cpu_controller_interrupt_register+0x1d4>
C:/VSD_Sqd_Project/sifive_hifive1_BitNet_MNIST_App/freedom-metal/src/drivers/riscv_cpu.c:520
        case METAL_INTERRUPT_ID_BEU:
            intc->metal_int_beu.handler = __metal_default_beu_handler;
2010d19c:	fe842783          	lw	a5,-24(s0)
2010d1a0:	2010c737          	lui	a4,0x2010c
2010d1a4:	0a870713          	add	a4,a4,168 # 2010c0a8 <__metal_default_beu_handler>
2010d1a8:	38e7a823          	sw	a4,912(a5)
C:/VSD_Sqd_Project/sifive_hifive1_BitNet_MNIST_App/freedom-metal/src/drivers/riscv_cpu.c:521
            intc->metal_int_beu.exint_data = priv;
2010d1ac:	fe842783          	lw	a5,-24(s0)
2010d1b0:	fd042703          	lw	a4,-48(s0)
2010d1b4:	38e7ac23          	sw	a4,920(a5)
C:/VSD_Sqd_Project/sifive_hifive1_BitNet_MNIST_App/freedom-metal/src/drivers/riscv_cpu.c:522
            break;
2010d1b8:	a089                	j	2010d1fa <__metal_driver_riscv_cpu_controller_interrupt_register+0x1d4>
C:/VSD_Sqd_Project/sifive_hifive1_BitNet_MNIST_App/freedom-metal/src/drivers/riscv_cpu.c:540
        case METAL_INTERRUPT_ID_LC11:
        case METAL_INTERRUPT_ID_LC12:
        case METAL_INTERRUPT_ID_LC13:
        case METAL_INTERRUPT_ID_LC14:
        case METAL_INTERRUPT_ID_LC15:
            intc->metal_int_table[id].handler =
2010d1ba:	fe842683          	lw	a3,-24(s0)
2010d1be:	fd842703          	lw	a4,-40(s0)
2010d1c2:	87ba                	mv	a5,a4
2010d1c4:	0786                	sll	a5,a5,0x1
2010d1c6:	97ba                	add	a5,a5,a4
2010d1c8:	078e                	sll	a5,a5,0x3
2010d1ca:	97b6                	add	a5,a5,a3
2010d1cc:	2010c737          	lui	a4,0x2010c
2010d1d0:	ed670713          	add	a4,a4,-298 # 2010bed6 <__metal_default_interrupt_handler>
2010d1d4:	08e7a823          	sw	a4,144(a5)
C:/VSD_Sqd_Project/sifive_hifive1_BitNet_MNIST_App/freedom-metal/src/drivers/riscv_cpu.c:542
                __metal_default_interrupt_handler;
            intc->metal_int_table[id].sub_int = priv;
2010d1d8:	fe842683          	lw	a3,-24(s0)
2010d1dc:	fd842703          	lw	a4,-40(s0)
2010d1e0:	87ba                	mv	a5,a4
2010d1e2:	0786                	sll	a5,a5,0x1
2010d1e4:	97ba                	add	a5,a5,a4
2010d1e6:	078e                	sll	a5,a5,0x3
2010d1e8:	97b6                	add	a5,a5,a3
2010d1ea:	fd042703          	lw	a4,-48(s0)
2010d1ee:	08e7aa23          	sw	a4,148(a5)
C:/VSD_Sqd_Project/sifive_hifive1_BitNet_MNIST_App/freedom-metal/src/drivers/riscv_cpu.c:543
            break;
2010d1f2:	a021                	j	2010d1fa <__metal_driver_riscv_cpu_controller_interrupt_register+0x1d4>
C:/VSD_Sqd_Project/sifive_hifive1_BitNet_MNIST_App/freedom-metal/src/drivers/riscv_cpu.c:545
        default:
            rc = -12;
2010d1f4:	57d1                	li	a5,-12
2010d1f6:	fef42623          	sw	a5,-20(s0)
C:/VSD_Sqd_Project/sifive_hifive1_BitNet_MNIST_App/freedom-metal/src/drivers/riscv_cpu.c:548
        }
    }
    return rc;
2010d1fa:	fec42783          	lw	a5,-20(s0)
C:/VSD_Sqd_Project/sifive_hifive1_BitNet_MNIST_App/freedom-metal/src/drivers/riscv_cpu.c:549
}
2010d1fe:	853e                	mv	a0,a5
2010d200:	50b2                	lw	ra,44(sp)
2010d202:	5422                	lw	s0,40(sp)
2010d204:	6145                	add	sp,sp,48
2010d206:	8082                	ret

2010d208 <__metal_driver_riscv_cpu_controller_interrupt_enable>:
__metal_driver_riscv_cpu_controller_interrupt_enable():
C:/VSD_Sqd_Project/sifive_hifive1_BitNet_MNIST_App/freedom-metal/src/drivers/riscv_cpu.c:552

int __metal_driver_riscv_cpu_controller_interrupt_enable(
    struct metal_interrupt *controller, int id) {
2010d208:	1101                	add	sp,sp,-32
2010d20a:	ce06                	sw	ra,28(sp)
2010d20c:	cc22                	sw	s0,24(sp)
2010d20e:	1000                	add	s0,sp,32
2010d210:	fea42623          	sw	a0,-20(s0)
2010d214:	feb42423          	sw	a1,-24(s0)
C:/VSD_Sqd_Project/sifive_hifive1_BitNet_MNIST_App/freedom-metal/src/drivers/riscv_cpu.c:553
    return __metal_local_interrupt_enable(controller, id, METAL_ENABLE);
2010d218:	fe842783          	lw	a5,-24(s0)
2010d21c:	4605                	li	a2,1
2010d21e:	85be                	mv	a1,a5
2010d220:	fec42503          	lw	a0,-20(s0)
2010d224:	c17ff0ef          	jal	2010ce3a <__metal_local_interrupt_enable>
2010d228:	87aa                	mv	a5,a0
C:/VSD_Sqd_Project/sifive_hifive1_BitNet_MNIST_App/freedom-metal/src/drivers/riscv_cpu.c:554
}
2010d22a:	853e                	mv	a0,a5
2010d22c:	40f2                	lw	ra,28(sp)
2010d22e:	4462                	lw	s0,24(sp)
2010d230:	6105                	add	sp,sp,32
2010d232:	8082                	ret

2010d234 <__metal_driver_riscv_cpu_controller_interrupt_disable>:
__metal_driver_riscv_cpu_controller_interrupt_disable():
C:/VSD_Sqd_Project/sifive_hifive1_BitNet_MNIST_App/freedom-metal/src/drivers/riscv_cpu.c:557

int __metal_driver_riscv_cpu_controller_interrupt_disable(
    struct metal_interrupt *controller, int id) {
2010d234:	1101                	add	sp,sp,-32
2010d236:	ce06                	sw	ra,28(sp)
2010d238:	cc22                	sw	s0,24(sp)
2010d23a:	1000                	add	s0,sp,32
2010d23c:	fea42623          	sw	a0,-20(s0)
2010d240:	feb42423          	sw	a1,-24(s0)
C:/VSD_Sqd_Project/sifive_hifive1_BitNet_MNIST_App/freedom-metal/src/drivers/riscv_cpu.c:558
    return __metal_local_interrupt_enable(controller, id, METAL_DISABLE);
2010d244:	fe842783          	lw	a5,-24(s0)
2010d248:	4601                	li	a2,0
2010d24a:	85be                	mv	a1,a5
2010d24c:	fec42503          	lw	a0,-20(s0)
2010d250:	bebff0ef          	jal	2010ce3a <__metal_local_interrupt_enable>
2010d254:	87aa                	mv	a5,a0
C:/VSD_Sqd_Project/sifive_hifive1_BitNet_MNIST_App/freedom-metal/src/drivers/riscv_cpu.c:559
}
2010d256:	853e                	mv	a0,a5
2010d258:	40f2                	lw	ra,28(sp)
2010d25a:	4462                	lw	s0,24(sp)
2010d25c:	6105                	add	sp,sp,32
2010d25e:	8082                	ret

2010d260 <__metal_driver_riscv_cpu_controller_get_vector_mode>:
__metal_driver_riscv_cpu_controller_get_vector_mode():
C:/VSD_Sqd_Project/sifive_hifive1_BitNet_MNIST_App/freedom-metal/src/drivers/riscv_cpu.c:591
    }
    return -1;
}

metal_vector_mode __metal_driver_riscv_cpu_controller_get_vector_mode(
    struct metal_interrupt *controller) {
2010d260:	1101                	add	sp,sp,-32
2010d262:	ce06                	sw	ra,28(sp)
2010d264:	cc22                	sw	s0,24(sp)
2010d266:	1000                	add	s0,sp,32
2010d268:	fea42623          	sw	a0,-20(s0)
C:/VSD_Sqd_Project/sifive_hifive1_BitNet_MNIST_App/freedom-metal/src/drivers/riscv_cpu.c:592
    return __metal_controller_interrupt_vector_mode();
2010d26c:	a6fff0ef          	jal	2010ccda <__metal_controller_interrupt_vector_mode>
2010d270:	87aa                	mv	a5,a0
C:/VSD_Sqd_Project/sifive_hifive1_BitNet_MNIST_App/freedom-metal/src/drivers/riscv_cpu.c:593
}
2010d272:	853e                	mv	a0,a5
2010d274:	40f2                	lw	ra,28(sp)
2010d276:	4462                	lw	s0,24(sp)
2010d278:	6105                	add	sp,sp,32
2010d27a:	8082                	ret

2010d27c <__metal_driver_riscv_cpu_controller_set_vector_mode>:
__metal_driver_riscv_cpu_controller_set_vector_mode():
C:/VSD_Sqd_Project/sifive_hifive1_BitNet_MNIST_App/freedom-metal/src/drivers/riscv_cpu.c:596

int __metal_driver_riscv_cpu_controller_set_vector_mode(
    struct metal_interrupt *controller, metal_vector_mode mode) {
2010d27c:	1101                	add	sp,sp,-32
2010d27e:	ce06                	sw	ra,28(sp)
2010d280:	cc22                	sw	s0,24(sp)
2010d282:	1000                	add	s0,sp,32
2010d284:	fea42623          	sw	a0,-20(s0)
2010d288:	feb42423          	sw	a1,-24(s0)
C:/VSD_Sqd_Project/sifive_hifive1_BitNet_MNIST_App/freedom-metal/src/drivers/riscv_cpu.c:598

    if (mode == METAL_DIRECT_MODE) {
2010d28c:	fe842783          	lw	a5,-24(s0)
2010d290:	eb99                	bnez	a5,2010d2a6 <__metal_driver_riscv_cpu_controller_set_vector_mode+0x2a>
C:/VSD_Sqd_Project/sifive_hifive1_BitNet_MNIST_App/freedom-metal/src/drivers/riscv_cpu.c:599
        __metal_controller_interrupt_vector(
2010d292:	2010c7b7          	lui	a5,0x2010c
2010d296:	18078593          	add	a1,a5,384 # 2010c180 <__metal_exception_handler>
2010d29a:	fe842503          	lw	a0,-24(s0)
2010d29e:	a95ff0ef          	jal	2010cd32 <__metal_controller_interrupt_vector>
C:/VSD_Sqd_Project/sifive_hifive1_BitNet_MNIST_App/freedom-metal/src/drivers/riscv_cpu.c:601
            mode, (void *)(uintptr_t)&__metal_exception_handler);
        return 0;
2010d2a2:	4781                	li	a5,0
2010d2a4:	a00d                	j	2010d2c6 <__metal_driver_riscv_cpu_controller_set_vector_mode+0x4a>
C:/VSD_Sqd_Project/sifive_hifive1_BitNet_MNIST_App/freedom-metal/src/drivers/riscv_cpu.c:603
    }
    if (mode == METAL_VECTOR_MODE) {
2010d2a6:	fe842703          	lw	a4,-24(s0)
2010d2aa:	4785                	li	a5,1
2010d2ac:	00f71c63          	bne	a4,a5,2010d2c4 <__metal_driver_riscv_cpu_controller_set_vector_mode+0x48>
C:/VSD_Sqd_Project/sifive_hifive1_BitNet_MNIST_App/freedom-metal/src/drivers/riscv_cpu.c:604
        __metal_controller_interrupt_vector(
2010d2b0:	201107b7          	lui	a5,0x20110
2010d2b4:	a8078593          	add	a1,a5,-1408 # 2010fa80 <__metal_vector_table>
2010d2b8:	fe842503          	lw	a0,-24(s0)
2010d2bc:	a77ff0ef          	jal	2010cd32 <__metal_controller_interrupt_vector>
C:/VSD_Sqd_Project/sifive_hifive1_BitNet_MNIST_App/freedom-metal/src/drivers/riscv_cpu.c:606
            mode, (void *)(uintptr_t)__metal_vector_table);
        return 0;
2010d2c0:	4781                	li	a5,0
2010d2c2:	a011                	j	2010d2c6 <__metal_driver_riscv_cpu_controller_set_vector_mode+0x4a>
C:/VSD_Sqd_Project/sifive_hifive1_BitNet_MNIST_App/freedom-metal/src/drivers/riscv_cpu.c:608
    }
    return -1;
2010d2c4:	57fd                	li	a5,-1
C:/VSD_Sqd_Project/sifive_hifive1_BitNet_MNIST_App/freedom-metal/src/drivers/riscv_cpu.c:609
}
2010d2c6:	853e                	mv	a0,a5
2010d2c8:	40f2                	lw	ra,28(sp)
2010d2ca:	4462                	lw	s0,24(sp)
2010d2cc:	6105                	add	sp,sp,32
2010d2ce:	8082                	ret

2010d2d0 <__metal_driver_riscv_cpu_controller_command_request>:
__metal_driver_riscv_cpu_controller_command_request():
C:/VSD_Sqd_Project/sifive_hifive1_BitNet_MNIST_App/freedom-metal/src/drivers/riscv_cpu.c:612

int __metal_driver_riscv_cpu_controller_command_request(
    struct metal_interrupt *controller, int cmd, void *data) {
2010d2d0:	1101                	add	sp,sp,-32
2010d2d2:	ce22                	sw	s0,28(sp)
2010d2d4:	1000                	add	s0,sp,32
2010d2d6:	fea42623          	sw	a0,-20(s0)
2010d2da:	feb42423          	sw	a1,-24(s0)
2010d2de:	fec42223          	sw	a2,-28(s0)
C:/VSD_Sqd_Project/sifive_hifive1_BitNet_MNIST_App/freedom-metal/src/drivers/riscv_cpu.c:615
    /* NOP for now, unless local interrupt lines the like of clic, clint, plic
     */
    return 0;
2010d2e2:	4781                	li	a5,0
C:/VSD_Sqd_Project/sifive_hifive1_BitNet_MNIST_App/freedom-metal/src/drivers/riscv_cpu.c:616
}
2010d2e4:	853e                	mv	a0,a5
2010d2e6:	4472                	lw	s0,28(sp)
2010d2e8:	6105                	add	sp,sp,32
2010d2ea:	8082                	ret

2010d2ec <__metal_driver_cpu_mcycle_get>:
__metal_driver_cpu_mcycle_get():
C:/VSD_Sqd_Project/sifive_hifive1_BitNet_MNIST_App/freedom-metal/src/drivers/riscv_cpu.c:620

/* CPU driver !!! */

unsigned long long __metal_driver_cpu_mcycle_get(struct metal_cpu *cpu) {
2010d2ec:	7139                	add	sp,sp,-64
2010d2ee:	de22                	sw	s0,60(sp)
2010d2f0:	0080                	add	s0,sp,64
2010d2f2:	fca42623          	sw	a0,-52(s0)
C:/VSD_Sqd_Project/sifive_hifive1_BitNet_MNIST_App/freedom-metal/src/drivers/riscv_cpu.c:621
    unsigned long long val = 0;
2010d2f6:	4501                	li	a0,0
2010d2f8:	4581                	li	a1,0
2010d2fa:	fea42423          	sw	a0,-24(s0)
2010d2fe:	feb42623          	sw	a1,-20(s0)
C:/VSD_Sqd_Project/sifive_hifive1_BitNet_MNIST_App/freedom-metal/src/drivers/riscv_cpu.c:627

#if __riscv_xlen == 32
    unsigned long hi, hi1, lo;

    do {
        __asm__ volatile("csrr %0, mcycleh" : "=r"(hi));
2010d302:	b80025f3          	csrr	a1,mcycleh
2010d306:	feb42223          	sw	a1,-28(s0)
C:/VSD_Sqd_Project/sifive_hifive1_BitNet_MNIST_App/freedom-metal/src/drivers/riscv_cpu.c:628
        __asm__ volatile("csrr %0, mcycle" : "=r"(lo));
2010d30a:	b00025f3          	csrr	a1,mcycle
2010d30e:	feb42023          	sw	a1,-32(s0)
C:/VSD_Sqd_Project/sifive_hifive1_BitNet_MNIST_App/freedom-metal/src/drivers/riscv_cpu.c:629
        __asm__ volatile("csrr %0, mcycleh" : "=r"(hi1));
2010d312:	b80025f3          	csrr	a1,mcycleh
2010d316:	fcb42e23          	sw	a1,-36(s0)
C:/VSD_Sqd_Project/sifive_hifive1_BitNet_MNIST_App/freedom-metal/src/drivers/riscv_cpu.c:632 (discriminator 1)
        /* hi != hi1 means mcycle overflow during we get value,
         * so we must retry. */
    } while (hi != hi1);
2010d31a:	fe442503          	lw	a0,-28(s0)
2010d31e:	fdc42583          	lw	a1,-36(s0)
2010d322:	feb510e3          	bne	a0,a1,2010d302 <__metal_driver_cpu_mcycle_get+0x16>
C:/VSD_Sqd_Project/sifive_hifive1_BitNet_MNIST_App/freedom-metal/src/drivers/riscv_cpu.c:634

    val = ((unsigned long long)hi << 32) | lo;
2010d326:	fe442583          	lw	a1,-28(s0)
2010d32a:	882e                	mv	a6,a1
2010d32c:	4881                	li	a7,0
2010d32e:	00081793          	sll	a5,a6,0x0
2010d332:	4701                	li	a4,0
2010d334:	fe042583          	lw	a1,-32(s0)
2010d338:	862e                	mv	a2,a1
2010d33a:	4681                	li	a3,0
2010d33c:	00c765b3          	or	a1,a4,a2
2010d340:	feb42423          	sw	a1,-24(s0)
2010d344:	8fd5                	or	a5,a5,a3
2010d346:	fef42623          	sw	a5,-20(s0)
C:/VSD_Sqd_Project/sifive_hifive1_BitNet_MNIST_App/freedom-metal/src/drivers/riscv_cpu.c:639
#else
    __asm__ volatile("csrr %0, mcycle" : "=r"(val));
#endif

    return val;
2010d34a:	fe842703          	lw	a4,-24(s0)
2010d34e:	fec42783          	lw	a5,-20(s0)
C:/VSD_Sqd_Project/sifive_hifive1_BitNet_MNIST_App/freedom-metal/src/drivers/riscv_cpu.c:640
}
2010d352:	853a                	mv	a0,a4
2010d354:	85be                	mv	a1,a5
2010d356:	5472                	lw	s0,60(sp)
2010d358:	6121                	add	sp,sp,64
2010d35a:	8082                	ret

2010d35c <__metal_driver_cpu_timebase_get>:
__metal_driver_cpu_timebase_get():
C:/VSD_Sqd_Project/sifive_hifive1_BitNet_MNIST_App/freedom-metal/src/drivers/riscv_cpu.c:642

unsigned long long __metal_driver_cpu_timebase_get(struct metal_cpu *cpu) {
2010d35c:	7179                	add	sp,sp,-48
2010d35e:	d606                	sw	ra,44(sp)
2010d360:	d422                	sw	s0,40(sp)
2010d362:	d24a                	sw	s2,36(sp)
2010d364:	d04e                	sw	s3,32(sp)
2010d366:	1800                	add	s0,sp,48
2010d368:	fca42e23          	sw	a0,-36(s0)
C:/VSD_Sqd_Project/sifive_hifive1_BitNet_MNIST_App/freedom-metal/src/drivers/riscv_cpu.c:644
    int timebase;
    if (!cpu) {
2010d36c:	fdc42783          	lw	a5,-36(s0)
2010d370:	e781                	bnez	a5,2010d378 <__metal_driver_cpu_timebase_get+0x1c>
C:/VSD_Sqd_Project/sifive_hifive1_BitNet_MNIST_App/freedom-metal/src/drivers/riscv_cpu.c:645
        return 0;
2010d372:	4901                	li	s2,0
2010d374:	4981                	li	s3,0
2010d376:	a821                	j	2010d38e <__metal_driver_cpu_timebase_get+0x32>
C:/VSD_Sqd_Project/sifive_hifive1_BitNet_MNIST_App/freedom-metal/src/drivers/riscv_cpu.c:648
    }

    timebase = __metal_driver_cpu_timebase((struct metal_cpu *)cpu);
2010d378:	fdc42503          	lw	a0,-36(s0)
2010d37c:	95dfe0ef          	jal	2010bcd8 <__metal_driver_cpu_timebase>
2010d380:	fea42623          	sw	a0,-20(s0)
C:/VSD_Sqd_Project/sifive_hifive1_BitNet_MNIST_App/freedom-metal/src/drivers/riscv_cpu.c:649
    return timebase;
2010d384:	fec42783          	lw	a5,-20(s0)
2010d388:	893e                	mv	s2,a5
2010d38a:	87fd                	sra	a5,a5,0x1f
2010d38c:	89be                	mv	s3,a5
C:/VSD_Sqd_Project/sifive_hifive1_BitNet_MNIST_App/freedom-metal/src/drivers/riscv_cpu.c:650
}
2010d38e:	874a                	mv	a4,s2
2010d390:	87ce                	mv	a5,s3
2010d392:	853a                	mv	a0,a4
2010d394:	85be                	mv	a1,a5
2010d396:	50b2                	lw	ra,44(sp)
2010d398:	5422                	lw	s0,40(sp)
2010d39a:	5912                	lw	s2,36(sp)
2010d39c:	5982                	lw	s3,32(sp)
2010d39e:	6145                	add	sp,sp,48
2010d3a0:	8082                	ret

2010d3a2 <__metal_driver_cpu_mtime_get>:
__metal_driver_cpu_mtime_get():
C:/VSD_Sqd_Project/sifive_hifive1_BitNet_MNIST_App/freedom-metal/src/drivers/riscv_cpu.c:652

unsigned long long __metal_driver_cpu_mtime_get(struct metal_cpu *cpu) {
2010d3a2:	7179                	add	sp,sp,-48
2010d3a4:	d606                	sw	ra,44(sp)
2010d3a6:	d422                	sw	s0,40(sp)
2010d3a8:	1800                	add	s0,sp,48
2010d3aa:	fca42e23          	sw	a0,-36(s0)
C:/VSD_Sqd_Project/sifive_hifive1_BitNet_MNIST_App/freedom-metal/src/drivers/riscv_cpu.c:653
    unsigned long long time = 0;
2010d3ae:	4781                	li	a5,0
2010d3b0:	4801                	li	a6,0
2010d3b2:	fef42023          	sw	a5,-32(s0)
2010d3b6:	ff042223          	sw	a6,-28(s0)
C:/VSD_Sqd_Project/sifive_hifive1_BitNet_MNIST_App/freedom-metal/src/drivers/riscv_cpu.c:657
    struct metal_interrupt *tmr_intc;
    struct __metal_driver_riscv_cpu_intc *intc =
        (struct __metal_driver_riscv_cpu_intc *)
            __metal_driver_cpu_interrupt_controller(cpu);
2010d3ba:	fdc42503          	lw	a0,-36(s0)
2010d3be:	945fe0ef          	jal	2010bd02 <__metal_driver_cpu_interrupt_controller>
2010d3c2:	fea42623          	sw	a0,-20(s0)
C:/VSD_Sqd_Project/sifive_hifive1_BitNet_MNIST_App/freedom-metal/src/drivers/riscv_cpu.c:659

    if (intc) {
2010d3c6:	fec42783          	lw	a5,-20(s0)
2010d3ca:	c78d                	beqz	a5,2010d3f4 <__metal_driver_cpu_mtime_get+0x52>
C:/VSD_Sqd_Project/sifive_hifive1_BitNet_MNIST_App/freedom-metal/src/drivers/riscv_cpu.c:660
        tmr_intc = intc->metal_int_table[METAL_INTERRUPT_ID_TMR].sub_int;
2010d3cc:	fec42783          	lw	a5,-20(s0)
2010d3d0:	13c7a783          	lw	a5,316(a5)
2010d3d4:	fef42423          	sw	a5,-24(s0)
C:/VSD_Sqd_Project/sifive_hifive1_BitNet_MNIST_App/freedom-metal/src/drivers/riscv_cpu.c:661
        if (tmr_intc) {
2010d3d8:	fe842783          	lw	a5,-24(s0)
2010d3dc:	cf81                	beqz	a5,2010d3f4 <__metal_driver_cpu_mtime_get+0x52>
C:/VSD_Sqd_Project/sifive_hifive1_BitNet_MNIST_App/freedom-metal/src/drivers/riscv_cpu.c:662
            tmr_intc->vtable->command_request(tmr_intc, METAL_TIMER_MTIME_GET,
2010d3de:	fe842783          	lw	a5,-24(s0)
2010d3e2:	439c                	lw	a5,0(a5)
2010d3e4:	47fc                	lw	a5,76(a5)
2010d3e6:	fe040713          	add	a4,s0,-32
2010d3ea:	863a                	mv	a2,a4
2010d3ec:	4585                	li	a1,1
2010d3ee:	fe842503          	lw	a0,-24(s0)
2010d3f2:	9782                	jalr	a5
C:/VSD_Sqd_Project/sifive_hifive1_BitNet_MNIST_App/freedom-metal/src/drivers/riscv_cpu.c:666
                                              &time);
        }
    }
    return time;
2010d3f4:	fe042703          	lw	a4,-32(s0)
2010d3f8:	fe442783          	lw	a5,-28(s0)
C:/VSD_Sqd_Project/sifive_hifive1_BitNet_MNIST_App/freedom-metal/src/drivers/riscv_cpu.c:667
}
2010d3fc:	853a                	mv	a0,a4
2010d3fe:	85be                	mv	a1,a5
2010d400:	50b2                	lw	ra,44(sp)
2010d402:	5422                	lw	s0,40(sp)
2010d404:	6145                	add	sp,sp,48
2010d406:	8082                	ret

2010d408 <__metal_driver_cpu_mtimecmp_set>:
__metal_driver_cpu_mtimecmp_set():
C:/VSD_Sqd_Project/sifive_hifive1_BitNet_MNIST_App/freedom-metal/src/drivers/riscv_cpu.c:670

int __metal_driver_cpu_mtimecmp_set(struct metal_cpu *cpu,
                                    unsigned long long time) {
2010d408:	7179                	add	sp,sp,-48
2010d40a:	d606                	sw	ra,44(sp)
2010d40c:	d422                	sw	s0,40(sp)
2010d40e:	d226                	sw	s1,36(sp)
2010d410:	1800                	add	s0,sp,48
2010d412:	fca42e23          	sw	a0,-36(s0)
2010d416:	fcb42823          	sw	a1,-48(s0)
2010d41a:	fcc42a23          	sw	a2,-44(s0)
C:/VSD_Sqd_Project/sifive_hifive1_BitNet_MNIST_App/freedom-metal/src/drivers/riscv_cpu.c:671
    int rc = -1;
2010d41e:	57fd                	li	a5,-1
2010d420:	fef42623          	sw	a5,-20(s0)
C:/VSD_Sqd_Project/sifive_hifive1_BitNet_MNIST_App/freedom-metal/src/drivers/riscv_cpu.c:675
    struct metal_interrupt *tmr_intc;
    struct __metal_driver_riscv_cpu_intc *intc =
        (struct __metal_driver_riscv_cpu_intc *)
            __metal_driver_cpu_interrupt_controller(cpu);
2010d424:	fdc42503          	lw	a0,-36(s0)
2010d428:	8dbfe0ef          	jal	2010bd02 <__metal_driver_cpu_interrupt_controller>
2010d42c:	fea42423          	sw	a0,-24(s0)
C:/VSD_Sqd_Project/sifive_hifive1_BitNet_MNIST_App/freedom-metal/src/drivers/riscv_cpu.c:677

    if (intc) {
2010d430:	fe842783          	lw	a5,-24(s0)
2010d434:	cf8d                	beqz	a5,2010d46e <__metal_driver_cpu_mtimecmp_set+0x66>
C:/VSD_Sqd_Project/sifive_hifive1_BitNet_MNIST_App/freedom-metal/src/drivers/riscv_cpu.c:678
        tmr_intc = intc->metal_int_table[METAL_INTERRUPT_ID_TMR].sub_int;
2010d436:	fe842783          	lw	a5,-24(s0)
2010d43a:	13c7a783          	lw	a5,316(a5)
2010d43e:	fef42223          	sw	a5,-28(s0)
C:/VSD_Sqd_Project/sifive_hifive1_BitNet_MNIST_App/freedom-metal/src/drivers/riscv_cpu.c:679
        if (tmr_intc) {
2010d442:	fe442783          	lw	a5,-28(s0)
2010d446:	c785                	beqz	a5,2010d46e <__metal_driver_cpu_mtimecmp_set+0x66>
C:/VSD_Sqd_Project/sifive_hifive1_BitNet_MNIST_App/freedom-metal/src/drivers/riscv_cpu.c:680
            rc = tmr_intc->vtable->mtimecmp_set(
2010d448:	fe442783          	lw	a5,-28(s0)
2010d44c:	439c                	lw	a5,0(a5)
2010d44e:	4ba4                	lw	s1,80(a5)
2010d450:	fdc42503          	lw	a0,-36(s0)
2010d454:	861fe0ef          	jal	2010bcb4 <__metal_driver_cpu_hartid>
2010d458:	87aa                	mv	a5,a0
C:/VSD_Sqd_Project/sifive_hifive1_BitNet_MNIST_App/freedom-metal/src/drivers/riscv_cpu.c:680 (discriminator 1)
2010d45a:	fd042603          	lw	a2,-48(s0)
2010d45e:	fd442683          	lw	a3,-44(s0)
2010d462:	85be                	mv	a1,a5
2010d464:	fe442503          	lw	a0,-28(s0)
2010d468:	9482                	jalr	s1
2010d46a:	fea42623          	sw	a0,-20(s0)
C:/VSD_Sqd_Project/sifive_hifive1_BitNet_MNIST_App/freedom-metal/src/drivers/riscv_cpu.c:684
                tmr_intc, __metal_driver_cpu_hartid(cpu), time);
        }
    }
    return rc;
2010d46e:	fec42783          	lw	a5,-20(s0)
C:/VSD_Sqd_Project/sifive_hifive1_BitNet_MNIST_App/freedom-metal/src/drivers/riscv_cpu.c:685
}
2010d472:	853e                	mv	a0,a5
2010d474:	50b2                	lw	ra,44(sp)
2010d476:	5422                	lw	s0,40(sp)
2010d478:	5492                	lw	s1,36(sp)
2010d47a:	6145                	add	sp,sp,48
2010d47c:	8082                	ret

2010d47e <__metal_driver_cpu_timer_controller_interrupt>:
__metal_driver_cpu_timer_controller_interrupt():
C:/VSD_Sqd_Project/sifive_hifive1_BitNet_MNIST_App/freedom-metal/src/drivers/riscv_cpu.c:688

struct metal_interrupt *
__metal_driver_cpu_timer_controller_interrupt(struct metal_cpu *cpu) {
2010d47e:	1101                	add	sp,sp,-32
2010d480:	ce22                	sw	s0,28(sp)
2010d482:	1000                	add	s0,sp,32
2010d484:	fea42623          	sw	a0,-20(s0)
C:/VSD_Sqd_Project/sifive_hifive1_BitNet_MNIST_App/freedom-metal/src/drivers/riscv_cpu.c:690
#ifdef __METAL_DT_RISCV_CLINT0_HANDLE
    return __METAL_DT_RISCV_CLINT0_HANDLE;
2010d488:	800017b7          	lui	a5,0x80001
2010d48c:	a7c78793          	add	a5,a5,-1412 # 80000a7c <__metal_dt_clint_2000000>
C:/VSD_Sqd_Project/sifive_hifive1_BitNet_MNIST_App/freedom-metal/src/drivers/riscv_cpu.c:699
#else
#pragma message("There is no interrupt controller for Timer interrupt")
    return NULL;
#endif
#endif
}
2010d490:	853e                	mv	a0,a5
2010d492:	4472                	lw	s0,28(sp)
2010d494:	6105                	add	sp,sp,32
2010d496:	8082                	ret

2010d498 <__metal_driver_cpu_get_timer_interrupt_id>:
__metal_driver_cpu_get_timer_interrupt_id():
C:/VSD_Sqd_Project/sifive_hifive1_BitNet_MNIST_App/freedom-metal/src/drivers/riscv_cpu.c:701

int __metal_driver_cpu_get_timer_interrupt_id(struct metal_cpu *cpu) {
2010d498:	1101                	add	sp,sp,-32
2010d49a:	ce22                	sw	s0,28(sp)
2010d49c:	1000                	add	s0,sp,32
2010d49e:	fea42623          	sw	a0,-20(s0)
C:/VSD_Sqd_Project/sifive_hifive1_BitNet_MNIST_App/freedom-metal/src/drivers/riscv_cpu.c:702
    return METAL_INTERRUPT_ID_TMR;
2010d4a2:	479d                	li	a5,7
C:/VSD_Sqd_Project/sifive_hifive1_BitNet_MNIST_App/freedom-metal/src/drivers/riscv_cpu.c:703
}
2010d4a4:	853e                	mv	a0,a5
2010d4a6:	4472                	lw	s0,28(sp)
2010d4a8:	6105                	add	sp,sp,32
2010d4aa:	8082                	ret

2010d4ac <__metal_driver_cpu_sw_controller_interrupt>:
__metal_driver_cpu_sw_controller_interrupt():
C:/VSD_Sqd_Project/sifive_hifive1_BitNet_MNIST_App/freedom-metal/src/drivers/riscv_cpu.c:706

struct metal_interrupt *
__metal_driver_cpu_sw_controller_interrupt(struct metal_cpu *cpu) {
2010d4ac:	1101                	add	sp,sp,-32
2010d4ae:	ce22                	sw	s0,28(sp)
2010d4b0:	1000                	add	s0,sp,32
2010d4b2:	fea42623          	sw	a0,-20(s0)
C:/VSD_Sqd_Project/sifive_hifive1_BitNet_MNIST_App/freedom-metal/src/drivers/riscv_cpu.c:708
#ifdef __METAL_DT_RISCV_CLINT0_HANDLE
    return __METAL_DT_RISCV_CLINT0_HANDLE;
2010d4b6:	800017b7          	lui	a5,0x80001
2010d4ba:	a7c78793          	add	a5,a5,-1412 # 80000a7c <__metal_dt_clint_2000000>
C:/VSD_Sqd_Project/sifive_hifive1_BitNet_MNIST_App/freedom-metal/src/drivers/riscv_cpu.c:717
#else
#pragma message("There is no interrupt controller for Software interrupt")
    return NULL;
#endif
#endif
}
2010d4be:	853e                	mv	a0,a5
2010d4c0:	4472                	lw	s0,28(sp)
2010d4c2:	6105                	add	sp,sp,32
2010d4c4:	8082                	ret

2010d4c6 <__metal_driver_cpu_get_sw_interrupt_id>:
__metal_driver_cpu_get_sw_interrupt_id():
C:/VSD_Sqd_Project/sifive_hifive1_BitNet_MNIST_App/freedom-metal/src/drivers/riscv_cpu.c:719

int __metal_driver_cpu_get_sw_interrupt_id(struct metal_cpu *cpu) {
2010d4c6:	1101                	add	sp,sp,-32
2010d4c8:	ce22                	sw	s0,28(sp)
2010d4ca:	1000                	add	s0,sp,32
2010d4cc:	fea42623          	sw	a0,-20(s0)
C:/VSD_Sqd_Project/sifive_hifive1_BitNet_MNIST_App/freedom-metal/src/drivers/riscv_cpu.c:720
    return METAL_INTERRUPT_ID_SW;
2010d4d0:	478d                	li	a5,3
C:/VSD_Sqd_Project/sifive_hifive1_BitNet_MNIST_App/freedom-metal/src/drivers/riscv_cpu.c:721
}
2010d4d2:	853e                	mv	a0,a5
2010d4d4:	4472                	lw	s0,28(sp)
2010d4d6:	6105                	add	sp,sp,32
2010d4d8:	8082                	ret

2010d4da <__metal_driver_cpu_set_sw_ipi>:
__metal_driver_cpu_set_sw_ipi():
C:/VSD_Sqd_Project/sifive_hifive1_BitNet_MNIST_App/freedom-metal/src/drivers/riscv_cpu.c:723

int __metal_driver_cpu_set_sw_ipi(struct metal_cpu *cpu, int hartid) {
2010d4da:	7179                	add	sp,sp,-48
2010d4dc:	d606                	sw	ra,44(sp)
2010d4de:	d422                	sw	s0,40(sp)
2010d4e0:	1800                	add	s0,sp,48
2010d4e2:	fca42e23          	sw	a0,-36(s0)
2010d4e6:	fcb42c23          	sw	a1,-40(s0)
C:/VSD_Sqd_Project/sifive_hifive1_BitNet_MNIST_App/freedom-metal/src/drivers/riscv_cpu.c:724
    int rc = -1;
2010d4ea:	57fd                	li	a5,-1
2010d4ec:	fef42623          	sw	a5,-20(s0)
C:/VSD_Sqd_Project/sifive_hifive1_BitNet_MNIST_App/freedom-metal/src/drivers/riscv_cpu.c:728
    struct metal_interrupt *sw_intc;
    struct __metal_driver_riscv_cpu_intc *intc =
        (struct __metal_driver_riscv_cpu_intc *)
            __metal_driver_cpu_interrupt_controller(cpu);
2010d4f0:	fdc42503          	lw	a0,-36(s0)
2010d4f4:	80ffe0ef          	jal	2010bd02 <__metal_driver_cpu_interrupt_controller>
2010d4f8:	fea42423          	sw	a0,-24(s0)
C:/VSD_Sqd_Project/sifive_hifive1_BitNet_MNIST_App/freedom-metal/src/drivers/riscv_cpu.c:730

    if (intc) {
2010d4fc:	fe842783          	lw	a5,-24(s0)
2010d500:	c79d                	beqz	a5,2010d52e <__metal_driver_cpu_set_sw_ipi+0x54>
C:/VSD_Sqd_Project/sifive_hifive1_BitNet_MNIST_App/freedom-metal/src/drivers/riscv_cpu.c:731
        sw_intc = intc->metal_int_table[METAL_INTERRUPT_ID_SW].sub_int;
2010d502:	fe842783          	lw	a5,-24(s0)
2010d506:	0dc7a783          	lw	a5,220(a5)
2010d50a:	fef42223          	sw	a5,-28(s0)
C:/VSD_Sqd_Project/sifive_hifive1_BitNet_MNIST_App/freedom-metal/src/drivers/riscv_cpu.c:732
        if (sw_intc) {
2010d50e:	fe442783          	lw	a5,-28(s0)
2010d512:	cf91                	beqz	a5,2010d52e <__metal_driver_cpu_set_sw_ipi+0x54>
C:/VSD_Sqd_Project/sifive_hifive1_BitNet_MNIST_App/freedom-metal/src/drivers/riscv_cpu.c:733
            rc = sw_intc->vtable->command_request(
2010d514:	fe442783          	lw	a5,-28(s0)
2010d518:	439c                	lw	a5,0(a5)
2010d51a:	47fc                	lw	a5,76(a5)
2010d51c:	fd840713          	add	a4,s0,-40
2010d520:	863a                	mv	a2,a4
2010d522:	458d                	li	a1,3
2010d524:	fe442503          	lw	a0,-28(s0)
2010d528:	9782                	jalr	a5
2010d52a:	fea42623          	sw	a0,-20(s0)
C:/VSD_Sqd_Project/sifive_hifive1_BitNet_MNIST_App/freedom-metal/src/drivers/riscv_cpu.c:737
                sw_intc, METAL_SOFTWARE_IPI_SET, &hartid);
        }
    }
    return rc;
2010d52e:	fec42783          	lw	a5,-20(s0)
C:/VSD_Sqd_Project/sifive_hifive1_BitNet_MNIST_App/freedom-metal/src/drivers/riscv_cpu.c:738
}
2010d532:	853e                	mv	a0,a5
2010d534:	50b2                	lw	ra,44(sp)
2010d536:	5422                	lw	s0,40(sp)
2010d538:	6145                	add	sp,sp,48
2010d53a:	8082                	ret

2010d53c <__metal_driver_cpu_clear_sw_ipi>:
__metal_driver_cpu_clear_sw_ipi():
C:/VSD_Sqd_Project/sifive_hifive1_BitNet_MNIST_App/freedom-metal/src/drivers/riscv_cpu.c:740

int __metal_driver_cpu_clear_sw_ipi(struct metal_cpu *cpu, int hartid) {
2010d53c:	7179                	add	sp,sp,-48
2010d53e:	d606                	sw	ra,44(sp)
2010d540:	d422                	sw	s0,40(sp)
2010d542:	1800                	add	s0,sp,48
2010d544:	fca42e23          	sw	a0,-36(s0)
2010d548:	fcb42c23          	sw	a1,-40(s0)
C:/VSD_Sqd_Project/sifive_hifive1_BitNet_MNIST_App/freedom-metal/src/drivers/riscv_cpu.c:741
    int rc = -1;
2010d54c:	57fd                	li	a5,-1
2010d54e:	fef42623          	sw	a5,-20(s0)
C:/VSD_Sqd_Project/sifive_hifive1_BitNet_MNIST_App/freedom-metal/src/drivers/riscv_cpu.c:745
    struct metal_interrupt *sw_intc;
    struct __metal_driver_riscv_cpu_intc *intc =
        (struct __metal_driver_riscv_cpu_intc *)
            __metal_driver_cpu_interrupt_controller(cpu);
2010d552:	fdc42503          	lw	a0,-36(s0)
2010d556:	facfe0ef          	jal	2010bd02 <__metal_driver_cpu_interrupt_controller>
2010d55a:	fea42423          	sw	a0,-24(s0)
C:/VSD_Sqd_Project/sifive_hifive1_BitNet_MNIST_App/freedom-metal/src/drivers/riscv_cpu.c:747

    if (intc) {
2010d55e:	fe842783          	lw	a5,-24(s0)
2010d562:	c79d                	beqz	a5,2010d590 <__metal_driver_cpu_clear_sw_ipi+0x54>
C:/VSD_Sqd_Project/sifive_hifive1_BitNet_MNIST_App/freedom-metal/src/drivers/riscv_cpu.c:748
        sw_intc = intc->metal_int_table[METAL_INTERRUPT_ID_SW].sub_int;
2010d564:	fe842783          	lw	a5,-24(s0)
2010d568:	0dc7a783          	lw	a5,220(a5)
2010d56c:	fef42223          	sw	a5,-28(s0)
C:/VSD_Sqd_Project/sifive_hifive1_BitNet_MNIST_App/freedom-metal/src/drivers/riscv_cpu.c:749
        if (sw_intc) {
2010d570:	fe442783          	lw	a5,-28(s0)
2010d574:	cf91                	beqz	a5,2010d590 <__metal_driver_cpu_clear_sw_ipi+0x54>
C:/VSD_Sqd_Project/sifive_hifive1_BitNet_MNIST_App/freedom-metal/src/drivers/riscv_cpu.c:750
            rc = sw_intc->vtable->command_request(
2010d576:	fe442783          	lw	a5,-28(s0)
2010d57a:	439c                	lw	a5,0(a5)
2010d57c:	47fc                	lw	a5,76(a5)
2010d57e:	fd840713          	add	a4,s0,-40
2010d582:	863a                	mv	a2,a4
2010d584:	4589                	li	a1,2
2010d586:	fe442503          	lw	a0,-28(s0)
2010d58a:	9782                	jalr	a5
2010d58c:	fea42623          	sw	a0,-20(s0)
C:/VSD_Sqd_Project/sifive_hifive1_BitNet_MNIST_App/freedom-metal/src/drivers/riscv_cpu.c:754
                sw_intc, METAL_SOFTWARE_IPI_CLEAR, &hartid);
        }
    }
    return rc;
2010d590:	fec42783          	lw	a5,-20(s0)
C:/VSD_Sqd_Project/sifive_hifive1_BitNet_MNIST_App/freedom-metal/src/drivers/riscv_cpu.c:755
}
2010d594:	853e                	mv	a0,a5
2010d596:	50b2                	lw	ra,44(sp)
2010d598:	5422                	lw	s0,40(sp)
2010d59a:	6145                	add	sp,sp,48
2010d59c:	8082                	ret

2010d59e <__metal_driver_cpu_get_msip>:
__metal_driver_cpu_get_msip():
C:/VSD_Sqd_Project/sifive_hifive1_BitNet_MNIST_App/freedom-metal/src/drivers/riscv_cpu.c:757

int __metal_driver_cpu_get_msip(struct metal_cpu *cpu, int hartid) {
2010d59e:	7179                	add	sp,sp,-48
2010d5a0:	d606                	sw	ra,44(sp)
2010d5a2:	d422                	sw	s0,40(sp)
2010d5a4:	1800                	add	s0,sp,48
2010d5a6:	fca42e23          	sw	a0,-36(s0)
2010d5aa:	fcb42c23          	sw	a1,-40(s0)
C:/VSD_Sqd_Project/sifive_hifive1_BitNet_MNIST_App/freedom-metal/src/drivers/riscv_cpu.c:758
    int rc = 0;
2010d5ae:	fe042623          	sw	zero,-20(s0)
C:/VSD_Sqd_Project/sifive_hifive1_BitNet_MNIST_App/freedom-metal/src/drivers/riscv_cpu.c:762
    struct metal_interrupt *sw_intc;
    struct __metal_driver_riscv_cpu_intc *intc =
        (struct __metal_driver_riscv_cpu_intc *)
            __metal_driver_cpu_interrupt_controller(cpu);
2010d5b2:	fdc42503          	lw	a0,-36(s0)
2010d5b6:	f4cfe0ef          	jal	2010bd02 <__metal_driver_cpu_interrupt_controller>
2010d5ba:	fea42423          	sw	a0,-24(s0)
C:/VSD_Sqd_Project/sifive_hifive1_BitNet_MNIST_App/freedom-metal/src/drivers/riscv_cpu.c:764

    if (intc) {
2010d5be:	fe842783          	lw	a5,-24(s0)
2010d5c2:	c79d                	beqz	a5,2010d5f0 <__metal_driver_cpu_get_msip+0x52>
C:/VSD_Sqd_Project/sifive_hifive1_BitNet_MNIST_App/freedom-metal/src/drivers/riscv_cpu.c:765
        sw_intc = intc->metal_int_table[METAL_INTERRUPT_ID_SW].sub_int;
2010d5c4:	fe842783          	lw	a5,-24(s0)
2010d5c8:	0dc7a783          	lw	a5,220(a5)
2010d5cc:	fef42223          	sw	a5,-28(s0)
C:/VSD_Sqd_Project/sifive_hifive1_BitNet_MNIST_App/freedom-metal/src/drivers/riscv_cpu.c:766
        if (sw_intc) {
2010d5d0:	fe442783          	lw	a5,-28(s0)
2010d5d4:	cf91                	beqz	a5,2010d5f0 <__metal_driver_cpu_get_msip+0x52>
C:/VSD_Sqd_Project/sifive_hifive1_BitNet_MNIST_App/freedom-metal/src/drivers/riscv_cpu.c:767
            rc = sw_intc->vtable->command_request(
2010d5d6:	fe442783          	lw	a5,-28(s0)
2010d5da:	439c                	lw	a5,0(a5)
2010d5dc:	47fc                	lw	a5,76(a5)
2010d5de:	fd840713          	add	a4,s0,-40
2010d5e2:	863a                	mv	a2,a4
2010d5e4:	4591                	li	a1,4
2010d5e6:	fe442503          	lw	a0,-28(s0)
2010d5ea:	9782                	jalr	a5
2010d5ec:	fea42623          	sw	a0,-20(s0)
C:/VSD_Sqd_Project/sifive_hifive1_BitNet_MNIST_App/freedom-metal/src/drivers/riscv_cpu.c:771
                sw_intc, METAL_SOFTWARE_MSIP_GET, &hartid);
        }
    }
    return rc;
2010d5f0:	fec42783          	lw	a5,-20(s0)
C:/VSD_Sqd_Project/sifive_hifive1_BitNet_MNIST_App/freedom-metal/src/drivers/riscv_cpu.c:772
}
2010d5f4:	853e                	mv	a0,a5
2010d5f6:	50b2                	lw	ra,44(sp)
2010d5f8:	5422                	lw	s0,40(sp)
2010d5fa:	6145                	add	sp,sp,48
2010d5fc:	8082                	ret

2010d5fe <__metal_driver_cpu_controller_interrupt>:
__metal_driver_cpu_controller_interrupt():
C:/VSD_Sqd_Project/sifive_hifive1_BitNet_MNIST_App/freedom-metal/src/drivers/riscv_cpu.c:775

struct metal_interrupt *
__metal_driver_cpu_controller_interrupt(struct metal_cpu *cpu) {
2010d5fe:	1101                	add	sp,sp,-32
2010d600:	ce06                	sw	ra,28(sp)
2010d602:	cc22                	sw	s0,24(sp)
2010d604:	1000                	add	s0,sp,32
2010d606:	fea42623          	sw	a0,-20(s0)
C:/VSD_Sqd_Project/sifive_hifive1_BitNet_MNIST_App/freedom-metal/src/drivers/riscv_cpu.c:776
    return __metal_driver_cpu_interrupt_controller(cpu);
2010d60a:	fec42503          	lw	a0,-20(s0)
2010d60e:	ef4fe0ef          	jal	2010bd02 <__metal_driver_cpu_interrupt_controller>
2010d612:	87aa                	mv	a5,a0
C:/VSD_Sqd_Project/sifive_hifive1_BitNet_MNIST_App/freedom-metal/src/drivers/riscv_cpu.c:777
}
2010d614:	853e                	mv	a0,a5
2010d616:	40f2                	lw	ra,28(sp)
2010d618:	4462                	lw	s0,24(sp)
2010d61a:	6105                	add	sp,sp,32
2010d61c:	8082                	ret

2010d61e <__metal_driver_cpu_exception_register>:
__metal_driver_cpu_exception_register():
C:/VSD_Sqd_Project/sifive_hifive1_BitNet_MNIST_App/freedom-metal/src/drivers/riscv_cpu.c:798
    }
    return -1;
}

int __metal_driver_cpu_exception_register(struct metal_cpu *cpu, int ecode,
                                          metal_exception_handler_t isr) {
2010d61e:	7179                	add	sp,sp,-48
2010d620:	d606                	sw	ra,44(sp)
2010d622:	d422                	sw	s0,40(sp)
2010d624:	1800                	add	s0,sp,48
2010d626:	fca42e23          	sw	a0,-36(s0)
2010d62a:	fcb42c23          	sw	a1,-40(s0)
2010d62e:	fcc42a23          	sw	a2,-44(s0)
C:/VSD_Sqd_Project/sifive_hifive1_BitNet_MNIST_App/freedom-metal/src/drivers/riscv_cpu.c:801
    struct __metal_driver_riscv_cpu_intc *intc =
        (struct __metal_driver_riscv_cpu_intc *)
            __metal_driver_cpu_interrupt_controller(cpu);
2010d632:	fdc42503          	lw	a0,-36(s0)
2010d636:	eccfe0ef          	jal	2010bd02 <__metal_driver_cpu_interrupt_controller>
2010d63a:	fea42623          	sw	a0,-20(s0)
C:/VSD_Sqd_Project/sifive_hifive1_BitNet_MNIST_App/freedom-metal/src/drivers/riscv_cpu.c:803

    if (intc) {
2010d63e:	fec42783          	lw	a5,-20(s0)
2010d642:	cb99                	beqz	a5,2010d658 <__metal_driver_cpu_exception_register+0x3a>
C:/VSD_Sqd_Project/sifive_hifive1_BitNet_MNIST_App/freedom-metal/src/drivers/riscv_cpu.c:804
        return __metal_exception_register((struct metal_interrupt *)intc, ecode,
2010d644:	fd442603          	lw	a2,-44(s0)
2010d648:	fd842583          	lw	a1,-40(s0)
2010d64c:	fec42503          	lw	a0,-20(s0)
2010d650:	8a7ff0ef          	jal	2010cef6 <__metal_exception_register>
2010d654:	87aa                	mv	a5,a0
2010d656:	a011                	j	2010d65a <__metal_driver_cpu_exception_register+0x3c>
C:/VSD_Sqd_Project/sifive_hifive1_BitNet_MNIST_App/freedom-metal/src/drivers/riscv_cpu.c:807
                                          isr);
    }
    return -1;
2010d658:	57fd                	li	a5,-1
C:/VSD_Sqd_Project/sifive_hifive1_BitNet_MNIST_App/freedom-metal/src/drivers/riscv_cpu.c:808
}
2010d65a:	853e                	mv	a0,a5
2010d65c:	50b2                	lw	ra,44(sp)
2010d65e:	5422                	lw	s0,40(sp)
2010d660:	6145                	add	sp,sp,48
2010d662:	8082                	ret

2010d664 <__metal_driver_cpu_get_instruction_length>:
__metal_driver_cpu_get_instruction_length():
C:/VSD_Sqd_Project/sifive_hifive1_BitNet_MNIST_App/freedom-metal/src/drivers/riscv_cpu.c:811

int __metal_driver_cpu_get_instruction_length(struct metal_cpu *cpu,
                                              uintptr_t epc) {
2010d664:	1101                	add	sp,sp,-32
2010d666:	ce22                	sw	s0,28(sp)
2010d668:	1000                	add	s0,sp,32
2010d66a:	fea42623          	sw	a0,-20(s0)
2010d66e:	feb42423          	sw	a1,-24(s0)
C:/VSD_Sqd_Project/sifive_hifive1_BitNet_MNIST_App/freedom-metal/src/drivers/riscv_cpu.c:817
    /**
     * Per ISA compressed instruction has last two bits of opcode set.
     * The encoding '00' '01' '10' are used for compressed instruction.
     * Only enconding '11' isn't regarded as compressed instruction (>16b).
     */
    return ((*(unsigned short *)epc & METAL_INSN_LENGTH_MASK) ==
2010d672:	fe842783          	lw	a5,-24(s0)
2010d676:	0007d783          	lhu	a5,0(a5)
2010d67a:	0037f713          	and	a4,a5,3
C:/VSD_Sqd_Project/sifive_hifive1_BitNet_MNIST_App/freedom-metal/src/drivers/riscv_cpu.c:820
            METAL_INSN_NOT_COMPRESSED)
               ? 4
               : 2;
2010d67e:	478d                	li	a5,3
2010d680:	00f71463          	bne	a4,a5,2010d688 <__metal_driver_cpu_get_instruction_length+0x24>
C:/VSD_Sqd_Project/sifive_hifive1_BitNet_MNIST_App/freedom-metal/src/drivers/riscv_cpu.c:820 (discriminator 1)
2010d684:	4791                	li	a5,4
C:/VSD_Sqd_Project/sifive_hifive1_BitNet_MNIST_App/freedom-metal/src/drivers/riscv_cpu.c:820
2010d686:	a011                	j	2010d68a <__metal_driver_cpu_get_instruction_length+0x26>
C:/VSD_Sqd_Project/sifive_hifive1_BitNet_MNIST_App/freedom-metal/src/drivers/riscv_cpu.c:820 (discriminator 2)
2010d688:	4789                	li	a5,2
C:/VSD_Sqd_Project/sifive_hifive1_BitNet_MNIST_App/freedom-metal/src/drivers/riscv_cpu.c:821
}
2010d68a:	853e                	mv	a0,a5
2010d68c:	4472                	lw	s0,28(sp)
2010d68e:	6105                	add	sp,sp,32
2010d690:	8082                	ret

2010d692 <__metal_driver_cpu_get_exception_pc>:
__metal_driver_cpu_get_exception_pc():
C:/VSD_Sqd_Project/sifive_hifive1_BitNet_MNIST_App/freedom-metal/src/drivers/riscv_cpu.c:823

uintptr_t __metal_driver_cpu_get_exception_pc(struct metal_cpu *cpu) {
2010d692:	7179                	add	sp,sp,-48
2010d694:	d622                	sw	s0,44(sp)
2010d696:	1800                	add	s0,sp,48
2010d698:	fca42e23          	sw	a0,-36(s0)
C:/VSD_Sqd_Project/sifive_hifive1_BitNet_MNIST_App/freedom-metal/src/drivers/riscv_cpu.c:825
    uintptr_t mepc;
    __asm__ volatile("csrr %0, mepc" : "=r"(mepc));
2010d69c:	341027f3          	csrr	a5,mepc
2010d6a0:	fef42623          	sw	a5,-20(s0)
C:/VSD_Sqd_Project/sifive_hifive1_BitNet_MNIST_App/freedom-metal/src/drivers/riscv_cpu.c:826
    return mepc;
2010d6a4:	fec42783          	lw	a5,-20(s0)
C:/VSD_Sqd_Project/sifive_hifive1_BitNet_MNIST_App/freedom-metal/src/drivers/riscv_cpu.c:827
}
2010d6a8:	853e                	mv	a0,a5
2010d6aa:	5432                	lw	s0,44(sp)
2010d6ac:	6145                	add	sp,sp,48
2010d6ae:	8082                	ret

2010d6b0 <__metal_driver_cpu_set_exception_pc>:
__metal_driver_cpu_set_exception_pc():
C:/VSD_Sqd_Project/sifive_hifive1_BitNet_MNIST_App/freedom-metal/src/drivers/riscv_cpu.c:829

int __metal_driver_cpu_set_exception_pc(struct metal_cpu *cpu, uintptr_t mepc) {
2010d6b0:	1101                	add	sp,sp,-32
2010d6b2:	ce22                	sw	s0,28(sp)
2010d6b4:	1000                	add	s0,sp,32
2010d6b6:	fea42623          	sw	a0,-20(s0)
2010d6ba:	feb42423          	sw	a1,-24(s0)
C:/VSD_Sqd_Project/sifive_hifive1_BitNet_MNIST_App/freedom-metal/src/drivers/riscv_cpu.c:830
    __asm__ volatile("csrw mepc, %0" ::"r"(mepc));
2010d6be:	fe842783          	lw	a5,-24(s0)
2010d6c2:	34179073          	csrw	mepc,a5
C:/VSD_Sqd_Project/sifive_hifive1_BitNet_MNIST_App/freedom-metal/src/drivers/riscv_cpu.c:831
    return 0;
2010d6c6:	4781                	li	a5,0
C:/VSD_Sqd_Project/sifive_hifive1_BitNet_MNIST_App/freedom-metal/src/drivers/riscv_cpu.c:832
}
2010d6c8:	853e                	mv	a0,a5
2010d6ca:	4472                	lw	s0,28(sp)
2010d6cc:	6105                	add	sp,sp,32
2010d6ce:	8082                	ret

2010d6d0 <__metal_driver_cpu_get_buserror>:
__metal_driver_cpu_get_buserror():
C:/VSD_Sqd_Project/sifive_hifive1_BitNet_MNIST_App/freedom-metal/src/drivers/riscv_cpu.c:834

struct metal_buserror *__metal_driver_cpu_get_buserror(struct metal_cpu *cpu) {
2010d6d0:	1101                	add	sp,sp,-32
2010d6d2:	ce06                	sw	ra,28(sp)
2010d6d4:	cc22                	sw	s0,24(sp)
2010d6d6:	1000                	add	s0,sp,32
2010d6d8:	fea42623          	sw	a0,-20(s0)
C:/VSD_Sqd_Project/sifive_hifive1_BitNet_MNIST_App/freedom-metal/src/drivers/riscv_cpu.c:835
    return __metal_driver_cpu_buserror(cpu);
2010d6dc:	fec42503          	lw	a0,-20(s0)
2010d6e0:	e4cfe0ef          	jal	2010bd2c <__metal_driver_cpu_buserror>
2010d6e4:	87aa                	mv	a5,a0
C:/VSD_Sqd_Project/sifive_hifive1_BitNet_MNIST_App/freedom-metal/src/drivers/riscv_cpu.c:836
}
2010d6e6:	853e                	mv	a0,a5
2010d6e8:	40f2                	lw	ra,28(sp)
2010d6ea:	4462                	lw	s0,24(sp)
2010d6ec:	6105                	add	sp,sp,32
2010d6ee:	8082                	ret

2010d6f0 <__metal_driver_sifive_plic0_control_base>:
__metal_driver_sifive_plic0_control_base():
C:\VSD_Sqd_Project\sifive_hifive1_BitNet_MNIST_App\bsp\build\debug/./metal/machine.h:320



/* --------------------- sifive_plic0 ------------ */
static __inline__ unsigned long __metal_driver_sifive_plic0_control_base(struct metal_interrupt *controller)
{
2010d6f0:	1101                	add	sp,sp,-32
2010d6f2:	ce22                	sw	s0,28(sp)
2010d6f4:	1000                	add	s0,sp,32
2010d6f6:	fea42623          	sw	a0,-20(s0)
C:\VSD_Sqd_Project\sifive_hifive1_BitNet_MNIST_App\bsp\build\debug/./metal/machine.h:321
	if ((uintptr_t)controller == (uintptr_t)&__metal_dt_interrupt_controller_c000000) {
2010d6fa:	fec42703          	lw	a4,-20(s0)
2010d6fe:	800007b7          	lui	a5,0x80000
2010d702:	45078793          	add	a5,a5,1104 # 80000450 <__metal_dt_interrupt_controller_c000000>
2010d706:	00f71563          	bne	a4,a5,2010d710 <__metal_driver_sifive_plic0_control_base+0x20>
C:\VSD_Sqd_Project\sifive_hifive1_BitNet_MNIST_App\bsp\build\debug/./metal/machine.h:322
		return METAL_RISCV_PLIC0_C000000_BASE_ADDRESS;
2010d70a:	0c0007b7          	lui	a5,0xc000
2010d70e:	a011                	j	2010d712 <__metal_driver_sifive_plic0_control_base+0x22>
C:\VSD_Sqd_Project\sifive_hifive1_BitNet_MNIST_App\bsp\build\debug/./metal/machine.h:325
	}
	else {
		return 0;
2010d710:	4781                	li	a5,0
C:\VSD_Sqd_Project\sifive_hifive1_BitNet_MNIST_App\bsp\build\debug/./metal/machine.h:327
	}
}
2010d712:	853e                	mv	a0,a5
2010d714:	4472                	lw	s0,28(sp)
2010d716:	6105                	add	sp,sp,32
2010d718:	8082                	ret

2010d71a <__metal_driver_sifive_plic0_num_interrupts>:
__metal_driver_sifive_plic0_num_interrupts():
C:\VSD_Sqd_Project\sifive_hifive1_BitNet_MNIST_App\bsp\build\debug/./metal/machine.h:340
		return 0;
	}
}

static __inline__ int __metal_driver_sifive_plic0_num_interrupts(struct metal_interrupt *controller)
{
2010d71a:	1101                	add	sp,sp,-32
2010d71c:	ce22                	sw	s0,28(sp)
2010d71e:	1000                	add	s0,sp,32
2010d720:	fea42623          	sw	a0,-20(s0)
C:\VSD_Sqd_Project\sifive_hifive1_BitNet_MNIST_App\bsp\build\debug/./metal/machine.h:341
	if ((uintptr_t)controller == (uintptr_t)&__metal_dt_interrupt_controller_c000000) {
2010d724:	fec42703          	lw	a4,-20(s0)
2010d728:	800007b7          	lui	a5,0x80000
2010d72c:	45078793          	add	a5,a5,1104 # 80000450 <__metal_dt_interrupt_controller_c000000>
2010d730:	00f71563          	bne	a4,a5,2010d73a <__metal_driver_sifive_plic0_num_interrupts+0x20>
C:\VSD_Sqd_Project\sifive_hifive1_BitNet_MNIST_App\bsp\build\debug/./metal/machine.h:342
		return METAL_RISCV_PLIC0_C000000_RISCV_NDEV;
2010d734:	03500793          	li	a5,53
2010d738:	a011                	j	2010d73c <__metal_driver_sifive_plic0_num_interrupts+0x22>
C:\VSD_Sqd_Project\sifive_hifive1_BitNet_MNIST_App\bsp\build\debug/./metal/machine.h:345
	}
	else {
		return 0;
2010d73a:	4781                	li	a5,0
C:\VSD_Sqd_Project\sifive_hifive1_BitNet_MNIST_App\bsp\build\debug/./metal/machine.h:347
	}
}
2010d73c:	853e                	mv	a0,a5
2010d73e:	4472                	lw	s0,28(sp)
2010d740:	6105                	add	sp,sp,32
2010d742:	8082                	ret

2010d744 <__metal_driver_sifive_plic0_max_priority>:
__metal_driver_sifive_plic0_max_priority():
C:\VSD_Sqd_Project\sifive_hifive1_BitNet_MNIST_App\bsp\build\debug/./metal/machine.h:350

static __inline__ int __metal_driver_sifive_plic0_max_priority(struct metal_interrupt *controller)
{
2010d744:	1101                	add	sp,sp,-32
2010d746:	ce22                	sw	s0,28(sp)
2010d748:	1000                	add	s0,sp,32
2010d74a:	fea42623          	sw	a0,-20(s0)
C:\VSD_Sqd_Project\sifive_hifive1_BitNet_MNIST_App\bsp\build\debug/./metal/machine.h:351
	if ((uintptr_t)controller == (uintptr_t)&__metal_dt_interrupt_controller_c000000) {
2010d74e:	fec42703          	lw	a4,-20(s0)
2010d752:	800007b7          	lui	a5,0x80000
2010d756:	45078793          	add	a5,a5,1104 # 80000450 <__metal_dt_interrupt_controller_c000000>
2010d75a:	00f71463          	bne	a4,a5,2010d762 <__metal_driver_sifive_plic0_max_priority+0x1e>
C:\VSD_Sqd_Project\sifive_hifive1_BitNet_MNIST_App\bsp\build\debug/./metal/machine.h:352
		return METAL_RISCV_PLIC0_C000000_RISCV_MAX_PRIORITY;
2010d75e:	479d                	li	a5,7
2010d760:	a011                	j	2010d764 <__metal_driver_sifive_plic0_max_priority+0x20>
C:\VSD_Sqd_Project\sifive_hifive1_BitNet_MNIST_App\bsp\build\debug/./metal/machine.h:355
	}
	else {
		return 0;
2010d762:	4781                	li	a5,0
C:\VSD_Sqd_Project\sifive_hifive1_BitNet_MNIST_App\bsp\build\debug/./metal/machine.h:357
	}
}
2010d764:	853e                	mv	a0,a5
2010d766:	4472                	lw	s0,28(sp)
2010d768:	6105                	add	sp,sp,32
2010d76a:	8082                	ret

2010d76c <__metal_driver_sifive_plic0_interrupt_parents>:
__metal_driver_sifive_plic0_interrupt_parents():
C:\VSD_Sqd_Project\sifive_hifive1_BitNet_MNIST_App\bsp\build\debug/./metal/machine.h:360

static __inline__ struct metal_interrupt * __metal_driver_sifive_plic0_interrupt_parents(struct metal_interrupt *controller, int idx)
{
2010d76c:	1101                	add	sp,sp,-32
2010d76e:	ce22                	sw	s0,28(sp)
2010d770:	1000                	add	s0,sp,32
2010d772:	fea42623          	sw	a0,-20(s0)
2010d776:	feb42423          	sw	a1,-24(s0)
C:\VSD_Sqd_Project\sifive_hifive1_BitNet_MNIST_App\bsp\build\debug/./metal/machine.h:361
	if (idx == 0) {
2010d77a:	fe842783          	lw	a5,-24(s0)
2010d77e:	e791                	bnez	a5,2010d78a <__metal_driver_sifive_plic0_interrupt_parents+0x1e>
C:\VSD_Sqd_Project\sifive_hifive1_BitNet_MNIST_App\bsp\build\debug/./metal/machine.h:362
		return (struct metal_interrupt *)&__metal_dt_cpu_0_interrupt_controller.controller;
2010d780:	800007b7          	lui	a5,0x80000
2010d784:	08078793          	add	a5,a5,128 # 80000080 <__metal_dt_cpu_0_interrupt_controller>
2010d788:	a011                	j	2010d78c <__metal_driver_sifive_plic0_interrupt_parents+0x20>
C:\VSD_Sqd_Project\sifive_hifive1_BitNet_MNIST_App\bsp\build\debug/./metal/machine.h:365
	}
	else {
		return NULL;
2010d78a:	4781                	li	a5,0
C:\VSD_Sqd_Project\sifive_hifive1_BitNet_MNIST_App\bsp\build\debug/./metal/machine.h:367
	}
}
2010d78c:	853e                	mv	a0,a5
2010d78e:	4472                	lw	s0,28(sp)
2010d790:	6105                	add	sp,sp,32
2010d792:	8082                	ret

2010d794 <__metal_driver_sifive_plic0_interrupt_lines>:
__metal_driver_sifive_plic0_interrupt_lines():
C:\VSD_Sqd_Project\sifive_hifive1_BitNet_MNIST_App\bsp\build\debug/./metal/machine.h:370

static __inline__ int __metal_driver_sifive_plic0_interrupt_lines(struct metal_interrupt *controller, int idx)
{
2010d794:	1101                	add	sp,sp,-32
2010d796:	ce22                	sw	s0,28(sp)
2010d798:	1000                	add	s0,sp,32
2010d79a:	fea42623          	sw	a0,-20(s0)
2010d79e:	feb42423          	sw	a1,-24(s0)
C:\VSD_Sqd_Project\sifive_hifive1_BitNet_MNIST_App\bsp\build\debug/./metal/machine.h:371
	if (idx == 0) {
2010d7a2:	fe842783          	lw	a5,-24(s0)
2010d7a6:	e399                	bnez	a5,2010d7ac <__metal_driver_sifive_plic0_interrupt_lines+0x18>
C:\VSD_Sqd_Project\sifive_hifive1_BitNet_MNIST_App\bsp\build\debug/./metal/machine.h:372
		return 11;
2010d7a8:	47ad                	li	a5,11
2010d7aa:	a011                	j	2010d7ae <__metal_driver_sifive_plic0_interrupt_lines+0x1a>
C:\VSD_Sqd_Project\sifive_hifive1_BitNet_MNIST_App\bsp\build\debug/./metal/machine.h:375
	}
	else {
		return 0;
2010d7ac:	4781                	li	a5,0
C:\VSD_Sqd_Project\sifive_hifive1_BitNet_MNIST_App\bsp\build\debug/./metal/machine.h:377
	}
}
2010d7ae:	853e                	mv	a0,a5
2010d7b0:	4472                	lw	s0,28(sp)
2010d7b2:	6105                	add	sp,sp,32
2010d7b4:	8082                	ret

2010d7b6 <__metal_driver_sifive_plic0_context_ids>:
__metal_driver_sifive_plic0_context_ids():
C:\VSD_Sqd_Project\sifive_hifive1_BitNet_MNIST_App\bsp\build\debug/./metal/machine.h:380

static __inline__ int __metal_driver_sifive_plic0_context_ids(int hartid)
{
2010d7b6:	1101                	add	sp,sp,-32
2010d7b8:	ce22                	sw	s0,28(sp)
2010d7ba:	1000                	add	s0,sp,32
2010d7bc:	fea42623          	sw	a0,-20(s0)
C:\VSD_Sqd_Project\sifive_hifive1_BitNet_MNIST_App\bsp\build\debug/./metal/machine.h:381
	if (hartid == 0) {
2010d7c0:	fec42783          	lw	a5,-20(s0)
2010d7c4:	e399                	bnez	a5,2010d7ca <__metal_driver_sifive_plic0_context_ids+0x14>
C:\VSD_Sqd_Project\sifive_hifive1_BitNet_MNIST_App\bsp\build\debug/./metal/machine.h:382
		return 0;
2010d7c6:	4781                	li	a5,0
2010d7c8:	a011                	j	2010d7cc <__metal_driver_sifive_plic0_context_ids+0x16>
C:\VSD_Sqd_Project\sifive_hifive1_BitNet_MNIST_App\bsp\build\debug/./metal/machine.h:385
	}
	else {
		return -1;
2010d7ca:	57fd                	li	a5,-1
C:\VSD_Sqd_Project\sifive_hifive1_BitNet_MNIST_App\bsp\build\debug/./metal/machine.h:387
	}
}
2010d7cc:	853e                	mv	a0,a5
2010d7ce:	4472                	lw	s0,28(sp)
2010d7d0:	6105                	add	sp,sp,32
2010d7d2:	8082                	ret

2010d7d4 <__metal_plic0_claim_interrupt>:
__metal_plic0_claim_interrupt():
C:/VSD_Sqd_Project/sifive_hifive1_BitNet_MNIST_App/freedom-metal/src/drivers/riscv_plic0.c:18
#include <metal/machine.h>
#include <metal/shutdown.h>

unsigned int
__metal_plic0_claim_interrupt(struct __metal_driver_riscv_plic0 *plic,
                              int context_id) {
2010d7d4:	7179                	add	sp,sp,-48
2010d7d6:	d606                	sw	ra,44(sp)
2010d7d8:	d422                	sw	s0,40(sp)
2010d7da:	1800                	add	s0,sp,48
2010d7dc:	fca42e23          	sw	a0,-36(s0)
2010d7e0:	fcb42c23          	sw	a1,-40(s0)
C:/VSD_Sqd_Project/sifive_hifive1_BitNet_MNIST_App/freedom-metal/src/drivers/riscv_plic0.c:19
    unsigned long control_base = __metal_driver_sifive_plic0_control_base(
2010d7e4:	fdc42503          	lw	a0,-36(s0)
2010d7e8:	3721                	jal	2010d6f0 <__metal_driver_sifive_plic0_control_base>
2010d7ea:	fea42623          	sw	a0,-20(s0)
C:/VSD_Sqd_Project/sifive_hifive1_BitNet_MNIST_App/freedom-metal/src/drivers/riscv_plic0.c:21
        (struct metal_interrupt *)plic);
    return __METAL_ACCESS_ONCE(
2010d7ee:	fd842783          	lw	a5,-40(s0)
2010d7f2:	00c79713          	sll	a4,a5,0xc
2010d7f6:	fec42783          	lw	a5,-20(s0)
2010d7fa:	973e                	add	a4,a4,a5
2010d7fc:	002007b7          	lui	a5,0x200
2010d800:	0791                	add	a5,a5,4 # 200004 <__heap_size+0x1ff804>
2010d802:	97ba                	add	a5,a5,a4
2010d804:	439c                	lw	a5,0(a5)
C:/VSD_Sqd_Project/sifive_hifive1_BitNet_MNIST_App/freedom-metal/src/drivers/riscv_plic0.c:25
        (__metal_io_u32 *)(control_base + METAL_RISCV_PLIC0_CONTEXT_BASE +
                           (context_id * METAL_RISCV_PLIC0_CONTEXT_PER_HART) +
                           METAL_RISCV_PLIC0_CONTEXT_CLAIM));
}
2010d806:	853e                	mv	a0,a5
2010d808:	50b2                	lw	ra,44(sp)
2010d80a:	5422                	lw	s0,40(sp)
2010d80c:	6145                	add	sp,sp,48
2010d80e:	8082                	ret

2010d810 <__metal_plic0_complete_interrupt>:
__metal_plic0_complete_interrupt():
C:/VSD_Sqd_Project/sifive_hifive1_BitNet_MNIST_App/freedom-metal/src/drivers/riscv_plic0.c:28

void __metal_plic0_complete_interrupt(struct __metal_driver_riscv_plic0 *plic,
                                      int context_id, unsigned int id) {
2010d810:	7179                	add	sp,sp,-48
2010d812:	d606                	sw	ra,44(sp)
2010d814:	d422                	sw	s0,40(sp)
2010d816:	1800                	add	s0,sp,48
2010d818:	fca42e23          	sw	a0,-36(s0)
2010d81c:	fcb42c23          	sw	a1,-40(s0)
2010d820:	fcc42a23          	sw	a2,-44(s0)
C:/VSD_Sqd_Project/sifive_hifive1_BitNet_MNIST_App/freedom-metal/src/drivers/riscv_plic0.c:29
    unsigned long control_base = __metal_driver_sifive_plic0_control_base(
2010d824:	fdc42503          	lw	a0,-36(s0)
2010d828:	35e1                	jal	2010d6f0 <__metal_driver_sifive_plic0_control_base>
2010d82a:	fea42623          	sw	a0,-20(s0)
C:/VSD_Sqd_Project/sifive_hifive1_BitNet_MNIST_App/freedom-metal/src/drivers/riscv_plic0.c:31
        (struct metal_interrupt *)plic);
    __METAL_ACCESS_ONCE(
2010d82e:	fd842783          	lw	a5,-40(s0)
2010d832:	00c79713          	sll	a4,a5,0xc
2010d836:	fec42783          	lw	a5,-20(s0)
2010d83a:	973e                	add	a4,a4,a5
2010d83c:	002007b7          	lui	a5,0x200
2010d840:	0791                	add	a5,a5,4 # 200004 <__heap_size+0x1ff804>
2010d842:	97ba                	add	a5,a5,a4
2010d844:	873e                	mv	a4,a5
C:/VSD_Sqd_Project/sifive_hifive1_BitNet_MNIST_App/freedom-metal/src/drivers/riscv_plic0.c:34
        (__metal_io_u32 *)(control_base + METAL_RISCV_PLIC0_CONTEXT_BASE +
                           (context_id * METAL_RISCV_PLIC0_CONTEXT_PER_HART) +
                           METAL_RISCV_PLIC0_CONTEXT_CLAIM)) = id;
2010d846:	fd442783          	lw	a5,-44(s0)
2010d84a:	c31c                	sw	a5,0(a4)
C:/VSD_Sqd_Project/sifive_hifive1_BitNet_MNIST_App/freedom-metal/src/drivers/riscv_plic0.c:35
}
2010d84c:	0001                	nop
2010d84e:	50b2                	lw	ra,44(sp)
2010d850:	5422                	lw	s0,40(sp)
2010d852:	6145                	add	sp,sp,48
2010d854:	8082                	ret

2010d856 <__metal_plic0_set_threshold>:
__metal_plic0_set_threshold():
C:/VSD_Sqd_Project/sifive_hifive1_BitNet_MNIST_App/freedom-metal/src/drivers/riscv_plic0.c:38

int __metal_plic0_set_threshold(struct metal_interrupt *controller,
                                int context_id, unsigned int threshold) {
2010d856:	7179                	add	sp,sp,-48
2010d858:	d606                	sw	ra,44(sp)
2010d85a:	d422                	sw	s0,40(sp)
2010d85c:	1800                	add	s0,sp,48
2010d85e:	fca42e23          	sw	a0,-36(s0)
2010d862:	fcb42c23          	sw	a1,-40(s0)
2010d866:	fcc42a23          	sw	a2,-44(s0)
C:/VSD_Sqd_Project/sifive_hifive1_BitNet_MNIST_App/freedom-metal/src/drivers/riscv_plic0.c:40
    unsigned long control_base =
        __metal_driver_sifive_plic0_control_base(controller);
2010d86a:	fdc42503          	lw	a0,-36(s0)
2010d86e:	3549                	jal	2010d6f0 <__metal_driver_sifive_plic0_control_base>
2010d870:	fea42623          	sw	a0,-20(s0)
C:/VSD_Sqd_Project/sifive_hifive1_BitNet_MNIST_App/freedom-metal/src/drivers/riscv_plic0.c:41
    __METAL_ACCESS_ONCE(
2010d874:	fd842783          	lw	a5,-40(s0)
2010d878:	00c79713          	sll	a4,a5,0xc
2010d87c:	fec42783          	lw	a5,-20(s0)
2010d880:	973e                	add	a4,a4,a5
2010d882:	002007b7          	lui	a5,0x200
2010d886:	97ba                	add	a5,a5,a4
2010d888:	873e                	mv	a4,a5
C:/VSD_Sqd_Project/sifive_hifive1_BitNet_MNIST_App/freedom-metal/src/drivers/riscv_plic0.c:44
        (__metal_io_u32 *)(control_base + METAL_RISCV_PLIC0_CONTEXT_BASE +
                           (context_id * METAL_RISCV_PLIC0_CONTEXT_PER_HART) +
                           METAL_RISCV_PLIC0_CONTEXT_THRESHOLD)) = threshold;
2010d88a:	fd442783          	lw	a5,-44(s0)
2010d88e:	c31c                	sw	a5,0(a4)
C:/VSD_Sqd_Project/sifive_hifive1_BitNet_MNIST_App/freedom-metal/src/drivers/riscv_plic0.c:45
    return 0;
2010d890:	4781                	li	a5,0
C:/VSD_Sqd_Project/sifive_hifive1_BitNet_MNIST_App/freedom-metal/src/drivers/riscv_plic0.c:46
}
2010d892:	853e                	mv	a0,a5
2010d894:	50b2                	lw	ra,44(sp)
2010d896:	5422                	lw	s0,40(sp)
2010d898:	6145                	add	sp,sp,48
2010d89a:	8082                	ret

2010d89c <__metal_plic0_get_threshold>:
__metal_plic0_get_threshold():
C:/VSD_Sqd_Project/sifive_hifive1_BitNet_MNIST_App/freedom-metal/src/drivers/riscv_plic0.c:49

unsigned int __metal_plic0_get_threshold(struct metal_interrupt *controller,
                                         int context_id) {
2010d89c:	7179                	add	sp,sp,-48
2010d89e:	d606                	sw	ra,44(sp)
2010d8a0:	d422                	sw	s0,40(sp)
2010d8a2:	1800                	add	s0,sp,48
2010d8a4:	fca42e23          	sw	a0,-36(s0)
2010d8a8:	fcb42c23          	sw	a1,-40(s0)
C:/VSD_Sqd_Project/sifive_hifive1_BitNet_MNIST_App/freedom-metal/src/drivers/riscv_plic0.c:51
    unsigned long control_base =
        __metal_driver_sifive_plic0_control_base(controller);
2010d8ac:	fdc42503          	lw	a0,-36(s0)
2010d8b0:	3581                	jal	2010d6f0 <__metal_driver_sifive_plic0_control_base>
2010d8b2:	fea42623          	sw	a0,-20(s0)
C:/VSD_Sqd_Project/sifive_hifive1_BitNet_MNIST_App/freedom-metal/src/drivers/riscv_plic0.c:52
    return __METAL_ACCESS_ONCE(
2010d8b6:	fd842783          	lw	a5,-40(s0)
2010d8ba:	00c79713          	sll	a4,a5,0xc
2010d8be:	fec42783          	lw	a5,-20(s0)
2010d8c2:	973e                	add	a4,a4,a5
2010d8c4:	002007b7          	lui	a5,0x200
2010d8c8:	97ba                	add	a5,a5,a4
2010d8ca:	439c                	lw	a5,0(a5)
C:/VSD_Sqd_Project/sifive_hifive1_BitNet_MNIST_App/freedom-metal/src/drivers/riscv_plic0.c:56
        (__metal_io_u32 *)(control_base + METAL_RISCV_PLIC0_CONTEXT_BASE +
                           (context_id * METAL_RISCV_PLIC0_CONTEXT_PER_HART) +
                           METAL_RISCV_PLIC0_CONTEXT_THRESHOLD));
}
2010d8cc:	853e                	mv	a0,a5
2010d8ce:	50b2                	lw	ra,44(sp)
2010d8d0:	5422                	lw	s0,40(sp)
2010d8d2:	6145                	add	sp,sp,48
2010d8d4:	8082                	ret

2010d8d6 <__metal_driver_riscv_plic0_set_priority>:
__metal_driver_riscv_plic0_set_priority():
C:/VSD_Sqd_Project/sifive_hifive1_BitNet_MNIST_App/freedom-metal/src/drivers/riscv_plic0.c:59

int __metal_driver_riscv_plic0_set_priority(struct metal_interrupt *controller,
                                            int id, unsigned int priority) {
2010d8d6:	7179                	add	sp,sp,-48
2010d8d8:	d606                	sw	ra,44(sp)
2010d8da:	d422                	sw	s0,40(sp)
2010d8dc:	1800                	add	s0,sp,48
2010d8de:	fca42e23          	sw	a0,-36(s0)
2010d8e2:	fcb42c23          	sw	a1,-40(s0)
2010d8e6:	fcc42a23          	sw	a2,-44(s0)
C:/VSD_Sqd_Project/sifive_hifive1_BitNet_MNIST_App/freedom-metal/src/drivers/riscv_plic0.c:60
    unsigned long control_base = __metal_driver_sifive_plic0_control_base(
2010d8ea:	fdc42503          	lw	a0,-36(s0)
2010d8ee:	3509                	jal	2010d6f0 <__metal_driver_sifive_plic0_control_base>
2010d8f0:	fea42623          	sw	a0,-20(s0)
C:/VSD_Sqd_Project/sifive_hifive1_BitNet_MNIST_App/freedom-metal/src/drivers/riscv_plic0.c:62
        (struct metal_interrupt *)controller);
    unsigned int max_priority = __metal_driver_sifive_plic0_max_priority(
2010d8f4:	fdc42503          	lw	a0,-36(s0)
2010d8f8:	35b1                	jal	2010d744 <__metal_driver_sifive_plic0_max_priority>
2010d8fa:	87aa                	mv	a5,a0
C:/VSD_Sqd_Project/sifive_hifive1_BitNet_MNIST_App/freedom-metal/src/drivers/riscv_plic0.c:62 (discriminator 1)
2010d8fc:	fef42423          	sw	a5,-24(s0)
C:/VSD_Sqd_Project/sifive_hifive1_BitNet_MNIST_App/freedom-metal/src/drivers/riscv_plic0.c:64
        (struct metal_interrupt *)controller);
    if ((max_priority) && (priority < max_priority)) {
2010d900:	fe842783          	lw	a5,-24(s0)
2010d904:	c785                	beqz	a5,2010d92c <__metal_driver_riscv_plic0_set_priority+0x56>
C:/VSD_Sqd_Project/sifive_hifive1_BitNet_MNIST_App/freedom-metal/src/drivers/riscv_plic0.c:64 (discriminator 1)
2010d906:	fd442703          	lw	a4,-44(s0)
2010d90a:	fe842783          	lw	a5,-24(s0)
2010d90e:	00f77f63          	bgeu	a4,a5,2010d92c <__metal_driver_riscv_plic0_set_priority+0x56>
C:/VSD_Sqd_Project/sifive_hifive1_BitNet_MNIST_App/freedom-metal/src/drivers/riscv_plic0.c:65
        __METAL_ACCESS_ONCE(
2010d912:	fd842783          	lw	a5,-40(s0)
2010d916:	00279713          	sll	a4,a5,0x2
2010d91a:	fec42783          	lw	a5,-20(s0)
2010d91e:	97ba                	add	a5,a5,a4
2010d920:	873e                	mv	a4,a5
C:/VSD_Sqd_Project/sifive_hifive1_BitNet_MNIST_App/freedom-metal/src/drivers/riscv_plic0.c:67
            (__metal_io_u32 *)(control_base + METAL_RISCV_PLIC0_PRIORITY_BASE +
                               (id << METAL_PLIC_SOURCE_PRIORITY_SHIFT))) =
2010d922:	fd442783          	lw	a5,-44(s0)
2010d926:	c31c                	sw	a5,0(a4)
C:/VSD_Sqd_Project/sifive_hifive1_BitNet_MNIST_App/freedom-metal/src/drivers/riscv_plic0.c:69
            priority;
        return 0;
2010d928:	4781                	li	a5,0
2010d92a:	a011                	j	2010d92e <__metal_driver_riscv_plic0_set_priority+0x58>
C:/VSD_Sqd_Project/sifive_hifive1_BitNet_MNIST_App/freedom-metal/src/drivers/riscv_plic0.c:71
    }
    return -1;
2010d92c:	57fd                	li	a5,-1
C:/VSD_Sqd_Project/sifive_hifive1_BitNet_MNIST_App/freedom-metal/src/drivers/riscv_plic0.c:72
}
2010d92e:	853e                	mv	a0,a5
2010d930:	50b2                	lw	ra,44(sp)
2010d932:	5422                	lw	s0,40(sp)
2010d934:	6145                	add	sp,sp,48
2010d936:	8082                	ret

2010d938 <__metal_driver_riscv_plic0_get_priority>:
__metal_driver_riscv_plic0_get_priority():
C:/VSD_Sqd_Project/sifive_hifive1_BitNet_MNIST_App/freedom-metal/src/drivers/riscv_plic0.c:76

unsigned int
__metal_driver_riscv_plic0_get_priority(struct metal_interrupt *controller,
                                        int id) {
2010d938:	7179                	add	sp,sp,-48
2010d93a:	d606                	sw	ra,44(sp)
2010d93c:	d422                	sw	s0,40(sp)
2010d93e:	1800                	add	s0,sp,48
2010d940:	fca42e23          	sw	a0,-36(s0)
2010d944:	fcb42c23          	sw	a1,-40(s0)
C:/VSD_Sqd_Project/sifive_hifive1_BitNet_MNIST_App/freedom-metal/src/drivers/riscv_plic0.c:78
    unsigned long control_base =
        __metal_driver_sifive_plic0_control_base(controller);
2010d948:	fdc42503          	lw	a0,-36(s0)
2010d94c:	3355                	jal	2010d6f0 <__metal_driver_sifive_plic0_control_base>
2010d94e:	fea42623          	sw	a0,-20(s0)
C:/VSD_Sqd_Project/sifive_hifive1_BitNet_MNIST_App/freedom-metal/src/drivers/riscv_plic0.c:80

    return __METAL_ACCESS_ONCE(
2010d952:	fd842783          	lw	a5,-40(s0)
2010d956:	00279713          	sll	a4,a5,0x2
2010d95a:	fec42783          	lw	a5,-20(s0)
2010d95e:	97ba                	add	a5,a5,a4
2010d960:	439c                	lw	a5,0(a5)
C:/VSD_Sqd_Project/sifive_hifive1_BitNet_MNIST_App/freedom-metal/src/drivers/riscv_plic0.c:83
        (__metal_io_u32 *)(control_base + METAL_RISCV_PLIC0_PRIORITY_BASE +
                           (id << METAL_PLIC_SOURCE_PRIORITY_SHIFT)));
}
2010d962:	853e                	mv	a0,a5
2010d964:	50b2                	lw	ra,44(sp)
2010d966:	5422                	lw	s0,40(sp)
2010d968:	6145                	add	sp,sp,48
2010d96a:	8082                	ret

2010d96c <__metal_plic0_enable>:
__metal_plic0_enable():
C:/VSD_Sqd_Project/sifive_hifive1_BitNet_MNIST_App/freedom-metal/src/drivers/riscv_plic0.c:86

int __metal_plic0_enable(struct __metal_driver_riscv_plic0 *plic,
                         int context_id, int id, int enable) {
2010d96c:	7179                	add	sp,sp,-48
2010d96e:	d606                	sw	ra,44(sp)
2010d970:	d422                	sw	s0,40(sp)
2010d972:	1800                	add	s0,sp,48
2010d974:	fca42e23          	sw	a0,-36(s0)
2010d978:	fcb42c23          	sw	a1,-40(s0)
2010d97c:	fcc42a23          	sw	a2,-44(s0)
2010d980:	fcd42823          	sw	a3,-48(s0)
C:/VSD_Sqd_Project/sifive_hifive1_BitNet_MNIST_App/freedom-metal/src/drivers/riscv_plic0.c:88
    unsigned int current;
    unsigned long control_base = __metal_driver_sifive_plic0_control_base(
2010d984:	fdc42503          	lw	a0,-36(s0)
2010d988:	33a5                	jal	2010d6f0 <__metal_driver_sifive_plic0_control_base>
2010d98a:	fea42623          	sw	a0,-20(s0)
C:/VSD_Sqd_Project/sifive_hifive1_BitNet_MNIST_App/freedom-metal/src/drivers/riscv_plic0.c:91
        (struct metal_interrupt *)plic);

    current = __METAL_ACCESS_ONCE(
2010d98e:	fd842783          	lw	a5,-40(s0)
2010d992:	00779713          	sll	a4,a5,0x7
2010d996:	fec42783          	lw	a5,-20(s0)
2010d99a:	97ba                	add	a5,a5,a4
2010d99c:	fd442703          	lw	a4,-44(s0)
2010d9a0:	8715                	sra	a4,a4,0x5
2010d9a2:	070a                	sll	a4,a4,0x2
2010d9a4:	973e                	add	a4,a4,a5
2010d9a6:	6789                	lui	a5,0x2
2010d9a8:	97ba                	add	a5,a5,a4
2010d9aa:	439c                	lw	a5,0(a5)
2010d9ac:	fef42423          	sw	a5,-24(s0)
C:/VSD_Sqd_Project/sifive_hifive1_BitNet_MNIST_App/freedom-metal/src/drivers/riscv_plic0.c:100
    __METAL_ACCESS_ONCE(
        (__metal_io_u32 *)(control_base + METAL_RISCV_PLIC0_ENABLE_BASE +
                           (context_id * METAL_RISCV_PLIC0_ENABLE_PER_HART) +
                           ((id >> METAL_PLIC_SOURCE_SHIFT) * 4))) =
        enable ? (current | (1 << (id & METAL_PLIC_SOURCE_MASK)))
               : (current & ~(1 << (id & METAL_PLIC_SOURCE_MASK)));
2010d9b0:	fd042783          	lw	a5,-48(s0)
2010d9b4:	cf81                	beqz	a5,2010d9cc <__metal_plic0_enable+0x60>
C:/VSD_Sqd_Project/sifive_hifive1_BitNet_MNIST_App/freedom-metal/src/drivers/riscv_plic0.c:99
        enable ? (current | (1 << (id & METAL_PLIC_SOURCE_MASK)))
2010d9b6:	fd442783          	lw	a5,-44(s0)
2010d9ba:	8bfd                	and	a5,a5,31
2010d9bc:	4705                	li	a4,1
2010d9be:	00f717b3          	sll	a5,a4,a5
2010d9c2:	873e                	mv	a4,a5
C:/VSD_Sqd_Project/sifive_hifive1_BitNet_MNIST_App/freedom-metal/src/drivers/riscv_plic0.c:100 (discriminator 1)
               : (current & ~(1 << (id & METAL_PLIC_SOURCE_MASK)));
2010d9c4:	fe842783          	lw	a5,-24(s0)
2010d9c8:	8fd9                	or	a5,a5,a4
2010d9ca:	a829                	j	2010d9e4 <__metal_plic0_enable+0x78>
C:/VSD_Sqd_Project/sifive_hifive1_BitNet_MNIST_App/freedom-metal/src/drivers/riscv_plic0.c:100 (discriminator 2)
2010d9cc:	fd442783          	lw	a5,-44(s0)
2010d9d0:	8bfd                	and	a5,a5,31
2010d9d2:	4705                	li	a4,1
2010d9d4:	00f717b3          	sll	a5,a4,a5
2010d9d8:	fff7c793          	not	a5,a5
2010d9dc:	873e                	mv	a4,a5
2010d9de:	fe842783          	lw	a5,-24(s0)
2010d9e2:	8ff9                	and	a5,a5,a4
C:/VSD_Sqd_Project/sifive_hifive1_BitNet_MNIST_App/freedom-metal/src/drivers/riscv_plic0.c:95
    __METAL_ACCESS_ONCE(
2010d9e4:	fd842703          	lw	a4,-40(s0)
2010d9e8:	00771693          	sll	a3,a4,0x7
2010d9ec:	fec42703          	lw	a4,-20(s0)
2010d9f0:	9736                	add	a4,a4,a3
2010d9f2:	fd442683          	lw	a3,-44(s0)
2010d9f6:	8695                	sra	a3,a3,0x5
2010d9f8:	068a                	sll	a3,a3,0x2
2010d9fa:	96ba                	add	a3,a3,a4
2010d9fc:	6709                	lui	a4,0x2
2010d9fe:	9736                	add	a4,a4,a3
C:/VSD_Sqd_Project/sifive_hifive1_BitNet_MNIST_App/freedom-metal/src/drivers/riscv_plic0.c:98
                           ((id >> METAL_PLIC_SOURCE_SHIFT) * 4))) =
2010da00:	c31c                	sw	a5,0(a4)
C:/VSD_Sqd_Project/sifive_hifive1_BitNet_MNIST_App/freedom-metal/src/drivers/riscv_plic0.c:102

    return 0;
2010da02:	4781                	li	a5,0
C:/VSD_Sqd_Project/sifive_hifive1_BitNet_MNIST_App/freedom-metal/src/drivers/riscv_plic0.c:103
}
2010da04:	853e                	mv	a0,a5
2010da06:	50b2                	lw	ra,44(sp)
2010da08:	5422                	lw	s0,40(sp)
2010da0a:	6145                	add	sp,sp,48
2010da0c:	8082                	ret

2010da0e <__metal_plic0_default_handler>:
__metal_plic0_default_handler():
C:/VSD_Sqd_Project/sifive_hifive1_BitNet_MNIST_App/freedom-metal/src/drivers/riscv_plic0.c:105

void __metal_plic0_default_handler(int id, void *priv) { metal_shutdown(300); }
2010da0e:	1101                	add	sp,sp,-32
2010da10:	ce06                	sw	ra,28(sp)
2010da12:	cc22                	sw	s0,24(sp)
2010da14:	1000                	add	s0,sp,32
2010da16:	fea42623          	sw	a0,-20(s0)
2010da1a:	feb42423          	sw	a1,-24(s0)
2010da1e:	12c00513          	li	a0,300
2010da22:	00a020ef          	jal	2010fa2c <metal_shutdown>

2010da26 <__metal_plic0_handler>:
__metal_plic0_handler():
C:/VSD_Sqd_Project/sifive_hifive1_BitNet_MNIST_App/freedom-metal/src/drivers/riscv_plic0.c:107

void __metal_plic0_handler(int id, void *priv) {
2010da26:	7179                	add	sp,sp,-48
2010da28:	d606                	sw	ra,44(sp)
2010da2a:	d422                	sw	s0,40(sp)
2010da2c:	1800                	add	s0,sp,48
2010da2e:	fca42e23          	sw	a0,-36(s0)
2010da32:	fcb42c23          	sw	a1,-40(s0)
C:/VSD_Sqd_Project/sifive_hifive1_BitNet_MNIST_App/freedom-metal/src/drivers/riscv_plic0.c:108
    struct __metal_driver_riscv_plic0 *plic = priv;
2010da36:	fd842783          	lw	a5,-40(s0)
2010da3a:	fef42623          	sw	a5,-20(s0)
C:/VSD_Sqd_Project/sifive_hifive1_BitNet_MNIST_App/freedom-metal/src/drivers/riscv_plic0.c:110
    int contextid =
        __metal_driver_sifive_plic0_context_ids(__metal_myhart_id());
2010da3e:	b42fe0ef          	jal	2010bd80 <__metal_myhart_id>
2010da42:	87aa                	mv	a5,a0
C:/VSD_Sqd_Project/sifive_hifive1_BitNet_MNIST_App/freedom-metal/src/drivers/riscv_plic0.c:110 (discriminator 1)
2010da44:	853e                	mv	a0,a5
2010da46:	3b85                	jal	2010d7b6 <__metal_driver_sifive_plic0_context_ids>
2010da48:	fea42423          	sw	a0,-24(s0)
C:/VSD_Sqd_Project/sifive_hifive1_BitNet_MNIST_App/freedom-metal/src/drivers/riscv_plic0.c:111
    unsigned int idx = __metal_plic0_claim_interrupt(plic, contextid);
2010da4c:	fe842583          	lw	a1,-24(s0)
2010da50:	fec42503          	lw	a0,-20(s0)
2010da54:	3341                	jal	2010d7d4 <__metal_plic0_claim_interrupt>
2010da56:	fea42223          	sw	a0,-28(s0)
C:/VSD_Sqd_Project/sifive_hifive1_BitNet_MNIST_App/freedom-metal/src/drivers/riscv_plic0.c:112
    unsigned int num_interrupts = __metal_driver_sifive_plic0_num_interrupts(
2010da5a:	fec42503          	lw	a0,-20(s0)
2010da5e:	cbdff0ef          	jal	2010d71a <__metal_driver_sifive_plic0_num_interrupts>
2010da62:	87aa                	mv	a5,a0
C:/VSD_Sqd_Project/sifive_hifive1_BitNet_MNIST_App/freedom-metal/src/drivers/riscv_plic0.c:112 (discriminator 1)
2010da64:	fef42023          	sw	a5,-32(s0)
C:/VSD_Sqd_Project/sifive_hifive1_BitNet_MNIST_App/freedom-metal/src/drivers/riscv_plic0.c:115
        (struct metal_interrupt *)plic);

    if ((idx < num_interrupts) && (plic->metal_exint_table[idx])) {
2010da68:	fe442703          	lw	a4,-28(s0)
2010da6c:	fe042783          	lw	a5,-32(s0)
2010da70:	04f77063          	bgeu	a4,a5,2010dab0 <__metal_plic0_handler+0x8a>
C:/VSD_Sqd_Project/sifive_hifive1_BitNet_MNIST_App/freedom-metal/src/drivers/riscv_plic0.c:115 (discriminator 1)
2010da74:	fec42703          	lw	a4,-20(s0)
2010da78:	fe442783          	lw	a5,-28(s0)
2010da7c:	078a                	sll	a5,a5,0x2
2010da7e:	97ba                	add	a5,a5,a4
2010da80:	479c                	lw	a5,8(a5)
2010da82:	c79d                	beqz	a5,2010dab0 <__metal_plic0_handler+0x8a>
C:/VSD_Sqd_Project/sifive_hifive1_BitNet_MNIST_App/freedom-metal/src/drivers/riscv_plic0.c:116
        plic->metal_exint_table[idx](idx,
2010da84:	fec42703          	lw	a4,-20(s0)
2010da88:	fe442783          	lw	a5,-28(s0)
2010da8c:	078a                	sll	a5,a5,0x2
2010da8e:	97ba                	add	a5,a5,a4
2010da90:	4794                	lw	a3,8(a5)
2010da92:	fe442503          	lw	a0,-28(s0)
2010da96:	fec42603          	lw	a2,-20(s0)
2010da9a:	fe442703          	lw	a4,-28(s0)
2010da9e:	87ba                	mv	a5,a4
2010daa0:	0786                	sll	a5,a5,0x1
2010daa2:	97ba                	add	a5,a5,a4
2010daa4:	078e                	sll	a5,a5,0x3
2010daa6:	97b2                	add	a5,a5,a2
2010daa8:	0f07a783          	lw	a5,240(a5) # 20f0 <__heap_size+0x18f0>
2010daac:	85be                	mv	a1,a5
2010daae:	9682                	jalr	a3
C:/VSD_Sqd_Project/sifive_hifive1_BitNet_MNIST_App/freedom-metal/src/drivers/riscv_plic0.c:120
                                     plic->metal_exdata_table[idx].exint_data);
    }

    __metal_plic0_complete_interrupt(plic, contextid, idx);
2010dab0:	fe442603          	lw	a2,-28(s0)
2010dab4:	fe842583          	lw	a1,-24(s0)
2010dab8:	fec42503          	lw	a0,-20(s0)
2010dabc:	3b91                	jal	2010d810 <__metal_plic0_complete_interrupt>
C:/VSD_Sqd_Project/sifive_hifive1_BitNet_MNIST_App/freedom-metal/src/drivers/riscv_plic0.c:121
}
2010dabe:	0001                	nop
2010dac0:	50b2                	lw	ra,44(sp)
2010dac2:	5422                	lw	s0,40(sp)
2010dac4:	6145                	add	sp,sp,48
2010dac6:	8082                	ret

2010dac8 <__metal_driver_riscv_plic0_init>:
__metal_driver_riscv_plic0_init():
C:/VSD_Sqd_Project/sifive_hifive1_BitNet_MNIST_App/freedom-metal/src/drivers/riscv_plic0.c:123

void __metal_driver_riscv_plic0_init(struct metal_interrupt *controller) {
2010dac8:	7139                	add	sp,sp,-64
2010daca:	de06                	sw	ra,60(sp)
2010dacc:	dc22                	sw	s0,56(sp)
2010dace:	0080                	add	s0,sp,64
2010dad0:	fca42623          	sw	a0,-52(s0)
C:/VSD_Sqd_Project/sifive_hifive1_BitNet_MNIST_App/freedom-metal/src/drivers/riscv_plic0.c:124
    struct __metal_driver_riscv_plic0 *plic = (void *)(controller);
2010dad4:	fcc42783          	lw	a5,-52(s0)
2010dad8:	fef42223          	sw	a5,-28(s0)
C:/VSD_Sqd_Project/sifive_hifive1_BitNet_MNIST_App/freedom-metal/src/drivers/riscv_plic0.c:126

    if (!plic->init_done) {
2010dadc:	fe442783          	lw	a5,-28(s0)
2010dae0:	43dc                	lw	a5,4(a5)
2010dae2:	12079a63          	bnez	a5,2010dc16 <__metal_driver_riscv_plic0_init+0x14e>
C:/VSD_Sqd_Project/sifive_hifive1_BitNet_MNIST_App/freedom-metal/src/drivers/riscv_plic0.c:130
        int num_interrupts, line;
        struct metal_interrupt *intc;

        for (int parent = 0; parent < __METAL_PLIC_NUM_PARENTS; parent++) {
2010dae6:	fe042623          	sw	zero,-20(s0)
2010daea:	aa31                	j	2010dc06 <__metal_driver_riscv_plic0_init+0x13e>
C:/VSD_Sqd_Project/sifive_hifive1_BitNet_MNIST_App/freedom-metal/src/drivers/riscv_plic0.c:132
            num_interrupts =
                __metal_driver_sifive_plic0_num_interrupts(controller);
2010daec:	fcc42503          	lw	a0,-52(s0)
2010daf0:	c2bff0ef          	jal	2010d71a <__metal_driver_sifive_plic0_num_interrupts>
2010daf4:	fea42023          	sw	a0,-32(s0)
C:/VSD_Sqd_Project/sifive_hifive1_BitNet_MNIST_App/freedom-metal/src/drivers/riscv_plic0.c:133
            intc = __metal_driver_sifive_plic0_interrupt_parents(controller,
2010daf8:	fec42583          	lw	a1,-20(s0)
2010dafc:	fcc42503          	lw	a0,-52(s0)
2010db00:	c6dff0ef          	jal	2010d76c <__metal_driver_sifive_plic0_interrupt_parents>
2010db04:	fca42e23          	sw	a0,-36(s0)
C:/VSD_Sqd_Project/sifive_hifive1_BitNet_MNIST_App/freedom-metal/src/drivers/riscv_plic0.c:136
                                                                 parent);
            line =
                __metal_driver_sifive_plic0_interrupt_lines(controller, parent);
2010db08:	fec42583          	lw	a1,-20(s0)
2010db0c:	fcc42503          	lw	a0,-52(s0)
2010db10:	c85ff0ef          	jal	2010d794 <__metal_driver_sifive_plic0_interrupt_lines>
2010db14:	fca42c23          	sw	a0,-40(s0)
C:/VSD_Sqd_Project/sifive_hifive1_BitNet_MNIST_App/freedom-metal/src/drivers/riscv_plic0.c:139

            /* Initialize ist parent controller, aka cpu_intc. */
            intc->vtable->interrupt_init(intc);
2010db18:	fdc42783          	lw	a5,-36(s0)
2010db1c:	439c                	lw	a5,0(a5)
2010db1e:	439c                	lw	a5,0(a5)
2010db20:	fdc42503          	lw	a0,-36(s0)
2010db24:	9782                	jalr	a5
C:/VSD_Sqd_Project/sifive_hifive1_BitNet_MNIST_App/freedom-metal/src/drivers/riscv_plic0.c:141

            for (int i = 0; i < PLIC0_MAX_INTERRUPTS; i++) {
2010db26:	fe042423          	sw	zero,-24(s0)
2010db2a:	a885                	j	2010db9a <__metal_driver_riscv_plic0_init+0xd2>
C:/VSD_Sqd_Project/sifive_hifive1_BitNet_MNIST_App/freedom-metal/src/drivers/riscv_plic0.c:142
                __metal_plic0_enable(plic, parent, i, METAL_DISABLE);
2010db2c:	4681                	li	a3,0
2010db2e:	fe842603          	lw	a2,-24(s0)
2010db32:	fec42583          	lw	a1,-20(s0)
2010db36:	fe442503          	lw	a0,-28(s0)
2010db3a:	3d0d                	jal	2010d96c <__metal_plic0_enable>
C:/VSD_Sqd_Project/sifive_hifive1_BitNet_MNIST_App/freedom-metal/src/drivers/riscv_plic0.c:143
                if (i < num_interrupts) {
2010db3c:	fe842703          	lw	a4,-24(s0)
2010db40:	fe042783          	lw	a5,-32(s0)
2010db44:	04f75663          	bge	a4,a5,2010db90 <__metal_driver_riscv_plic0_init+0xc8>
C:/VSD_Sqd_Project/sifive_hifive1_BitNet_MNIST_App/freedom-metal/src/drivers/riscv_plic0.c:144
                    __metal_driver_riscv_plic0_set_priority(controller, i, 0);
2010db48:	4601                	li	a2,0
2010db4a:	fe842583          	lw	a1,-24(s0)
2010db4e:	fcc42503          	lw	a0,-52(s0)
2010db52:	3351                	jal	2010d8d6 <__metal_driver_riscv_plic0_set_priority>
C:/VSD_Sqd_Project/sifive_hifive1_BitNet_MNIST_App/freedom-metal/src/drivers/riscv_plic0.c:145
                    plic->metal_exint_table[i] = NULL;
2010db54:	fe442703          	lw	a4,-28(s0)
2010db58:	fe842783          	lw	a5,-24(s0)
2010db5c:	078a                	sll	a5,a5,0x2
2010db5e:	97ba                	add	a5,a5,a4
2010db60:	0007a423          	sw	zero,8(a5)
C:/VSD_Sqd_Project/sifive_hifive1_BitNet_MNIST_App/freedom-metal/src/drivers/riscv_plic0.c:146
                    plic->metal_exdata_table[i].sub_int = NULL;
2010db64:	fe442683          	lw	a3,-28(s0)
2010db68:	fe842703          	lw	a4,-24(s0)
2010db6c:	87ba                	mv	a5,a4
2010db6e:	0786                	sll	a5,a5,0x1
2010db70:	97ba                	add	a5,a5,a4
2010db72:	078e                	sll	a5,a5,0x3
2010db74:	97b6                	add	a5,a5,a3
2010db76:	0e07a623          	sw	zero,236(a5)
C:/VSD_Sqd_Project/sifive_hifive1_BitNet_MNIST_App/freedom-metal/src/drivers/riscv_plic0.c:147
                    plic->metal_exdata_table[i].exint_data = NULL;
2010db7a:	fe442683          	lw	a3,-28(s0)
2010db7e:	fe842703          	lw	a4,-24(s0)
2010db82:	87ba                	mv	a5,a4
2010db84:	0786                	sll	a5,a5,0x1
2010db86:	97ba                	add	a5,a5,a4
2010db88:	078e                	sll	a5,a5,0x3
2010db8a:	97b6                	add	a5,a5,a3
2010db8c:	0e07a823          	sw	zero,240(a5)
C:/VSD_Sqd_Project/sifive_hifive1_BitNet_MNIST_App/freedom-metal/src/drivers/riscv_plic0.c:141 (discriminator 2)
            for (int i = 0; i < PLIC0_MAX_INTERRUPTS; i++) {
2010db90:	fe842783          	lw	a5,-24(s0)
2010db94:	0785                	add	a5,a5,1
2010db96:	fef42423          	sw	a5,-24(s0)
C:/VSD_Sqd_Project/sifive_hifive1_BitNet_MNIST_App/freedom-metal/src/drivers/riscv_plic0.c:141 (discriminator 1)
2010db9a:	fe842703          	lw	a4,-24(s0)
2010db9e:	3ff00793          	li	a5,1023
2010dba2:	f8e7d5e3          	bge	a5,a4,2010db2c <__metal_driver_riscv_plic0_init+0x64>
C:/VSD_Sqd_Project/sifive_hifive1_BitNet_MNIST_App/freedom-metal/src/drivers/riscv_plic0.c:151
                }
            }

            __metal_plic0_set_threshold(controller, parent, 0);
2010dba6:	4601                	li	a2,0
2010dba8:	fec42583          	lw	a1,-20(s0)
2010dbac:	fcc42503          	lw	a0,-52(s0)
2010dbb0:	ca7ff0ef          	jal	2010d856 <__metal_plic0_set_threshold>
C:/VSD_Sqd_Project/sifive_hifive1_BitNet_MNIST_App/freedom-metal/src/drivers/riscv_plic0.c:154

            /* Register plic (ext) interrupt with with parent controller */
            intc->vtable->interrupt_register(intc, line, NULL, plic);
2010dbb4:	fdc42783          	lw	a5,-36(s0)
2010dbb8:	439c                	lw	a5,0(a5)
2010dbba:	4fdc                	lw	a5,28(a5)
2010dbbc:	fe442683          	lw	a3,-28(s0)
2010dbc0:	4601                	li	a2,0
2010dbc2:	fd842583          	lw	a1,-40(s0)
2010dbc6:	fdc42503          	lw	a0,-36(s0)
2010dbca:	9782                	jalr	a5
C:/VSD_Sqd_Project/sifive_hifive1_BitNet_MNIST_App/freedom-metal/src/drivers/riscv_plic0.c:156
            /* Register plic handler for dispatching its device interrupts */
            intc->vtable->interrupt_register(intc, line, __metal_plic0_handler,
2010dbcc:	fdc42783          	lw	a5,-36(s0)
2010dbd0:	439c                	lw	a5,0(a5)
2010dbd2:	4fdc                	lw	a5,28(a5)
2010dbd4:	fe442683          	lw	a3,-28(s0)
2010dbd8:	2010e737          	lui	a4,0x2010e
2010dbdc:	a2670613          	add	a2,a4,-1498 # 2010da26 <__metal_plic0_handler>
2010dbe0:	fd842583          	lw	a1,-40(s0)
2010dbe4:	fdc42503          	lw	a0,-36(s0)
2010dbe8:	9782                	jalr	a5
C:/VSD_Sqd_Project/sifive_hifive1_BitNet_MNIST_App/freedom-metal/src/drivers/riscv_plic0.c:159
                                             plic);
            /* Enable plic (ext) interrupt with with parent controller */
            intc->vtable->interrupt_enable(intc, line);
2010dbea:	fdc42783          	lw	a5,-36(s0)
2010dbee:	439c                	lw	a5,0(a5)
2010dbf0:	53dc                	lw	a5,36(a5)
2010dbf2:	fd842583          	lw	a1,-40(s0)
2010dbf6:	fdc42503          	lw	a0,-36(s0)
2010dbfa:	9782                	jalr	a5
C:/VSD_Sqd_Project/sifive_hifive1_BitNet_MNIST_App/freedom-metal/src/drivers/riscv_plic0.c:130 (discriminator 2)
        for (int parent = 0; parent < __METAL_PLIC_NUM_PARENTS; parent++) {
2010dbfc:	fec42783          	lw	a5,-20(s0)
2010dc00:	0785                	add	a5,a5,1
2010dc02:	fef42623          	sw	a5,-20(s0)
C:/VSD_Sqd_Project/sifive_hifive1_BitNet_MNIST_App/freedom-metal/src/drivers/riscv_plic0.c:130 (discriminator 1)
2010dc06:	fec42783          	lw	a5,-20(s0)
2010dc0a:	eef051e3          	blez	a5,2010daec <__metal_driver_riscv_plic0_init+0x24>
C:/VSD_Sqd_Project/sifive_hifive1_BitNet_MNIST_App/freedom-metal/src/drivers/riscv_plic0.c:161
        }
        plic->init_done = 1;
2010dc0e:	fe442783          	lw	a5,-28(s0)
2010dc12:	4705                	li	a4,1
2010dc14:	c3d8                	sw	a4,4(a5)
C:/VSD_Sqd_Project/sifive_hifive1_BitNet_MNIST_App/freedom-metal/src/drivers/riscv_plic0.c:163
    }
}
2010dc16:	0001                	nop
2010dc18:	50f2                	lw	ra,60(sp)
2010dc1a:	5462                	lw	s0,56(sp)
2010dc1c:	6121                	add	sp,sp,64
2010dc1e:	8082                	ret

2010dc20 <__metal_driver_riscv_plic0_register>:
__metal_driver_riscv_plic0_register():
C:/VSD_Sqd_Project/sifive_hifive1_BitNet_MNIST_App/freedom-metal/src/drivers/riscv_plic0.c:167

int __metal_driver_riscv_plic0_register(struct metal_interrupt *controller,
                                        int id, metal_interrupt_handler_t isr,
                                        void *priv) {
2010dc20:	7179                	add	sp,sp,-48
2010dc22:	d606                	sw	ra,44(sp)
2010dc24:	d422                	sw	s0,40(sp)
2010dc26:	1800                	add	s0,sp,48
2010dc28:	fca42e23          	sw	a0,-36(s0)
2010dc2c:	fcb42c23          	sw	a1,-40(s0)
2010dc30:	fcc42a23          	sw	a2,-44(s0)
2010dc34:	fcd42823          	sw	a3,-48(s0)
C:/VSD_Sqd_Project/sifive_hifive1_BitNet_MNIST_App/freedom-metal/src/drivers/riscv_plic0.c:168
    struct __metal_driver_riscv_plic0 *plic = (void *)(controller);
2010dc38:	fdc42783          	lw	a5,-36(s0)
2010dc3c:	fef42623          	sw	a5,-20(s0)
C:/VSD_Sqd_Project/sifive_hifive1_BitNet_MNIST_App/freedom-metal/src/drivers/riscv_plic0.c:170

    if (id >= __metal_driver_sifive_plic0_num_interrupts(controller)) {
2010dc40:	fdc42503          	lw	a0,-36(s0)
2010dc44:	ad7ff0ef          	jal	2010d71a <__metal_driver_sifive_plic0_num_interrupts>
2010dc48:	872a                	mv	a4,a0
C:/VSD_Sqd_Project/sifive_hifive1_BitNet_MNIST_App/freedom-metal/src/drivers/riscv_plic0.c:170 (discriminator 1)
2010dc4a:	fd842783          	lw	a5,-40(s0)
2010dc4e:	00e7c463          	blt	a5,a4,2010dc56 <__metal_driver_riscv_plic0_register+0x36>
C:/VSD_Sqd_Project/sifive_hifive1_BitNet_MNIST_App/freedom-metal/src/drivers/riscv_plic0.c:171
        return -1;
2010dc52:	57fd                	li	a5,-1
2010dc54:	a051                	j	2010dcd8 <__metal_driver_riscv_plic0_register+0xb8>
C:/VSD_Sqd_Project/sifive_hifive1_BitNet_MNIST_App/freedom-metal/src/drivers/riscv_plic0.c:174
    }

    if (isr) {
2010dc56:	fd442783          	lw	a5,-44(s0)
2010dc5a:	cf9d                	beqz	a5,2010dc98 <__metal_driver_riscv_plic0_register+0x78>
C:/VSD_Sqd_Project/sifive_hifive1_BitNet_MNIST_App/freedom-metal/src/drivers/riscv_plic0.c:175
        __metal_driver_riscv_plic0_set_priority(controller, id, 2);
2010dc5c:	4609                	li	a2,2
2010dc5e:	fd842583          	lw	a1,-40(s0)
2010dc62:	fdc42503          	lw	a0,-36(s0)
2010dc66:	c71ff0ef          	jal	2010d8d6 <__metal_driver_riscv_plic0_set_priority>
C:/VSD_Sqd_Project/sifive_hifive1_BitNet_MNIST_App/freedom-metal/src/drivers/riscv_plic0.c:176
        plic->metal_exint_table[id] = isr;
2010dc6a:	fec42703          	lw	a4,-20(s0)
2010dc6e:	fd842783          	lw	a5,-40(s0)
2010dc72:	078a                	sll	a5,a5,0x2
2010dc74:	97ba                	add	a5,a5,a4
2010dc76:	fd442703          	lw	a4,-44(s0)
2010dc7a:	c798                	sw	a4,8(a5)
C:/VSD_Sqd_Project/sifive_hifive1_BitNet_MNIST_App/freedom-metal/src/drivers/riscv_plic0.c:177
        plic->metal_exdata_table[id].exint_data = priv;
2010dc7c:	fec42683          	lw	a3,-20(s0)
2010dc80:	fd842703          	lw	a4,-40(s0)
2010dc84:	87ba                	mv	a5,a4
2010dc86:	0786                	sll	a5,a5,0x1
2010dc88:	97ba                	add	a5,a5,a4
2010dc8a:	078e                	sll	a5,a5,0x3
2010dc8c:	97b6                	add	a5,a5,a3
2010dc8e:	fd042703          	lw	a4,-48(s0)
2010dc92:	0ee7a823          	sw	a4,240(a5)
2010dc96:	a081                	j	2010dcd6 <__metal_driver_riscv_plic0_register+0xb6>
C:/VSD_Sqd_Project/sifive_hifive1_BitNet_MNIST_App/freedom-metal/src/drivers/riscv_plic0.c:179
    } else {
        __metal_driver_riscv_plic0_set_priority(controller, id, 1);
2010dc98:	4605                	li	a2,1
2010dc9a:	fd842583          	lw	a1,-40(s0)
2010dc9e:	fdc42503          	lw	a0,-36(s0)
2010dca2:	c35ff0ef          	jal	2010d8d6 <__metal_driver_riscv_plic0_set_priority>
C:/VSD_Sqd_Project/sifive_hifive1_BitNet_MNIST_App/freedom-metal/src/drivers/riscv_plic0.c:180
        plic->metal_exint_table[id] = __metal_plic0_default_handler;
2010dca6:	fec42703          	lw	a4,-20(s0)
2010dcaa:	fd842783          	lw	a5,-40(s0)
2010dcae:	078a                	sll	a5,a5,0x2
2010dcb0:	97ba                	add	a5,a5,a4
2010dcb2:	2010e737          	lui	a4,0x2010e
2010dcb6:	a0e70713          	add	a4,a4,-1522 # 2010da0e <__metal_plic0_default_handler>
2010dcba:	c798                	sw	a4,8(a5)
C:/VSD_Sqd_Project/sifive_hifive1_BitNet_MNIST_App/freedom-metal/src/drivers/riscv_plic0.c:181
        plic->metal_exdata_table[id].sub_int = priv;
2010dcbc:	fec42683          	lw	a3,-20(s0)
2010dcc0:	fd842703          	lw	a4,-40(s0)
2010dcc4:	87ba                	mv	a5,a4
2010dcc6:	0786                	sll	a5,a5,0x1
2010dcc8:	97ba                	add	a5,a5,a4
2010dcca:	078e                	sll	a5,a5,0x3
2010dccc:	97b6                	add	a5,a5,a3
2010dcce:	fd042703          	lw	a4,-48(s0)
2010dcd2:	0ee7a623          	sw	a4,236(a5)
C:/VSD_Sqd_Project/sifive_hifive1_BitNet_MNIST_App/freedom-metal/src/drivers/riscv_plic0.c:184
    }

    return 0;
2010dcd6:	4781                	li	a5,0
C:/VSD_Sqd_Project/sifive_hifive1_BitNet_MNIST_App/freedom-metal/src/drivers/riscv_plic0.c:185
}
2010dcd8:	853e                	mv	a0,a5
2010dcda:	50b2                	lw	ra,44(sp)
2010dcdc:	5422                	lw	s0,40(sp)
2010dcde:	6145                	add	sp,sp,48
2010dce0:	8082                	ret

2010dce2 <__metal_driver_riscv_plic0_enable>:
__metal_driver_riscv_plic0_enable():
C:/VSD_Sqd_Project/sifive_hifive1_BitNet_MNIST_App/freedom-metal/src/drivers/riscv_plic0.c:188

int __metal_driver_riscv_plic0_enable(struct metal_interrupt *controller,
                                      int id) {
2010dce2:	7179                	add	sp,sp,-48
2010dce4:	d606                	sw	ra,44(sp)
2010dce6:	d422                	sw	s0,40(sp)
2010dce8:	1800                	add	s0,sp,48
2010dcea:	fca42e23          	sw	a0,-36(s0)
2010dcee:	fcb42c23          	sw	a1,-40(s0)
C:/VSD_Sqd_Project/sifive_hifive1_BitNet_MNIST_App/freedom-metal/src/drivers/riscv_plic0.c:189
    struct __metal_driver_riscv_plic0 *plic = (void *)(controller);
2010dcf2:	fdc42783          	lw	a5,-36(s0)
2010dcf6:	fef42623          	sw	a5,-20(s0)
C:/VSD_Sqd_Project/sifive_hifive1_BitNet_MNIST_App/freedom-metal/src/drivers/riscv_plic0.c:191

    if (id >= __metal_driver_sifive_plic0_num_interrupts(controller)) {
2010dcfa:	fdc42503          	lw	a0,-36(s0)
2010dcfe:	a1dff0ef          	jal	2010d71a <__metal_driver_sifive_plic0_num_interrupts>
2010dd02:	872a                	mv	a4,a0
C:/VSD_Sqd_Project/sifive_hifive1_BitNet_MNIST_App/freedom-metal/src/drivers/riscv_plic0.c:191 (discriminator 1)
2010dd04:	fd842783          	lw	a5,-40(s0)
2010dd08:	00e7c463          	blt	a5,a4,2010dd10 <__metal_driver_riscv_plic0_enable+0x2e>
C:/VSD_Sqd_Project/sifive_hifive1_BitNet_MNIST_App/freedom-metal/src/drivers/riscv_plic0.c:192
        return -1;
2010dd0c:	57fd                	li	a5,-1
2010dd0e:	a829                	j	2010dd28 <__metal_driver_riscv_plic0_enable+0x46>
C:/VSD_Sqd_Project/sifive_hifive1_BitNet_MNIST_App/freedom-metal/src/drivers/riscv_plic0.c:195
    }

    __metal_plic0_enable(plic, __metal_myhart_id(), id, METAL_ENABLE);
2010dd10:	870fe0ef          	jal	2010bd80 <__metal_myhart_id>
2010dd14:	87aa                	mv	a5,a0
C:/VSD_Sqd_Project/sifive_hifive1_BitNet_MNIST_App/freedom-metal/src/drivers/riscv_plic0.c:195 (discriminator 1)
2010dd16:	4685                	li	a3,1
2010dd18:	fd842603          	lw	a2,-40(s0)
2010dd1c:	85be                	mv	a1,a5
2010dd1e:	fec42503          	lw	a0,-20(s0)
2010dd22:	c4bff0ef          	jal	2010d96c <__metal_plic0_enable>
C:/VSD_Sqd_Project/sifive_hifive1_BitNet_MNIST_App/freedom-metal/src/drivers/riscv_plic0.c:196
    return 0;
2010dd26:	4781                	li	a5,0
C:/VSD_Sqd_Project/sifive_hifive1_BitNet_MNIST_App/freedom-metal/src/drivers/riscv_plic0.c:197
}
2010dd28:	853e                	mv	a0,a5
2010dd2a:	50b2                	lw	ra,44(sp)
2010dd2c:	5422                	lw	s0,40(sp)
2010dd2e:	6145                	add	sp,sp,48
2010dd30:	8082                	ret

2010dd32 <__metal_driver_riscv_plic0_disable>:
__metal_driver_riscv_plic0_disable():
C:/VSD_Sqd_Project/sifive_hifive1_BitNet_MNIST_App/freedom-metal/src/drivers/riscv_plic0.c:200

int __metal_driver_riscv_plic0_disable(struct metal_interrupt *controller,
                                       int id) {
2010dd32:	7179                	add	sp,sp,-48
2010dd34:	d606                	sw	ra,44(sp)
2010dd36:	d422                	sw	s0,40(sp)
2010dd38:	1800                	add	s0,sp,48
2010dd3a:	fca42e23          	sw	a0,-36(s0)
2010dd3e:	fcb42c23          	sw	a1,-40(s0)
C:/VSD_Sqd_Project/sifive_hifive1_BitNet_MNIST_App/freedom-metal/src/drivers/riscv_plic0.c:201
    struct __metal_driver_riscv_plic0 *plic = (void *)(controller);
2010dd42:	fdc42783          	lw	a5,-36(s0)
2010dd46:	fef42623          	sw	a5,-20(s0)
C:/VSD_Sqd_Project/sifive_hifive1_BitNet_MNIST_App/freedom-metal/src/drivers/riscv_plic0.c:203

    if (id >= __metal_driver_sifive_plic0_num_interrupts(controller)) {
2010dd4a:	fdc42503          	lw	a0,-36(s0)
2010dd4e:	9cdff0ef          	jal	2010d71a <__metal_driver_sifive_plic0_num_interrupts>
2010dd52:	872a                	mv	a4,a0
C:/VSD_Sqd_Project/sifive_hifive1_BitNet_MNIST_App/freedom-metal/src/drivers/riscv_plic0.c:203 (discriminator 1)
2010dd54:	fd842783          	lw	a5,-40(s0)
2010dd58:	00e7c463          	blt	a5,a4,2010dd60 <__metal_driver_riscv_plic0_disable+0x2e>
C:/VSD_Sqd_Project/sifive_hifive1_BitNet_MNIST_App/freedom-metal/src/drivers/riscv_plic0.c:204
        return -1;
2010dd5c:	57fd                	li	a5,-1
2010dd5e:	a829                	j	2010dd78 <__metal_driver_riscv_plic0_disable+0x46>
C:/VSD_Sqd_Project/sifive_hifive1_BitNet_MNIST_App/freedom-metal/src/drivers/riscv_plic0.c:206
    }
    __metal_plic0_enable(plic, __metal_myhart_id(), id, METAL_DISABLE);
2010dd60:	820fe0ef          	jal	2010bd80 <__metal_myhart_id>
2010dd64:	87aa                	mv	a5,a0
C:/VSD_Sqd_Project/sifive_hifive1_BitNet_MNIST_App/freedom-metal/src/drivers/riscv_plic0.c:206 (discriminator 1)
2010dd66:	4681                	li	a3,0
2010dd68:	fd842603          	lw	a2,-40(s0)
2010dd6c:	85be                	mv	a1,a5
2010dd6e:	fec42503          	lw	a0,-20(s0)
2010dd72:	bfbff0ef          	jal	2010d96c <__metal_plic0_enable>
C:/VSD_Sqd_Project/sifive_hifive1_BitNet_MNIST_App/freedom-metal/src/drivers/riscv_plic0.c:207
    return 0;
2010dd76:	4781                	li	a5,0
C:/VSD_Sqd_Project/sifive_hifive1_BitNet_MNIST_App/freedom-metal/src/drivers/riscv_plic0.c:208
}
2010dd78:	853e                	mv	a0,a5
2010dd7a:	50b2                	lw	ra,44(sp)
2010dd7c:	5422                	lw	s0,40(sp)
2010dd7e:	6145                	add	sp,sp,48
2010dd80:	8082                	ret

2010dd82 <__metal_driver_riscv_plic0_set_threshold>:
__metal_driver_riscv_plic0_set_threshold():
C:/VSD_Sqd_Project/sifive_hifive1_BitNet_MNIST_App/freedom-metal/src/drivers/riscv_plic0.c:211

int __metal_driver_riscv_plic0_set_threshold(struct metal_interrupt *controller,
                                             unsigned int threshold) {
2010dd82:	1101                	add	sp,sp,-32
2010dd84:	ce06                	sw	ra,28(sp)
2010dd86:	cc22                	sw	s0,24(sp)
2010dd88:	1000                	add	s0,sp,32
2010dd8a:	fea42623          	sw	a0,-20(s0)
2010dd8e:	feb42423          	sw	a1,-24(s0)
C:/VSD_Sqd_Project/sifive_hifive1_BitNet_MNIST_App/freedom-metal/src/drivers/riscv_plic0.c:212
    return __metal_plic0_set_threshold(controller, __metal_myhart_id(),
2010dd92:	feffd0ef          	jal	2010bd80 <__metal_myhart_id>
2010dd96:	87aa                	mv	a5,a0
C:/VSD_Sqd_Project/sifive_hifive1_BitNet_MNIST_App/freedom-metal/src/drivers/riscv_plic0.c:212 (discriminator 1)
2010dd98:	fe842603          	lw	a2,-24(s0)
2010dd9c:	85be                	mv	a1,a5
2010dd9e:	fec42503          	lw	a0,-20(s0)
2010dda2:	ab5ff0ef          	jal	2010d856 <__metal_plic0_set_threshold>
2010dda6:	87aa                	mv	a5,a0
C:/VSD_Sqd_Project/sifive_hifive1_BitNet_MNIST_App/freedom-metal/src/drivers/riscv_plic0.c:214
                                       threshold);
}
2010dda8:	853e                	mv	a0,a5
2010ddaa:	40f2                	lw	ra,28(sp)
2010ddac:	4462                	lw	s0,24(sp)
2010ddae:	6105                	add	sp,sp,32
2010ddb0:	8082                	ret

2010ddb2 <__metal_driver_riscv_plic0_get_threshold>:
__metal_driver_riscv_plic0_get_threshold():
C:/VSD_Sqd_Project/sifive_hifive1_BitNet_MNIST_App/freedom-metal/src/drivers/riscv_plic0.c:217

unsigned int
__metal_driver_riscv_plic0_get_threshold(struct metal_interrupt *controller) {
2010ddb2:	1101                	add	sp,sp,-32
2010ddb4:	ce06                	sw	ra,28(sp)
2010ddb6:	cc22                	sw	s0,24(sp)
2010ddb8:	1000                	add	s0,sp,32
2010ddba:	fea42623          	sw	a0,-20(s0)
C:/VSD_Sqd_Project/sifive_hifive1_BitNet_MNIST_App/freedom-metal/src/drivers/riscv_plic0.c:218
    return __metal_plic0_get_threshold(controller, __metal_myhart_id());
2010ddbe:	fc3fd0ef          	jal	2010bd80 <__metal_myhart_id>
2010ddc2:	87aa                	mv	a5,a0
C:/VSD_Sqd_Project/sifive_hifive1_BitNet_MNIST_App/freedom-metal/src/drivers/riscv_plic0.c:218 (discriminator 1)
2010ddc4:	85be                	mv	a1,a5
2010ddc6:	fec42503          	lw	a0,-20(s0)
2010ddca:	ad3ff0ef          	jal	2010d89c <__metal_plic0_get_threshold>
2010ddce:	87aa                	mv	a5,a0
C:/VSD_Sqd_Project/sifive_hifive1_BitNet_MNIST_App/freedom-metal/src/drivers/riscv_plic0.c:219
}
2010ddd0:	853e                	mv	a0,a5
2010ddd2:	40f2                	lw	ra,28(sp)
2010ddd4:	4462                	lw	s0,24(sp)
2010ddd6:	6105                	add	sp,sp,32
2010ddd8:	8082                	ret

2010ddda <__metal_driver_riscv_plic0_affinity_enable>:
__metal_driver_riscv_plic0_affinity_enable():
C:/VSD_Sqd_Project/sifive_hifive1_BitNet_MNIST_App/freedom-metal/src/drivers/riscv_plic0.c:223

metal_affinity
__metal_driver_riscv_plic0_affinity_enable(struct metal_interrupt *controller,
                                           metal_affinity bitmask, int id) {
2010ddda:	7179                	add	sp,sp,-48
2010dddc:	d606                	sw	ra,44(sp)
2010ddde:	d422                	sw	s0,40(sp)
2010dde0:	1800                	add	s0,sp,48
2010dde2:	fca42e23          	sw	a0,-36(s0)
2010dde6:	fcb42c23          	sw	a1,-40(s0)
2010ddea:	fcc42a23          	sw	a2,-44(s0)
C:/VSD_Sqd_Project/sifive_hifive1_BitNet_MNIST_App/freedom-metal/src/drivers/riscv_plic0.c:224
    metal_affinity ret = {0};
2010ddee:	fe042223          	sw	zero,-28(s0)
C:/VSD_Sqd_Project/sifive_hifive1_BitNet_MNIST_App/freedom-metal/src/drivers/riscv_plic0.c:227
    int context;

    struct __metal_driver_riscv_plic0 *plic = (void *)(controller);
2010ddf2:	fdc42783          	lw	a5,-36(s0)
2010ddf6:	fef42423          	sw	a5,-24(s0)
C:/VSD_Sqd_Project/sifive_hifive1_BitNet_MNIST_App/freedom-metal/src/drivers/riscv_plic0.c:229

    if (id >= __metal_driver_sifive_plic0_num_interrupts(controller)) {
2010ddfa:	fdc42503          	lw	a0,-36(s0)
2010ddfe:	91dff0ef          	jal	2010d71a <__metal_driver_sifive_plic0_num_interrupts>
2010de02:	872a                	mv	a4,a0
C:/VSD_Sqd_Project/sifive_hifive1_BitNet_MNIST_App/freedom-metal/src/drivers/riscv_plic0.c:229 (discriminator 1)
2010de04:	fd442783          	lw	a5,-44(s0)
2010de08:	00e7c863          	blt	a5,a4,2010de18 <__metal_driver_riscv_plic0_affinity_enable+0x3e>
C:/VSD_Sqd_Project/sifive_hifive1_BitNet_MNIST_App/freedom-metal/src/drivers/riscv_plic0.c:230
        metal_affinity_set_val(ret, -1);
2010de0c:	57fd                	li	a5,-1
2010de0e:	fef42223          	sw	a5,-28(s0)
C:/VSD_Sqd_Project/sifive_hifive1_BitNet_MNIST_App/freedom-metal/src/drivers/riscv_plic0.c:231
        return ret;
2010de12:	fe442783          	lw	a5,-28(s0)
2010de16:	a899                	j	2010de6c <__metal_driver_riscv_plic0_affinity_enable+0x92>
C:/VSD_Sqd_Project/sifive_hifive1_BitNet_MNIST_App/freedom-metal/src/drivers/riscv_plic0.c:234
    }

    for_each_metal_affinity(context, bitmask) {
2010de18:	fe042623          	sw	zero,-20(s0)
2010de1c:	a099                	j	2010de62 <__metal_driver_riscv_plic0_affinity_enable+0x88>
C:/VSD_Sqd_Project/sifive_hifive1_BitNet_MNIST_App/freedom-metal/src/drivers/riscv_plic0.c:235
        if (context != 0)
2010de1e:	fec42783          	lw	a5,-20(s0)
2010de22:	c795                	beqz	a5,2010de4e <__metal_driver_riscv_plic0_affinity_enable+0x74>
C:/VSD_Sqd_Project/sifive_hifive1_BitNet_MNIST_App/freedom-metal/src/drivers/riscv_plic0.c:236
            metal_affinity_set_bit(
2010de24:	4685                	li	a3,1
2010de26:	fd442603          	lw	a2,-44(s0)
2010de2a:	fec42583          	lw	a1,-20(s0)
2010de2e:	fe842503          	lw	a0,-24(s0)
2010de32:	b3bff0ef          	jal	2010d96c <__metal_plic0_enable>
2010de36:	87aa                	mv	a5,a0
C:/VSD_Sqd_Project/sifive_hifive1_BitNet_MNIST_App/freedom-metal/src/drivers/riscv_plic0.c:236 (discriminator 1)
2010de38:	0017f713          	and	a4,a5,1
2010de3c:	fec42783          	lw	a5,-20(s0)
2010de40:	00f71733          	sll	a4,a4,a5
2010de44:	fe442783          	lw	a5,-28(s0)
2010de48:	8fd9                	or	a5,a5,a4
2010de4a:	fef42223          	sw	a5,-28(s0)
C:/VSD_Sqd_Project/sifive_hifive1_BitNet_MNIST_App/freedom-metal/src/drivers/riscv_plic0.c:234 (discriminator 2)
    for_each_metal_affinity(context, bitmask) {
2010de4e:	fec42783          	lw	a5,-20(s0)
2010de52:	0785                	add	a5,a5,1
2010de54:	fef42623          	sw	a5,-20(s0)
2010de58:	fd842783          	lw	a5,-40(s0)
2010de5c:	8385                	srl	a5,a5,0x1
2010de5e:	fcf42c23          	sw	a5,-40(s0)
C:/VSD_Sqd_Project/sifive_hifive1_BitNet_MNIST_App/freedom-metal/src/drivers/riscv_plic0.c:234 (discriminator 1)
2010de62:	fd842783          	lw	a5,-40(s0)
2010de66:	ffc5                	bnez	a5,2010de1e <__metal_driver_riscv_plic0_affinity_enable+0x44>
C:/VSD_Sqd_Project/sifive_hifive1_BitNet_MNIST_App/freedom-metal/src/drivers/riscv_plic0.c:241
                ret, context,
                __metal_plic0_enable(plic, context, id, METAL_ENABLE));
    }

    return ret;
2010de68:	fe442783          	lw	a5,-28(s0)
C:/VSD_Sqd_Project/sifive_hifive1_BitNet_MNIST_App/freedom-metal/src/drivers/riscv_plic0.c:242
}
2010de6c:	853e                	mv	a0,a5
2010de6e:	50b2                	lw	ra,44(sp)
2010de70:	5422                	lw	s0,40(sp)
2010de72:	6145                	add	sp,sp,48
2010de74:	8082                	ret

2010de76 <__metal_driver_riscv_plic0_affinity_disable>:
__metal_driver_riscv_plic0_affinity_disable():
C:/VSD_Sqd_Project/sifive_hifive1_BitNet_MNIST_App/freedom-metal/src/drivers/riscv_plic0.c:246

metal_affinity
__metal_driver_riscv_plic0_affinity_disable(struct metal_interrupt *controller,
                                            metal_affinity bitmask, int id) {
2010de76:	7179                	add	sp,sp,-48
2010de78:	d606                	sw	ra,44(sp)
2010de7a:	d422                	sw	s0,40(sp)
2010de7c:	1800                	add	s0,sp,48
2010de7e:	fca42e23          	sw	a0,-36(s0)
2010de82:	fcb42c23          	sw	a1,-40(s0)
2010de86:	fcc42a23          	sw	a2,-44(s0)
C:/VSD_Sqd_Project/sifive_hifive1_BitNet_MNIST_App/freedom-metal/src/drivers/riscv_plic0.c:247
    metal_affinity ret = {0};
2010de8a:	fe042223          	sw	zero,-28(s0)
C:/VSD_Sqd_Project/sifive_hifive1_BitNet_MNIST_App/freedom-metal/src/drivers/riscv_plic0.c:250
    int context;

    struct __metal_driver_riscv_plic0 *plic = (void *)(controller);
2010de8e:	fdc42783          	lw	a5,-36(s0)
2010de92:	fef42423          	sw	a5,-24(s0)
C:/VSD_Sqd_Project/sifive_hifive1_BitNet_MNIST_App/freedom-metal/src/drivers/riscv_plic0.c:252

    if (id >= __metal_driver_sifive_plic0_num_interrupts(controller)) {
2010de96:	fdc42503          	lw	a0,-36(s0)
2010de9a:	881ff0ef          	jal	2010d71a <__metal_driver_sifive_plic0_num_interrupts>
2010de9e:	872a                	mv	a4,a0
C:/VSD_Sqd_Project/sifive_hifive1_BitNet_MNIST_App/freedom-metal/src/drivers/riscv_plic0.c:252 (discriminator 1)
2010dea0:	fd442783          	lw	a5,-44(s0)
2010dea4:	00e7c863          	blt	a5,a4,2010deb4 <__metal_driver_riscv_plic0_affinity_disable+0x3e>
C:/VSD_Sqd_Project/sifive_hifive1_BitNet_MNIST_App/freedom-metal/src/drivers/riscv_plic0.c:253
        metal_affinity_set_val(ret, -1);
2010dea8:	57fd                	li	a5,-1
2010deaa:	fef42223          	sw	a5,-28(s0)
C:/VSD_Sqd_Project/sifive_hifive1_BitNet_MNIST_App/freedom-metal/src/drivers/riscv_plic0.c:254
        return ret;
2010deae:	fe442783          	lw	a5,-28(s0)
2010deb2:	a899                	j	2010df08 <__metal_driver_riscv_plic0_affinity_disable+0x92>
C:/VSD_Sqd_Project/sifive_hifive1_BitNet_MNIST_App/freedom-metal/src/drivers/riscv_plic0.c:257
    }

    for_each_metal_affinity(context, bitmask) {
2010deb4:	fe042623          	sw	zero,-20(s0)
2010deb8:	a099                	j	2010defe <__metal_driver_riscv_plic0_affinity_disable+0x88>
C:/VSD_Sqd_Project/sifive_hifive1_BitNet_MNIST_App/freedom-metal/src/drivers/riscv_plic0.c:258
        if (context != 0)
2010deba:	fec42783          	lw	a5,-20(s0)
2010debe:	c795                	beqz	a5,2010deea <__metal_driver_riscv_plic0_affinity_disable+0x74>
C:/VSD_Sqd_Project/sifive_hifive1_BitNet_MNIST_App/freedom-metal/src/drivers/riscv_plic0.c:259
            metal_affinity_set_bit(
2010dec0:	4681                	li	a3,0
2010dec2:	fd442603          	lw	a2,-44(s0)
2010dec6:	fec42583          	lw	a1,-20(s0)
2010deca:	fe842503          	lw	a0,-24(s0)
2010dece:	a9fff0ef          	jal	2010d96c <__metal_plic0_enable>
2010ded2:	87aa                	mv	a5,a0
C:/VSD_Sqd_Project/sifive_hifive1_BitNet_MNIST_App/freedom-metal/src/drivers/riscv_plic0.c:259 (discriminator 1)
2010ded4:	0017f713          	and	a4,a5,1
2010ded8:	fec42783          	lw	a5,-20(s0)
2010dedc:	00f71733          	sll	a4,a4,a5
2010dee0:	fe442783          	lw	a5,-28(s0)
2010dee4:	8fd9                	or	a5,a5,a4
2010dee6:	fef42223          	sw	a5,-28(s0)
C:/VSD_Sqd_Project/sifive_hifive1_BitNet_MNIST_App/freedom-metal/src/drivers/riscv_plic0.c:257 (discriminator 2)
    for_each_metal_affinity(context, bitmask) {
2010deea:	fec42783          	lw	a5,-20(s0)
2010deee:	0785                	add	a5,a5,1
2010def0:	fef42623          	sw	a5,-20(s0)
2010def4:	fd842783          	lw	a5,-40(s0)
2010def8:	8385                	srl	a5,a5,0x1
2010defa:	fcf42c23          	sw	a5,-40(s0)
C:/VSD_Sqd_Project/sifive_hifive1_BitNet_MNIST_App/freedom-metal/src/drivers/riscv_plic0.c:257 (discriminator 1)
2010defe:	fd842783          	lw	a5,-40(s0)
2010df02:	ffc5                	bnez	a5,2010deba <__metal_driver_riscv_plic0_affinity_disable+0x44>
C:/VSD_Sqd_Project/sifive_hifive1_BitNet_MNIST_App/freedom-metal/src/drivers/riscv_plic0.c:264
                ret, context,
                __metal_plic0_enable(plic, context, id, METAL_DISABLE));
    }

    return ret;
2010df04:	fe442783          	lw	a5,-28(s0)
C:/VSD_Sqd_Project/sifive_hifive1_BitNet_MNIST_App/freedom-metal/src/drivers/riscv_plic0.c:265
}
2010df08:	853e                	mv	a0,a5
2010df0a:	50b2                	lw	ra,44(sp)
2010df0c:	5422                	lw	s0,40(sp)
2010df0e:	6145                	add	sp,sp,48
2010df10:	8082                	ret

2010df12 <__metal_driver_riscv_plic0_affinity_set_threshold>:
__metal_driver_riscv_plic0_affinity_set_threshold():
C:/VSD_Sqd_Project/sifive_hifive1_BitNet_MNIST_App/freedom-metal/src/drivers/riscv_plic0.c:269

metal_affinity __metal_driver_riscv_plic0_affinity_set_threshold(
    struct metal_interrupt *controller, metal_affinity bitmask,
    unsigned int threshold) {
2010df12:	7179                	add	sp,sp,-48
2010df14:	d606                	sw	ra,44(sp)
2010df16:	d422                	sw	s0,40(sp)
2010df18:	1800                	add	s0,sp,48
2010df1a:	fca42e23          	sw	a0,-36(s0)
2010df1e:	fcb42c23          	sw	a1,-40(s0)
2010df22:	fcc42a23          	sw	a2,-44(s0)
C:/VSD_Sqd_Project/sifive_hifive1_BitNet_MNIST_App/freedom-metal/src/drivers/riscv_plic0.c:270
    metal_affinity ret = {0};
2010df26:	fe042423          	sw	zero,-24(s0)
C:/VSD_Sqd_Project/sifive_hifive1_BitNet_MNIST_App/freedom-metal/src/drivers/riscv_plic0.c:273
    int context;

    for_each_metal_affinity(context, bitmask) {
2010df2a:	fe042623          	sw	zero,-20(s0)
2010df2e:	a091                	j	2010df72 <__metal_driver_riscv_plic0_affinity_set_threshold+0x60>
C:/VSD_Sqd_Project/sifive_hifive1_BitNet_MNIST_App/freedom-metal/src/drivers/riscv_plic0.c:274
        if (context != 0)
2010df30:	fec42783          	lw	a5,-20(s0)
2010df34:	c78d                	beqz	a5,2010df5e <__metal_driver_riscv_plic0_affinity_set_threshold+0x4c>
C:/VSD_Sqd_Project/sifive_hifive1_BitNet_MNIST_App/freedom-metal/src/drivers/riscv_plic0.c:275
            metal_affinity_set_bit(
2010df36:	fd442603          	lw	a2,-44(s0)
2010df3a:	fec42583          	lw	a1,-20(s0)
2010df3e:	fdc42503          	lw	a0,-36(s0)
2010df42:	915ff0ef          	jal	2010d856 <__metal_plic0_set_threshold>
2010df46:	87aa                	mv	a5,a0
C:/VSD_Sqd_Project/sifive_hifive1_BitNet_MNIST_App/freedom-metal/src/drivers/riscv_plic0.c:275 (discriminator 1)
2010df48:	0017f713          	and	a4,a5,1
2010df4c:	fec42783          	lw	a5,-20(s0)
2010df50:	00f71733          	sll	a4,a4,a5
2010df54:	fe842783          	lw	a5,-24(s0)
2010df58:	8fd9                	or	a5,a5,a4
2010df5a:	fef42423          	sw	a5,-24(s0)
C:/VSD_Sqd_Project/sifive_hifive1_BitNet_MNIST_App/freedom-metal/src/drivers/riscv_plic0.c:273 (discriminator 2)
    for_each_metal_affinity(context, bitmask) {
2010df5e:	fec42783          	lw	a5,-20(s0)
2010df62:	0785                	add	a5,a5,1
2010df64:	fef42623          	sw	a5,-20(s0)
2010df68:	fd842783          	lw	a5,-40(s0)
2010df6c:	8385                	srl	a5,a5,0x1
2010df6e:	fcf42c23          	sw	a5,-40(s0)
C:/VSD_Sqd_Project/sifive_hifive1_BitNet_MNIST_App/freedom-metal/src/drivers/riscv_plic0.c:273 (discriminator 1)
2010df72:	fd842783          	lw	a5,-40(s0)
2010df76:	ffcd                	bnez	a5,2010df30 <__metal_driver_riscv_plic0_affinity_set_threshold+0x1e>
C:/VSD_Sqd_Project/sifive_hifive1_BitNet_MNIST_App/freedom-metal/src/drivers/riscv_plic0.c:280
                ret, context,
                __metal_plic0_set_threshold(controller, context, threshold));
    }

    return ret;
2010df78:	fe842783          	lw	a5,-24(s0)
C:/VSD_Sqd_Project/sifive_hifive1_BitNet_MNIST_App/freedom-metal/src/drivers/riscv_plic0.c:281
}
2010df7c:	853e                	mv	a0,a5
2010df7e:	50b2                	lw	ra,44(sp)
2010df80:	5422                	lw	s0,40(sp)
2010df82:	6145                	add	sp,sp,48
2010df84:	8082                	ret

2010df86 <__metal_driver_riscv_plic0_affinity_get_threshold>:
__metal_driver_riscv_plic0_affinity_get_threshold():
C:/VSD_Sqd_Project/sifive_hifive1_BitNet_MNIST_App/freedom-metal/src/drivers/riscv_plic0.c:284

unsigned int __metal_driver_riscv_plic0_affinity_get_threshold(
    struct metal_interrupt *controller, int context_id) {
2010df86:	1101                	add	sp,sp,-32
2010df88:	ce06                	sw	ra,28(sp)
2010df8a:	cc22                	sw	s0,24(sp)
2010df8c:	1000                	add	s0,sp,32
2010df8e:	fea42623          	sw	a0,-20(s0)
2010df92:	feb42423          	sw	a1,-24(s0)
C:/VSD_Sqd_Project/sifive_hifive1_BitNet_MNIST_App/freedom-metal/src/drivers/riscv_plic0.c:285
    __metal_plic0_get_threshold(controller, context_id);
2010df96:	fe842583          	lw	a1,-24(s0)
2010df9a:	fec42503          	lw	a0,-20(s0)
2010df9e:	8ffff0ef          	jal	2010d89c <__metal_plic0_get_threshold>
C:/VSD_Sqd_Project/sifive_hifive1_BitNet_MNIST_App/freedom-metal/src/drivers/riscv_plic0.c:286
    return 0;
2010dfa2:	4781                	li	a5,0
C:/VSD_Sqd_Project/sifive_hifive1_BitNet_MNIST_App/freedom-metal/src/drivers/riscv_plic0.c:287
}
2010dfa4:	853e                	mv	a0,a5
2010dfa6:	40f2                	lw	ra,28(sp)
2010dfa8:	4462                	lw	s0,24(sp)
2010dfaa:	6105                	add	sp,sp,32
2010dfac:	8082                	ret

2010dfae <__metal_driver_sifive_fe310_g000_hfrosc_ref>:
__metal_driver_sifive_fe310_g000_hfrosc_ref():
C:\VSD_Sqd_Project\sifive_hifive1_BitNet_MNIST_App\bsp\build\debug/./metal/machine.h:1107



/* --------------------- sifive_fe310_g000_hfrosc ------------ */
static __inline__ struct metal_clock * __metal_driver_sifive_fe310_g000_hfrosc_ref(const struct metal_clock *clock)
{
2010dfae:	1101                	add	sp,sp,-32
2010dfb0:	ce22                	sw	s0,28(sp)
2010dfb2:	1000                	add	s0,sp,32
2010dfb4:	fea42623          	sw	a0,-20(s0)
C:\VSD_Sqd_Project\sifive_hifive1_BitNet_MNIST_App\bsp\build\debug/./metal/machine.h:1108
		return (struct metal_clock *)&__metal_dt_clock_2.clock;
2010dfb8:	800007b7          	lui	a5,0x80000
2010dfbc:	06478793          	add	a5,a5,100 # 80000064 <__metal_dt_clock_2>
C:\VSD_Sqd_Project\sifive_hifive1_BitNet_MNIST_App\bsp\build\debug/./metal/machine.h:1109
}
2010dfc0:	853e                	mv	a0,a5
2010dfc2:	4472                	lw	s0,28(sp)
2010dfc4:	6105                	add	sp,sp,32
2010dfc6:	8082                	ret

2010dfc8 <__metal_driver_sifive_fe310_g000_hfrosc_config_base>:
__metal_driver_sifive_fe310_g000_hfrosc_config_base():
C:\VSD_Sqd_Project\sifive_hifive1_BitNet_MNIST_App\bsp\build\debug/./metal/machine.h:1112

static __inline__ struct __metal_driver_sifive_fe310_g000_prci * __metal_driver_sifive_fe310_g000_hfrosc_config_base(const struct metal_clock *clock)
{
2010dfc8:	1101                	add	sp,sp,-32
2010dfca:	ce22                	sw	s0,28(sp)
2010dfcc:	1000                	add	s0,sp,32
2010dfce:	fea42623          	sw	a0,-20(s0)
C:\VSD_Sqd_Project\sifive_hifive1_BitNet_MNIST_App\bsp\build\debug/./metal/machine.h:1113
		return (struct __metal_driver_sifive_fe310_g000_prci *)&__metal_dt_prci_10008000;
2010dfd2:	82018793          	add	a5,gp,-2016 # 80000a90 <__metal_dt_prci_10008000>
C:\VSD_Sqd_Project\sifive_hifive1_BitNet_MNIST_App\bsp\build\debug/./metal/machine.h:1114
}
2010dfd6:	853e                	mv	a0,a5
2010dfd8:	4472                	lw	s0,28(sp)
2010dfda:	6105                	add	sp,sp,32
2010dfdc:	8082                	ret

2010dfde <__metal_driver_sifive_fe310_g000_hfrosc_config_offset>:
__metal_driver_sifive_fe310_g000_hfrosc_config_offset():
C:\VSD_Sqd_Project\sifive_hifive1_BitNet_MNIST_App\bsp\build\debug/./metal/machine.h:1122
{
		return &__metal_driver_vtable_sifive_fe310_g000_prci;
}

static __inline__ long __metal_driver_sifive_fe310_g000_hfrosc_config_offset(const struct metal_clock *clock)
{
2010dfde:	1101                	add	sp,sp,-32
2010dfe0:	ce22                	sw	s0,28(sp)
2010dfe2:	1000                	add	s0,sp,32
2010dfe4:	fea42623          	sw	a0,-20(s0)
C:\VSD_Sqd_Project\sifive_hifive1_BitNet_MNIST_App\bsp\build\debug/./metal/machine.h:1123
		return METAL_SIFIVE_FE310_G000_PRCI_HFROSCCFG;
2010dfe8:	4781                	li	a5,0
C:\VSD_Sqd_Project\sifive_hifive1_BitNet_MNIST_App\bsp\build\debug/./metal/machine.h:1124
}
2010dfea:	853e                	mv	a0,a5
2010dfec:	4472                	lw	s0,28(sp)
2010dfee:	6105                	add	sp,sp,32
2010dff0:	8082                	ret

2010dff2 <__metal_driver_sifive_fe310_g000_prci_vtable>:
__metal_driver_sifive_fe310_g000_prci_vtable():
C:\VSD_Sqd_Project\sifive_hifive1_BitNet_MNIST_App\bsp\build\debug/./metal/machine.h:1239
{
		return METAL_SIFIVE_FE310_G000_PRCI_10008000_SIZE;
}

static __inline__ const struct __metal_driver_vtable_sifive_fe310_g000_prci * __metal_driver_sifive_fe310_g000_prci_vtable( )
{
2010dff2:	1141                	add	sp,sp,-16
2010dff4:	c622                	sw	s0,12(sp)
2010dff6:	0800                	add	s0,sp,16
C:\VSD_Sqd_Project\sifive_hifive1_BitNet_MNIST_App\bsp\build\debug/./metal/machine.h:1240
		return &__metal_driver_vtable_sifive_fe310_g000_prci;
2010dff8:	201097b7          	lui	a5,0x20109
2010dffc:	56478793          	add	a5,a5,1380 # 20109564 <__metal_driver_vtable_sifive_fe310_g000_prci>
C:\VSD_Sqd_Project\sifive_hifive1_BitNet_MNIST_App\bsp\build\debug/./metal/machine.h:1241
}
2010e000:	853e                	mv	a0,a5
2010e002:	4432                	lw	s0,12(sp)
2010e004:	0141                	add	sp,sp,16
2010e006:	8082                	ret

2010e008 <__metal_driver_sifive_fe310_g000_hfrosc_get_rate_hz>:
__metal_driver_sifive_fe310_g000_hfrosc_get_rate_hz():
C:/VSD_Sqd_Project/sifive_hifive1_BitNet_MNIST_App/freedom-metal/src/drivers/sifive_fe310-g000_hfrosc.c:17
#define CONFIG_TRIM 0x001F0000UL
#define CONFIG_ENABLE 0x40000000UL
#define CONFIG_READY 0x80000000UL

long __metal_driver_sifive_fe310_g000_hfrosc_get_rate_hz(
    const struct metal_clock *clock) {
2010e008:	7139                	add	sp,sp,-64
2010e00a:	de06                	sw	ra,60(sp)
2010e00c:	dc22                	sw	s0,56(sp)
2010e00e:	0080                	add	s0,sp,64
2010e010:	fca42623          	sw	a0,-52(s0)
C:/VSD_Sqd_Project/sifive_hifive1_BitNet_MNIST_App/freedom-metal/src/drivers/sifive_fe310-g000_hfrosc.c:19
    struct metal_clock *ref =
        __metal_driver_sifive_fe310_g000_hfrosc_ref(clock);
2010e014:	fcc42503          	lw	a0,-52(s0)
2010e018:	3f59                	jal	2010dfae <__metal_driver_sifive_fe310_g000_hfrosc_ref>
2010e01a:	fea42623          	sw	a0,-20(s0)
C:/VSD_Sqd_Project/sifive_hifive1_BitNet_MNIST_App/freedom-metal/src/drivers/sifive_fe310-g000_hfrosc.c:21
    long config_offset =
        __metal_driver_sifive_fe310_g000_hfrosc_config_offset(clock);
2010e01e:	fcc42503          	lw	a0,-52(s0)
2010e022:	3f75                	jal	2010dfde <__metal_driver_sifive_fe310_g000_hfrosc_config_offset>
2010e024:	fea42423          	sw	a0,-24(s0)
C:/VSD_Sqd_Project/sifive_hifive1_BitNet_MNIST_App/freedom-metal/src/drivers/sifive_fe310-g000_hfrosc.c:23
    struct __metal_driver_sifive_fe310_g000_prci *config_base =
        __metal_driver_sifive_fe310_g000_hfrosc_config_base(clock);
2010e028:	fcc42503          	lw	a0,-52(s0)
2010e02c:	3f71                	jal	2010dfc8 <__metal_driver_sifive_fe310_g000_hfrosc_config_base>
2010e02e:	fea42223          	sw	a0,-28(s0)
C:/VSD_Sqd_Project/sifive_hifive1_BitNet_MNIST_App/freedom-metal/src/drivers/sifive_fe310-g000_hfrosc.c:25
    const struct __metal_driver_vtable_sifive_fe310_g000_prci *vtable =
        __metal_driver_sifive_fe310_g000_prci_vtable();
2010e032:	37c1                	jal	2010dff2 <__metal_driver_sifive_fe310_g000_prci_vtable>
2010e034:	fea42023          	sw	a0,-32(s0)
C:/VSD_Sqd_Project/sifive_hifive1_BitNet_MNIST_App/freedom-metal/src/drivers/sifive_fe310-g000_hfrosc.c:26
    long cfg = vtable->get_reg(config_base, config_offset);
2010e038:	fe042783          	lw	a5,-32(s0)
2010e03c:	439c                	lw	a5,0(a5)
2010e03e:	fe842583          	lw	a1,-24(s0)
2010e042:	fe442503          	lw	a0,-28(s0)
2010e046:	9782                	jalr	a5
2010e048:	fca42e23          	sw	a0,-36(s0)
C:/VSD_Sqd_Project/sifive_hifive1_BitNet_MNIST_App/freedom-metal/src/drivers/sifive_fe310-g000_hfrosc.c:28

    if ((cfg & CONFIG_ENABLE) == 0)
2010e04c:	fdc42703          	lw	a4,-36(s0)
2010e050:	400007b7          	lui	a5,0x40000
2010e054:	8ff9                	and	a5,a5,a4
2010e056:	e399                	bnez	a5,2010e05c <__metal_driver_sifive_fe310_g000_hfrosc_get_rate_hz+0x54>
C:/VSD_Sqd_Project/sifive_hifive1_BitNet_MNIST_App/freedom-metal/src/drivers/sifive_fe310-g000_hfrosc.c:29
        return -1;
2010e058:	57fd                	li	a5,-1
2010e05a:	a025                	j	2010e082 <__metal_driver_sifive_fe310_g000_hfrosc_get_rate_hz+0x7a>
C:/VSD_Sqd_Project/sifive_hifive1_BitNet_MNIST_App/freedom-metal/src/drivers/sifive_fe310-g000_hfrosc.c:30
    if ((cfg & CONFIG_READY) == 0)
2010e05c:	fdc42783          	lw	a5,-36(s0)
2010e060:	0007c463          	bltz	a5,2010e068 <__metal_driver_sifive_fe310_g000_hfrosc_get_rate_hz+0x60>
C:/VSD_Sqd_Project/sifive_hifive1_BitNet_MNIST_App/freedom-metal/src/drivers/sifive_fe310-g000_hfrosc.c:31
        return -1;
2010e064:	57fd                	li	a5,-1
2010e066:	a831                	j	2010e082 <__metal_driver_sifive_fe310_g000_hfrosc_get_rate_hz+0x7a>
C:/VSD_Sqd_Project/sifive_hifive1_BitNet_MNIST_App/freedom-metal/src/drivers/sifive_fe310-g000_hfrosc.c:32
    return metal_clock_get_rate_hz(ref) / ((cfg & CONFIG_DIVIDER) + 1);
2010e068:	fec42503          	lw	a0,-20(s0)
2010e06c:	07d010ef          	jal	2010f8e8 <metal_clock_get_rate_hz>
2010e070:	87aa                	mv	a5,a0
C:/VSD_Sqd_Project/sifive_hifive1_BitNet_MNIST_App/freedom-metal/src/drivers/sifive_fe310-g000_hfrosc.c:32 (discriminator 1)
2010e072:	873e                	mv	a4,a5
2010e074:	fdc42783          	lw	a5,-36(s0)
2010e078:	03f7f793          	and	a5,a5,63
2010e07c:	0785                	add	a5,a5,1 # 40000001 <metal_segment_data_source_start+0x1fef0449>
2010e07e:	02f757b3          	divu	a5,a4,a5
C:/VSD_Sqd_Project/sifive_hifive1_BitNet_MNIST_App/freedom-metal/src/drivers/sifive_fe310-g000_hfrosc.c:33
}
2010e082:	853e                	mv	a0,a5
2010e084:	50f2                	lw	ra,60(sp)
2010e086:	5462                	lw	s0,56(sp)
2010e088:	6121                	add	sp,sp,64
2010e08a:	8082                	ret

2010e08c <__metal_driver_sifive_fe310_g000_hfrosc_set_rate_hz>:
__metal_driver_sifive_fe310_g000_hfrosc_set_rate_hz():
C:/VSD_Sqd_Project/sifive_hifive1_BitNet_MNIST_App/freedom-metal/src/drivers/sifive_fe310-g000_hfrosc.c:36

long __metal_driver_sifive_fe310_g000_hfrosc_set_rate_hz(
    struct metal_clock *clock, long rate) {
2010e08c:	1101                	add	sp,sp,-32
2010e08e:	ce06                	sw	ra,28(sp)
2010e090:	cc22                	sw	s0,24(sp)
2010e092:	1000                	add	s0,sp,32
2010e094:	fea42623          	sw	a0,-20(s0)
2010e098:	feb42423          	sw	a1,-24(s0)
C:/VSD_Sqd_Project/sifive_hifive1_BitNet_MNIST_App/freedom-metal/src/drivers/sifive_fe310-g000_hfrosc.c:37
    return __metal_driver_sifive_fe310_g000_hfrosc_get_rate_hz(clock);
2010e09c:	fec42503          	lw	a0,-20(s0)
2010e0a0:	37a5                	jal	2010e008 <__metal_driver_sifive_fe310_g000_hfrosc_get_rate_hz>
2010e0a2:	87aa                	mv	a5,a0
C:/VSD_Sqd_Project/sifive_hifive1_BitNet_MNIST_App/freedom-metal/src/drivers/sifive_fe310-g000_hfrosc.c:38
}
2010e0a4:	853e                	mv	a0,a5
2010e0a6:	40f2                	lw	ra,28(sp)
2010e0a8:	4462                	lw	s0,24(sp)
2010e0aa:	6105                	add	sp,sp,32
2010e0ac:	8082                	ret

2010e0ae <__metal_driver_sifive_fe310_g000_hfxosc_ref>:
__metal_driver_sifive_fe310_g000_hfxosc_ref():
C:\VSD_Sqd_Project\sifive_hifive1_BitNet_MNIST_App\bsp\build\debug/./metal/machine.h:1130
{
2010e0ae:	1101                	add	sp,sp,-32
2010e0b0:	ce22                	sw	s0,28(sp)
2010e0b2:	1000                	add	s0,sp,32
2010e0b4:	fea42623          	sw	a0,-20(s0)
C:\VSD_Sqd_Project\sifive_hifive1_BitNet_MNIST_App\bsp\build\debug/./metal/machine.h:1131
		return (struct metal_clock *)&__metal_dt_clock_0.clock;
2010e0b8:	800007b7          	lui	a5,0x80000
2010e0bc:	05878793          	add	a5,a5,88 # 80000058 <__metal_dt_clock_0>
C:\VSD_Sqd_Project\sifive_hifive1_BitNet_MNIST_App\bsp\build\debug/./metal/machine.h:1132
}
2010e0c0:	853e                	mv	a0,a5
2010e0c2:	4472                	lw	s0,28(sp)
2010e0c4:	6105                	add	sp,sp,32
2010e0c6:	8082                	ret

2010e0c8 <__metal_driver_sifive_fe310_g000_hfxosc_config_base>:
__metal_driver_sifive_fe310_g000_hfxosc_config_base():
C:\VSD_Sqd_Project\sifive_hifive1_BitNet_MNIST_App\bsp\build\debug/./metal/machine.h:1135
{
2010e0c8:	1101                	add	sp,sp,-32
2010e0ca:	ce22                	sw	s0,28(sp)
2010e0cc:	1000                	add	s0,sp,32
2010e0ce:	fea42623          	sw	a0,-20(s0)
C:\VSD_Sqd_Project\sifive_hifive1_BitNet_MNIST_App\bsp\build\debug/./metal/machine.h:1136
		return (struct __metal_driver_sifive_fe310_g000_prci *)&__metal_dt_prci_10008000;
2010e0d2:	82018793          	add	a5,gp,-2016 # 80000a90 <__metal_dt_prci_10008000>
C:\VSD_Sqd_Project\sifive_hifive1_BitNet_MNIST_App\bsp\build\debug/./metal/machine.h:1137
}
2010e0d6:	853e                	mv	a0,a5
2010e0d8:	4472                	lw	s0,28(sp)
2010e0da:	6105                	add	sp,sp,32
2010e0dc:	8082                	ret

2010e0de <__metal_driver_sifive_fe310_g000_hfxosc_config_offset>:
__metal_driver_sifive_fe310_g000_hfxosc_config_offset():
C:\VSD_Sqd_Project\sifive_hifive1_BitNet_MNIST_App\bsp\build\debug/./metal/machine.h:1140
{
2010e0de:	1101                	add	sp,sp,-32
2010e0e0:	ce22                	sw	s0,28(sp)
2010e0e2:	1000                	add	s0,sp,32
2010e0e4:	fea42623          	sw	a0,-20(s0)
C:\VSD_Sqd_Project\sifive_hifive1_BitNet_MNIST_App\bsp\build\debug/./metal/machine.h:1141
		return METAL_SIFIVE_FE310_G000_PRCI_HFXOSCCFG;
2010e0e8:	4791                	li	a5,4
C:\VSD_Sqd_Project\sifive_hifive1_BitNet_MNIST_App\bsp\build\debug/./metal/machine.h:1142
}
2010e0ea:	853e                	mv	a0,a5
2010e0ec:	4472                	lw	s0,28(sp)
2010e0ee:	6105                	add	sp,sp,32
2010e0f0:	8082                	ret

2010e0f2 <__metal_driver_sifive_fe310_g000_prci_vtable>:
__metal_driver_sifive_fe310_g000_prci_vtable():
C:\VSD_Sqd_Project\sifive_hifive1_BitNet_MNIST_App\bsp\build\debug/./metal/machine.h:1239
{
2010e0f2:	1141                	add	sp,sp,-16
2010e0f4:	c622                	sw	s0,12(sp)
2010e0f6:	0800                	add	s0,sp,16
C:\VSD_Sqd_Project\sifive_hifive1_BitNet_MNIST_App\bsp\build\debug/./metal/machine.h:1240
		return &__metal_driver_vtable_sifive_fe310_g000_prci;
2010e0f8:	201097b7          	lui	a5,0x20109
2010e0fc:	56478793          	add	a5,a5,1380 # 20109564 <__metal_driver_vtable_sifive_fe310_g000_prci>
C:\VSD_Sqd_Project\sifive_hifive1_BitNet_MNIST_App\bsp\build\debug/./metal/machine.h:1241
}
2010e100:	853e                	mv	a0,a5
2010e102:	4432                	lw	s0,12(sp)
2010e104:	0141                	add	sp,sp,16
2010e106:	8082                	ret

2010e108 <__metal_driver_sifive_fe310_g000_hfxosc_get_rate_hz>:
__metal_driver_sifive_fe310_g000_hfxosc_get_rate_hz():
C:/VSD_Sqd_Project/sifive_hifive1_BitNet_MNIST_App/freedom-metal/src/drivers/sifive_fe310-g000_hfxosc.c:15

#define CONFIG_ENABLE 0x40000000UL
#define CONFIG_READY 0x80000000UL

long __metal_driver_sifive_fe310_g000_hfxosc_get_rate_hz(
    const struct metal_clock *clock) {
2010e108:	7139                	add	sp,sp,-64
2010e10a:	de06                	sw	ra,60(sp)
2010e10c:	dc22                	sw	s0,56(sp)
2010e10e:	0080                	add	s0,sp,64
2010e110:	fca42623          	sw	a0,-52(s0)
C:/VSD_Sqd_Project/sifive_hifive1_BitNet_MNIST_App/freedom-metal/src/drivers/sifive_fe310-g000_hfxosc.c:17
    struct metal_clock *ref =
        __metal_driver_sifive_fe310_g000_hfxosc_ref(clock);
2010e114:	fcc42503          	lw	a0,-52(s0)
2010e118:	3f59                	jal	2010e0ae <__metal_driver_sifive_fe310_g000_hfxosc_ref>
2010e11a:	fea42623          	sw	a0,-20(s0)
C:/VSD_Sqd_Project/sifive_hifive1_BitNet_MNIST_App/freedom-metal/src/drivers/sifive_fe310-g000_hfxosc.c:19
    long config_offset =
        __metal_driver_sifive_fe310_g000_hfxosc_config_offset(clock);
2010e11e:	fcc42503          	lw	a0,-52(s0)
2010e122:	3f75                	jal	2010e0de <__metal_driver_sifive_fe310_g000_hfxosc_config_offset>
2010e124:	fea42423          	sw	a0,-24(s0)
C:/VSD_Sqd_Project/sifive_hifive1_BitNet_MNIST_App/freedom-metal/src/drivers/sifive_fe310-g000_hfxosc.c:21
    struct __metal_driver_sifive_fe310_g000_prci *config_base =
        __metal_driver_sifive_fe310_g000_hfxosc_config_base(clock);
2010e128:	fcc42503          	lw	a0,-52(s0)
2010e12c:	3f71                	jal	2010e0c8 <__metal_driver_sifive_fe310_g000_hfxosc_config_base>
2010e12e:	fea42223          	sw	a0,-28(s0)
C:/VSD_Sqd_Project/sifive_hifive1_BitNet_MNIST_App/freedom-metal/src/drivers/sifive_fe310-g000_hfxosc.c:23
    const struct __metal_driver_vtable_sifive_fe310_g000_prci *vtable =
        __metal_driver_sifive_fe310_g000_prci_vtable();
2010e132:	37c1                	jal	2010e0f2 <__metal_driver_sifive_fe310_g000_prci_vtable>
2010e134:	fea42023          	sw	a0,-32(s0)
C:/VSD_Sqd_Project/sifive_hifive1_BitNet_MNIST_App/freedom-metal/src/drivers/sifive_fe310-g000_hfxosc.c:24
    long cfg = vtable->get_reg(config_base, config_offset);
2010e138:	fe042783          	lw	a5,-32(s0)
2010e13c:	439c                	lw	a5,0(a5)
2010e13e:	fe842583          	lw	a1,-24(s0)
2010e142:	fe442503          	lw	a0,-28(s0)
2010e146:	9782                	jalr	a5
2010e148:	fca42e23          	sw	a0,-36(s0)
C:/VSD_Sqd_Project/sifive_hifive1_BitNet_MNIST_App/freedom-metal/src/drivers/sifive_fe310-g000_hfxosc.c:26

    if ((cfg & CONFIG_ENABLE) == 0)
2010e14c:	fdc42703          	lw	a4,-36(s0)
2010e150:	400007b7          	lui	a5,0x40000
2010e154:	8ff9                	and	a5,a5,a4
2010e156:	e399                	bnez	a5,2010e15c <__metal_driver_sifive_fe310_g000_hfxosc_get_rate_hz+0x54>
C:/VSD_Sqd_Project/sifive_hifive1_BitNet_MNIST_App/freedom-metal/src/drivers/sifive_fe310-g000_hfxosc.c:27
        return -1;
2010e158:	57fd                	li	a5,-1
2010e15a:	a821                	j	2010e172 <__metal_driver_sifive_fe310_g000_hfxosc_get_rate_hz+0x6a>
C:/VSD_Sqd_Project/sifive_hifive1_BitNet_MNIST_App/freedom-metal/src/drivers/sifive_fe310-g000_hfxosc.c:28
    if ((cfg & CONFIG_READY) == 0)
2010e15c:	fdc42783          	lw	a5,-36(s0)
2010e160:	0007c463          	bltz	a5,2010e168 <__metal_driver_sifive_fe310_g000_hfxosc_get_rate_hz+0x60>
C:/VSD_Sqd_Project/sifive_hifive1_BitNet_MNIST_App/freedom-metal/src/drivers/sifive_fe310-g000_hfxosc.c:29
        return -1;
2010e164:	57fd                	li	a5,-1
2010e166:	a031                	j	2010e172 <__metal_driver_sifive_fe310_g000_hfxosc_get_rate_hz+0x6a>
C:/VSD_Sqd_Project/sifive_hifive1_BitNet_MNIST_App/freedom-metal/src/drivers/sifive_fe310-g000_hfxosc.c:30
    return metal_clock_get_rate_hz(ref);
2010e168:	fec42503          	lw	a0,-20(s0)
2010e16c:	77c010ef          	jal	2010f8e8 <metal_clock_get_rate_hz>
2010e170:	87aa                	mv	a5,a0
C:/VSD_Sqd_Project/sifive_hifive1_BitNet_MNIST_App/freedom-metal/src/drivers/sifive_fe310-g000_hfxosc.c:31
}
2010e172:	853e                	mv	a0,a5
2010e174:	50f2                	lw	ra,60(sp)
2010e176:	5462                	lw	s0,56(sp)
2010e178:	6121                	add	sp,sp,64
2010e17a:	8082                	ret

2010e17c <__metal_driver_sifive_fe310_g000_hfxosc_set_rate_hz>:
__metal_driver_sifive_fe310_g000_hfxosc_set_rate_hz():
C:/VSD_Sqd_Project/sifive_hifive1_BitNet_MNIST_App/freedom-metal/src/drivers/sifive_fe310-g000_hfxosc.c:34

long __metal_driver_sifive_fe310_g000_hfxosc_set_rate_hz(
    struct metal_clock *clock, long rate) {
2010e17c:	1101                	add	sp,sp,-32
2010e17e:	ce06                	sw	ra,28(sp)
2010e180:	cc22                	sw	s0,24(sp)
2010e182:	1000                	add	s0,sp,32
2010e184:	fea42623          	sw	a0,-20(s0)
2010e188:	feb42423          	sw	a1,-24(s0)
C:/VSD_Sqd_Project/sifive_hifive1_BitNet_MNIST_App/freedom-metal/src/drivers/sifive_fe310-g000_hfxosc.c:35
    return __metal_driver_sifive_fe310_g000_hfxosc_get_rate_hz(clock);
2010e18c:	fec42503          	lw	a0,-20(s0)
2010e190:	3fa5                	jal	2010e108 <__metal_driver_sifive_fe310_g000_hfxosc_get_rate_hz>
2010e192:	87aa                	mv	a5,a0
C:/VSD_Sqd_Project/sifive_hifive1_BitNet_MNIST_App/freedom-metal/src/drivers/sifive_fe310-g000_hfxosc.c:36
}
2010e194:	853e                	mv	a0,a5
2010e196:	40f2                	lw	ra,28(sp)
2010e198:	4462                	lw	s0,24(sp)
2010e19a:	6105                	add	sp,sp,32
2010e19c:	8082                	ret

2010e19e <__metal_driver_sifive_fe310_g000_pll_pllsel0>:
__metal_driver_sifive_fe310_g000_pll_pllsel0():
C:\VSD_Sqd_Project\sifive_hifive1_BitNet_MNIST_App\bsp\build\debug/./metal/machine.h:1191
{
2010e19e:	1101                	add	sp,sp,-32
2010e1a0:	ce22                	sw	s0,28(sp)
2010e1a2:	1000                	add	s0,sp,32
2010e1a4:	fea42623          	sw	a0,-20(s0)
C:\VSD_Sqd_Project\sifive_hifive1_BitNet_MNIST_App\bsp\build\debug/./metal/machine.h:1192
		return (struct metal_clock *)&__metal_dt_clock_3.clock;
2010e1a8:	800017b7          	lui	a5,0x80001
2010e1ac:	a4878793          	add	a5,a5,-1464 # 80000a48 <__metal_dt_clock_3>
C:\VSD_Sqd_Project\sifive_hifive1_BitNet_MNIST_App\bsp\build\debug/./metal/machine.h:1193
}
2010e1b0:	853e                	mv	a0,a5
2010e1b2:	4472                	lw	s0,28(sp)
2010e1b4:	6105                	add	sp,sp,32
2010e1b6:	8082                	ret

2010e1b8 <__metal_driver_sifive_fe310_g000_pll_pllref>:
__metal_driver_sifive_fe310_g000_pll_pllref():
C:\VSD_Sqd_Project\sifive_hifive1_BitNet_MNIST_App\bsp\build\debug/./metal/machine.h:1196
{
2010e1b8:	1101                	add	sp,sp,-32
2010e1ba:	ce22                	sw	s0,28(sp)
2010e1bc:	1000                	add	s0,sp,32
2010e1be:	fea42623          	sw	a0,-20(s0)
C:\VSD_Sqd_Project\sifive_hifive1_BitNet_MNIST_App\bsp\build\debug/./metal/machine.h:1197
		return (struct metal_clock *)&__metal_dt_clock_1.clock;
2010e1c2:	800017b7          	lui	a5,0x80001
2010e1c6:	a5478793          	add	a5,a5,-1452 # 80000a54 <__metal_dt_clock_1>
C:\VSD_Sqd_Project\sifive_hifive1_BitNet_MNIST_App\bsp\build\debug/./metal/machine.h:1198
}
2010e1ca:	853e                	mv	a0,a5
2010e1cc:	4472                	lw	s0,28(sp)
2010e1ce:	6105                	add	sp,sp,32
2010e1d0:	8082                	ret

2010e1d2 <__metal_driver_sifive_fe310_g000_pll_divider_base>:
__metal_driver_sifive_fe310_g000_pll_divider_base():
C:\VSD_Sqd_Project\sifive_hifive1_BitNet_MNIST_App\bsp\build\debug/./metal/machine.h:1201
{
2010e1d2:	1101                	add	sp,sp,-32
2010e1d4:	ce22                	sw	s0,28(sp)
2010e1d6:	1000                	add	s0,sp,32
2010e1d8:	fea42623          	sw	a0,-20(s0)
C:\VSD_Sqd_Project\sifive_hifive1_BitNet_MNIST_App\bsp\build\debug/./metal/machine.h:1202
		return (struct __metal_driver_sifive_fe310_g000_prci *)&__metal_dt_prci_10008000;
2010e1dc:	82018793          	add	a5,gp,-2016 # 80000a90 <__metal_dt_prci_10008000>
C:\VSD_Sqd_Project\sifive_hifive1_BitNet_MNIST_App\bsp\build\debug/./metal/machine.h:1203
}
2010e1e0:	853e                	mv	a0,a5
2010e1e2:	4472                	lw	s0,28(sp)
2010e1e4:	6105                	add	sp,sp,32
2010e1e6:	8082                	ret

2010e1e8 <__metal_driver_sifive_fe310_g000_pll_divider_offset>:
__metal_driver_sifive_fe310_g000_pll_divider_offset():
C:\VSD_Sqd_Project\sifive_hifive1_BitNet_MNIST_App\bsp\build\debug/./metal/machine.h:1206
{
2010e1e8:	1101                	add	sp,sp,-32
2010e1ea:	ce22                	sw	s0,28(sp)
2010e1ec:	1000                	add	s0,sp,32
2010e1ee:	fea42623          	sw	a0,-20(s0)
C:\VSD_Sqd_Project\sifive_hifive1_BitNet_MNIST_App\bsp\build\debug/./metal/machine.h:1207
		return METAL_SIFIVE_FE310_G000_PRCI_PLLOUTDIV;
2010e1f2:	47b1                	li	a5,12
C:\VSD_Sqd_Project\sifive_hifive1_BitNet_MNIST_App\bsp\build\debug/./metal/machine.h:1208
}
2010e1f4:	853e                	mv	a0,a5
2010e1f6:	4472                	lw	s0,28(sp)
2010e1f8:	6105                	add	sp,sp,32
2010e1fa:	8082                	ret

2010e1fc <__metal_driver_sifive_fe310_g000_pll_config_base>:
__metal_driver_sifive_fe310_g000_pll_config_base():
C:\VSD_Sqd_Project\sifive_hifive1_BitNet_MNIST_App\bsp\build\debug/./metal/machine.h:1211
{
2010e1fc:	1141                	add	sp,sp,-16
2010e1fe:	c622                	sw	s0,12(sp)
2010e200:	0800                	add	s0,sp,16
C:\VSD_Sqd_Project\sifive_hifive1_BitNet_MNIST_App\bsp\build\debug/./metal/machine.h:1212
		return (struct __metal_driver_sifive_fe310_g000_prci *)&__metal_dt_prci_10008000;
2010e202:	82018793          	add	a5,gp,-2016 # 80000a90 <__metal_dt_prci_10008000>
C:\VSD_Sqd_Project\sifive_hifive1_BitNet_MNIST_App\bsp\build\debug/./metal/machine.h:1213
}
2010e206:	853e                	mv	a0,a5
2010e208:	4432                	lw	s0,12(sp)
2010e20a:	0141                	add	sp,sp,16
2010e20c:	8082                	ret

2010e20e <__metal_driver_sifive_fe310_g000_pll_config_offset>:
__metal_driver_sifive_fe310_g000_pll_config_offset():
C:\VSD_Sqd_Project\sifive_hifive1_BitNet_MNIST_App\bsp\build\debug/./metal/machine.h:1216
{
2010e20e:	1141                	add	sp,sp,-16
2010e210:	c622                	sw	s0,12(sp)
2010e212:	0800                	add	s0,sp,16
C:\VSD_Sqd_Project\sifive_hifive1_BitNet_MNIST_App\bsp\build\debug/./metal/machine.h:1217
		return METAL_SIFIVE_FE310_G000_PRCI_PLLCFG;
2010e214:	47a1                	li	a5,8
C:\VSD_Sqd_Project\sifive_hifive1_BitNet_MNIST_App\bsp\build\debug/./metal/machine.h:1218
}
2010e216:	853e                	mv	a0,a5
2010e218:	4432                	lw	s0,12(sp)
2010e21a:	0141                	add	sp,sp,16
2010e21c:	8082                	ret

2010e21e <__metal_driver_sifive_fe310_g000_pll_init_rate>:
__metal_driver_sifive_fe310_g000_pll_init_rate():
C:\VSD_Sqd_Project\sifive_hifive1_BitNet_MNIST_App\bsp\build\debug/./metal/machine.h:1221
{
2010e21e:	1141                	add	sp,sp,-16
2010e220:	c622                	sw	s0,12(sp)
2010e222:	0800                	add	s0,sp,16
C:\VSD_Sqd_Project\sifive_hifive1_BitNet_MNIST_App\bsp\build\debug/./metal/machine.h:1222
		return 16000000;
2010e224:	00f427b7          	lui	a5,0xf42
2010e228:	40078793          	add	a5,a5,1024 # f42400 <__heap_size+0xf41c00>
C:\VSD_Sqd_Project\sifive_hifive1_BitNet_MNIST_App\bsp\build\debug/./metal/machine.h:1223
}
2010e22c:	853e                	mv	a0,a5
2010e22e:	4432                	lw	s0,12(sp)
2010e230:	0141                	add	sp,sp,16
2010e232:	8082                	ret

2010e234 <__metal_driver_sifive_fe310_g000_prci_base>:
__metal_driver_sifive_fe310_g000_prci_base():
C:\VSD_Sqd_Project\sifive_hifive1_BitNet_MNIST_App\bsp\build\debug/./metal/machine.h:1229
{
2010e234:	1141                	add	sp,sp,-16
2010e236:	c622                	sw	s0,12(sp)
2010e238:	0800                	add	s0,sp,16
C:\VSD_Sqd_Project\sifive_hifive1_BitNet_MNIST_App\bsp\build\debug/./metal/machine.h:1230
		return METAL_SIFIVE_FE310_G000_PRCI_10008000_BASE_ADDRESS;
2010e23a:	100087b7          	lui	a5,0x10008
C:\VSD_Sqd_Project\sifive_hifive1_BitNet_MNIST_App\bsp\build\debug/./metal/machine.h:1231
}
2010e23e:	853e                	mv	a0,a5
2010e240:	4432                	lw	s0,12(sp)
2010e242:	0141                	add	sp,sp,16
2010e244:	8082                	ret

2010e246 <__metal_driver_sifive_fe310_g000_prci_vtable>:
__metal_driver_sifive_fe310_g000_prci_vtable():
C:\VSD_Sqd_Project\sifive_hifive1_BitNet_MNIST_App\bsp\build\debug/./metal/machine.h:1239
{
2010e246:	1141                	add	sp,sp,-16
2010e248:	c622                	sw	s0,12(sp)
2010e24a:	0800                	add	s0,sp,16
C:\VSD_Sqd_Project\sifive_hifive1_BitNet_MNIST_App\bsp\build\debug/./metal/machine.h:1240
		return &__metal_driver_vtable_sifive_fe310_g000_prci;
2010e24c:	201097b7          	lui	a5,0x20109
2010e250:	56478793          	add	a5,a5,1380 # 20109564 <__metal_driver_vtable_sifive_fe310_g000_prci>
C:\VSD_Sqd_Project\sifive_hifive1_BitNet_MNIST_App\bsp\build\debug/./metal/machine.h:1241
}
2010e254:	853e                	mv	a0,a5
2010e256:	4432                	lw	s0,12(sp)
2010e258:	0141                	add	sp,sp,16
2010e25a:	8082                	ret

2010e25c <get_pll_config_freq>:
get_pll_config_freq():
C:/VSD_Sqd_Project/sifive_hifive1_BitNet_MNIST_App/freedom-metal/src/drivers/sifive_fe310-g000_pll.c:141
                                const struct pll_config_t *config) {
2010e25c:	1101                	add	sp,sp,-32
2010e25e:	ce22                	sw	s0,28(sp)
2010e260:	1000                	add	s0,sp,32
2010e262:	fea42623          	sw	a0,-20(s0)
2010e266:	feb42423          	sw	a1,-24(s0)
C:/VSD_Sqd_Project/sifive_hifive1_BitNet_MNIST_App/freedom-metal/src/drivers/sifive_fe310-g000_pll.c:142
    if (pll_input_rate < config->min_input_rate ||
2010e26a:	fe842783          	lw	a5,-24(s0)
2010e26e:	479c                	lw	a5,8(a5)
2010e270:	fec42703          	lw	a4,-20(s0)
2010e274:	00f76963          	bltu	a4,a5,2010e286 <get_pll_config_freq+0x2a>
C:/VSD_Sqd_Project/sifive_hifive1_BitNet_MNIST_App/freedom-metal/src/drivers/sifive_fe310-g000_pll.c:143
        pll_input_rate > config->max_input_rate)
2010e278:	fe842783          	lw	a5,-24(s0)
2010e27c:	47dc                	lw	a5,12(a5)
C:/VSD_Sqd_Project/sifive_hifive1_BitNet_MNIST_App/freedom-metal/src/drivers/sifive_fe310-g000_pll.c:142 (discriminator 1)
    if (pll_input_rate < config->min_input_rate ||
2010e27e:	fec42703          	lw	a4,-20(s0)
2010e282:	00e7f463          	bgeu	a5,a4,2010e28a <get_pll_config_freq+0x2e>
C:/VSD_Sqd_Project/sifive_hifive1_BitNet_MNIST_App/freedom-metal/src/drivers/sifive_fe310-g000_pll.c:144
        return PLL_CONFIG_NOT_VALID;
2010e286:	57fd                	li	a5,-1
2010e288:	a829                	j	2010e2a2 <get_pll_config_freq+0x46>
C:/VSD_Sqd_Project/sifive_hifive1_BitNet_MNIST_App/freedom-metal/src/drivers/sifive_fe310-g000_pll.c:146
    return pll_input_rate * config->multiplier / config->divisor;
2010e28a:	fe842783          	lw	a5,-24(s0)
2010e28e:	4398                	lw	a4,0(a5)
2010e290:	fec42783          	lw	a5,-20(s0)
2010e294:	02f70733          	mul	a4,a4,a5
2010e298:	fe842783          	lw	a5,-24(s0)
2010e29c:	43dc                	lw	a5,4(a5)
2010e29e:	02f757b3          	divu	a5,a4,a5
C:/VSD_Sqd_Project/sifive_hifive1_BitNet_MNIST_App/freedom-metal/src/drivers/sifive_fe310-g000_pll.c:147
}
2010e2a2:	853e                	mv	a0,a5
2010e2a4:	4472                	lw	s0,28(sp)
2010e2a6:	6105                	add	sp,sp,32
2010e2a8:	8082                	ret

2010e2aa <__metal_driver_sifive_fe310_g000_pll_init>:
__metal_driver_sifive_fe310_g000_pll_init():
C:/VSD_Sqd_Project/sifive_hifive1_BitNet_MNIST_App/freedom-metal/src/drivers/sifive_fe310-g000_pll.c:162
    struct __metal_driver_sifive_fe310_g000_pll *pll) {
2010e2aa:	7139                	add	sp,sp,-64
2010e2ac:	de06                	sw	ra,60(sp)
2010e2ae:	dc22                	sw	s0,56(sp)
2010e2b0:	0080                	add	s0,sp,64
2010e2b2:	fca42623          	sw	a0,-52(s0)
C:/VSD_Sqd_Project/sifive_hifive1_BitNet_MNIST_App/freedom-metal/src/drivers/sifive_fe310-g000_pll.c:164
        __metal_driver_sifive_fe310_g000_pll_pllref(&(pll->clock));
2010e2b6:	fcc42783          	lw	a5,-52(s0)
2010e2ba:	853e                	mv	a0,a5
2010e2bc:	3df5                	jal	2010e1b8 <__metal_driver_sifive_fe310_g000_pll_pllref>
2010e2be:	fea42623          	sw	a0,-20(s0)
C:/VSD_Sqd_Project/sifive_hifive1_BitNet_MNIST_App/freedom-metal/src/drivers/sifive_fe310-g000_pll.c:165
    long init_rate = __metal_driver_sifive_fe310_g000_pll_init_rate();
2010e2c2:	3fb1                	jal	2010e21e <__metal_driver_sifive_fe310_g000_pll_init_rate>
2010e2c4:	fea42423          	sw	a0,-24(s0)
C:/VSD_Sqd_Project/sifive_hifive1_BitNet_MNIST_App/freedom-metal/src/drivers/sifive_fe310-g000_pll.c:166
    long config_offset = __metal_driver_sifive_fe310_g000_pll_config_offset();
2010e2c8:	3799                	jal	2010e20e <__metal_driver_sifive_fe310_g000_pll_config_offset>
2010e2ca:	fea42223          	sw	a0,-28(s0)
C:/VSD_Sqd_Project/sifive_hifive1_BitNet_MNIST_App/freedom-metal/src/drivers/sifive_fe310-g000_pll.c:167
    long base = __metal_driver_sifive_fe310_g000_prci_base();
2010e2ce:	379d                	jal	2010e234 <__metal_driver_sifive_fe310_g000_prci_base>
2010e2d0:	fea42023          	sw	a0,-32(s0)
C:/VSD_Sqd_Project/sifive_hifive1_BitNet_MNIST_App/freedom-metal/src/drivers/sifive_fe310-g000_pll.c:169
    __metal_io_u32 *pllcfg = (__metal_io_u32 *)(base + config_offset);
2010e2d4:	fe042703          	lw	a4,-32(s0)
2010e2d8:	fe442783          	lw	a5,-28(s0)
2010e2dc:	97ba                	add	a5,a5,a4
2010e2de:	fcf42e23          	sw	a5,-36(s0)
C:/VSD_Sqd_Project/sifive_hifive1_BitNet_MNIST_App/freedom-metal/src/drivers/sifive_fe310-g000_pll.c:173
    _metal_clock_call_all_callbacks(pll->clock._pre_rate_change_callback);
2010e2e2:	fcc42783          	lw	a5,-52(s0)
2010e2e6:	43dc                	lw	a5,4(a5)
2010e2e8:	853e                	mv	a0,a5
2010e2ea:	568010ef          	jal	2010f852 <_metal_clock_call_all_callbacks>
C:/VSD_Sqd_Project/sifive_hifive1_BitNet_MNIST_App/freedom-metal/src/drivers/sifive_fe310-g000_pll.c:177
    if ((__METAL_ACCESS_ONCE(pllcfg) & PLL_SEL) != 0)
2010e2ee:	fdc42783          	lw	a5,-36(s0)
2010e2f2:	4398                	lw	a4,0(a5)
2010e2f4:	67c1                	lui	a5,0x10
2010e2f6:	8ff9                	and	a5,a5,a4
2010e2f8:	cb91                	beqz	a5,2010e30c <__metal_driver_sifive_fe310_g000_pll_init+0x62>
C:/VSD_Sqd_Project/sifive_hifive1_BitNet_MNIST_App/freedom-metal/src/drivers/sifive_fe310-g000_pll.c:178
        __METAL_ACCESS_ONCE(pllcfg) &= ~(PLL_SEL);
2010e2fa:	fdc42783          	lw	a5,-36(s0)
2010e2fe:	4398                	lw	a4,0(a5)
2010e300:	77c1                	lui	a5,0xffff0
2010e302:	17fd                	add	a5,a5,-1 # fffeffff <metal_segment_heap_target_end+0x7ffee77f>
2010e304:	8f7d                	and	a4,a4,a5
2010e306:	fdc42783          	lw	a5,-36(s0)
2010e30a:	c398                	sw	a4,0(a5)
C:/VSD_Sqd_Project/sifive_hifive1_BitNet_MNIST_App/freedom-metal/src/drivers/sifive_fe310-g000_pll.c:181
    if (pllref != NULL)
2010e30c:	fec42783          	lw	a5,-20(s0)
2010e310:	cb91                	beqz	a5,2010e324 <__metal_driver_sifive_fe310_g000_pll_init+0x7a>
C:/VSD_Sqd_Project/sifive_hifive1_BitNet_MNIST_App/freedom-metal/src/drivers/sifive_fe310-g000_pll.c:182
        __METAL_ACCESS_ONCE(pllcfg) |= PLL_REFSEL;
2010e312:	fdc42783          	lw	a5,-36(s0)
2010e316:	4398                	lw	a4,0(a5)
2010e318:	000207b7          	lui	a5,0x20
2010e31c:	8f5d                	or	a4,a4,a5
2010e31e:	fdc42783          	lw	a5,-36(s0)
2010e322:	c398                	sw	a4,0(a5)
C:/VSD_Sqd_Project/sifive_hifive1_BitNet_MNIST_App/freedom-metal/src/drivers/sifive_fe310-g000_pll.c:187
    pll->clock.vtable->set_rate_hz(&(pll->clock), init_rate);
2010e324:	fcc42783          	lw	a5,-52(s0)
2010e328:	439c                	lw	a5,0(a5)
2010e32a:	43dc                	lw	a5,4(a5)
2010e32c:	fcc42703          	lw	a4,-52(s0)
2010e330:	fe842583          	lw	a1,-24(s0)
2010e334:	853a                	mv	a0,a4
2010e336:	9782                	jalr	a5
C:/VSD_Sqd_Project/sifive_hifive1_BitNet_MNIST_App/freedom-metal/src/drivers/sifive_fe310-g000_pll.c:190
    _metal_clock_call_all_callbacks(pll->clock._post_rate_change_callback);
2010e338:	fcc42783          	lw	a5,-52(s0)
2010e33c:	479c                	lw	a5,8(a5)
2010e33e:	853e                	mv	a0,a5
2010e340:	512010ef          	jal	2010f852 <_metal_clock_call_all_callbacks>
C:/VSD_Sqd_Project/sifive_hifive1_BitNet_MNIST_App/freedom-metal/src/drivers/sifive_fe310-g000_pll.c:191
}
2010e344:	0001                	nop
2010e346:	50f2                	lw	ra,60(sp)
2010e348:	5462                	lw	s0,56(sp)
2010e34a:	6121                	add	sp,sp,64
2010e34c:	8082                	ret

2010e34e <__metal_driver_sifive_fe310_g000_pll_get_rate_hz>:
__metal_driver_sifive_fe310_g000_pll_get_rate_hz():
C:/VSD_Sqd_Project/sifive_hifive1_BitNet_MNIST_App/freedom-metal/src/drivers/sifive_fe310-g000_pll.c:194
    const struct metal_clock *clock) {
2010e34e:	711d                	add	sp,sp,-96
2010e350:	ce86                	sw	ra,92(sp)
2010e352:	cca2                	sw	s0,88(sp)
2010e354:	1080                	add	s0,sp,96
2010e356:	faa42623          	sw	a0,-84(s0)
C:/VSD_Sqd_Project/sifive_hifive1_BitNet_MNIST_App/freedom-metal/src/drivers/sifive_fe310-g000_pll.c:196
        __metal_driver_sifive_fe310_g000_pll_pllref(clock);
2010e35a:	fac42503          	lw	a0,-84(s0)
2010e35e:	3da9                	jal	2010e1b8 <__metal_driver_sifive_fe310_g000_pll_pllref>
2010e360:	fea42623          	sw	a0,-20(s0)
C:/VSD_Sqd_Project/sifive_hifive1_BitNet_MNIST_App/freedom-metal/src/drivers/sifive_fe310-g000_pll.c:198
        __metal_driver_sifive_fe310_g000_pll_pllsel0(clock);
2010e364:	fac42503          	lw	a0,-84(s0)
2010e368:	3d1d                	jal	2010e19e <__metal_driver_sifive_fe310_g000_pll_pllsel0>
2010e36a:	fea42423          	sw	a0,-24(s0)
C:/VSD_Sqd_Project/sifive_hifive1_BitNet_MNIST_App/freedom-metal/src/drivers/sifive_fe310-g000_pll.c:200
        __metal_driver_sifive_fe310_g000_pll_config_offset(clock);
2010e36e:	fac42503          	lw	a0,-84(s0)
2010e372:	3d71                	jal	2010e20e <__metal_driver_sifive_fe310_g000_pll_config_offset>
2010e374:	fea42223          	sw	a0,-28(s0)
C:/VSD_Sqd_Project/sifive_hifive1_BitNet_MNIST_App/freedom-metal/src/drivers/sifive_fe310-g000_pll.c:202
        __metal_driver_sifive_fe310_g000_pll_config_base(clock);
2010e378:	fac42503          	lw	a0,-84(s0)
2010e37c:	3541                	jal	2010e1fc <__metal_driver_sifive_fe310_g000_pll_config_base>
2010e37e:	fea42023          	sw	a0,-32(s0)
C:/VSD_Sqd_Project/sifive_hifive1_BitNet_MNIST_App/freedom-metal/src/drivers/sifive_fe310-g000_pll.c:204
        __metal_driver_sifive_fe310_g000_pll_divider_offset(clock);
2010e382:	fac42503          	lw	a0,-84(s0)
2010e386:	358d                	jal	2010e1e8 <__metal_driver_sifive_fe310_g000_pll_divider_offset>
2010e388:	fca42e23          	sw	a0,-36(s0)
C:/VSD_Sqd_Project/sifive_hifive1_BitNet_MNIST_App/freedom-metal/src/drivers/sifive_fe310-g000_pll.c:206
        __metal_driver_sifive_fe310_g000_pll_divider_base(clock);
2010e38c:	fac42503          	lw	a0,-84(s0)
2010e390:	e43ff0ef          	jal	2010e1d2 <__metal_driver_sifive_fe310_g000_pll_divider_base>
2010e394:	fca42c23          	sw	a0,-40(s0)
C:/VSD_Sqd_Project/sifive_hifive1_BitNet_MNIST_App/freedom-metal/src/drivers/sifive_fe310-g000_pll.c:208
        __metal_driver_sifive_fe310_g000_prci_vtable();
2010e398:	357d                	jal	2010e246 <__metal_driver_sifive_fe310_g000_prci_vtable>
2010e39a:	fca42a23          	sw	a0,-44(s0)
C:/VSD_Sqd_Project/sifive_hifive1_BitNet_MNIST_App/freedom-metal/src/drivers/sifive_fe310-g000_pll.c:210
    long cfg = vtable->get_reg(config_base, config_offset);
2010e39e:	fd442783          	lw	a5,-44(s0)
2010e3a2:	439c                	lw	a5,0(a5)
2010e3a4:	fe442583          	lw	a1,-28(s0)
2010e3a8:	fe042503          	lw	a0,-32(s0)
2010e3ac:	9782                	jalr	a5
2010e3ae:	fca42823          	sw	a0,-48(s0)
C:/VSD_Sqd_Project/sifive_hifive1_BitNet_MNIST_App/freedom-metal/src/drivers/sifive_fe310-g000_pll.c:211
    long div = vtable->get_reg(divider_base, divider_offset);
2010e3b2:	fd442783          	lw	a5,-44(s0)
2010e3b6:	439c                	lw	a5,0(a5)
2010e3b8:	fdc42583          	lw	a1,-36(s0)
2010e3bc:	fd842503          	lw	a0,-40(s0)
2010e3c0:	9782                	jalr	a5
2010e3c2:	fca42623          	sw	a0,-52(s0)
C:/VSD_Sqd_Project/sifive_hifive1_BitNet_MNIST_App/freedom-metal/src/drivers/sifive_fe310-g000_pll.c:215
    if (__METAL_GET_FIELD(cfg, PLL_SEL) == 0)
2010e3c6:	fd042703          	lw	a4,-48(s0)
2010e3ca:	67c1                	lui	a5,0x10
2010e3cc:	8f7d                	and	a4,a4,a5
2010e3ce:	67c1                	lui	a5,0x10
2010e3d0:	00f77863          	bgeu	a4,a5,2010e3e0 <__metal_driver_sifive_fe310_g000_pll_get_rate_hz+0x92>
C:/VSD_Sqd_Project/sifive_hifive1_BitNet_MNIST_App/freedom-metal/src/drivers/sifive_fe310-g000_pll.c:216
        return metal_clock_get_rate_hz(pllsel0);
2010e3d4:	fe842503          	lw	a0,-24(s0)
2010e3d8:	510010ef          	jal	2010f8e8 <metal_clock_get_rate_hz>
2010e3dc:	87aa                	mv	a5,a0
2010e3de:	a8e1                	j	2010e4b6 <__metal_driver_sifive_fe310_g000_pll_get_rate_hz+0x168>
C:/VSD_Sqd_Project/sifive_hifive1_BitNet_MNIST_App/freedom-metal/src/drivers/sifive_fe310-g000_pll.c:221
        __METAL_GET_FIELD(cfg, PLL_REFSEL) ? pllref : pllsel0);
2010e3e0:	fd042703          	lw	a4,-48(s0)
2010e3e4:	000207b7          	lui	a5,0x20
2010e3e8:	8f7d                	and	a4,a4,a5
C:/VSD_Sqd_Project/sifive_hifive1_BitNet_MNIST_App/freedom-metal/src/drivers/sifive_fe310-g000_pll.c:220
    long ref_hz = metal_clock_get_rate_hz(
2010e3ea:	000207b7          	lui	a5,0x20
2010e3ee:	00f76563          	bltu	a4,a5,2010e3f8 <__metal_driver_sifive_fe310_g000_pll_get_rate_hz+0xaa>
C:/VSD_Sqd_Project/sifive_hifive1_BitNet_MNIST_App/freedom-metal/src/drivers/sifive_fe310-g000_pll.c:220 (discriminator 1)
2010e3f2:	fec42783          	lw	a5,-20(s0)
2010e3f6:	a019                	j	2010e3fc <__metal_driver_sifive_fe310_g000_pll_get_rate_hz+0xae>
C:/VSD_Sqd_Project/sifive_hifive1_BitNet_MNIST_App/freedom-metal/src/drivers/sifive_fe310-g000_pll.c:220 (discriminator 2)
2010e3f8:	fe842783          	lw	a5,-24(s0)
C:/VSD_Sqd_Project/sifive_hifive1_BitNet_MNIST_App/freedom-metal/src/drivers/sifive_fe310-g000_pll.c:220 (discriminator 4)
2010e3fc:	853e                	mv	a0,a5
2010e3fe:	4ea010ef          	jal	2010f8e8 <metal_clock_get_rate_hz>
2010e402:	fca42423          	sw	a0,-56(s0)
C:/VSD_Sqd_Project/sifive_hifive1_BitNet_MNIST_App/freedom-metal/src/drivers/sifive_fe310-g000_pll.c:225
    if (__METAL_GET_FIELD(cfg, PLL_BYPASS))
2010e406:	fd042703          	lw	a4,-48(s0)
2010e40a:	000407b7          	lui	a5,0x40
2010e40e:	8f7d                	and	a4,a4,a5
2010e410:	000407b7          	lui	a5,0x40
2010e414:	00f76563          	bltu	a4,a5,2010e41e <__metal_driver_sifive_fe310_g000_pll_get_rate_hz+0xd0>
C:/VSD_Sqd_Project/sifive_hifive1_BitNet_MNIST_App/freedom-metal/src/drivers/sifive_fe310-g000_pll.c:226
        return ref_hz;
2010e418:	fc842783          	lw	a5,-56(s0)
2010e41c:	a869                	j	2010e4b6 <__metal_driver_sifive_fe310_g000_pll_get_rate_hz+0x168>
C:/VSD_Sqd_Project/sifive_hifive1_BitNet_MNIST_App/freedom-metal/src/drivers/sifive_fe310-g000_pll.c:229
    long div_r = __METAL_GET_FIELD(cfg, PLL_R) + 1;
2010e41e:	fd042783          	lw	a5,-48(s0)
2010e422:	8b9d                	and	a5,a5,7
2010e424:	0785                	add	a5,a5,1 # 40001 <__heap_size+0x3f801>
2010e426:	fcf42223          	sw	a5,-60(s0)
C:/VSD_Sqd_Project/sifive_hifive1_BitNet_MNIST_App/freedom-metal/src/drivers/sifive_fe310-g000_pll.c:230
    long mul_f = 2 * (__METAL_GET_FIELD(cfg, PLL_F) + 1);
2010e42a:	fd042783          	lw	a5,-48(s0)
2010e42e:	3f07f793          	and	a5,a5,1008
2010e432:	8391                	srl	a5,a5,0x4
2010e434:	0785                	add	a5,a5,1
2010e436:	0786                	sll	a5,a5,0x1
2010e438:	fcf42023          	sw	a5,-64(s0)
C:/VSD_Sqd_Project/sifive_hifive1_BitNet_MNIST_App/freedom-metal/src/drivers/sifive_fe310-g000_pll.c:231
    if (__METAL_GET_FIELD(cfg, PLL_Q) == 0)
2010e43c:	fd042703          	lw	a4,-48(s0)
2010e440:	6785                	lui	a5,0x1
2010e442:	c0078793          	add	a5,a5,-1024 # c00 <__heap_size+0x400>
2010e446:	8f7d                	and	a4,a4,a5
2010e448:	3ff00793          	li	a5,1023
2010e44c:	00e7e463          	bltu	a5,a4,2010e454 <__metal_driver_sifive_fe310_g000_pll_get_rate_hz+0x106>
C:/VSD_Sqd_Project/sifive_hifive1_BitNet_MNIST_App/freedom-metal/src/drivers/sifive_fe310-g000_pll.c:232
        return -1;
2010e450:	57fd                	li	a5,-1
2010e452:	a095                	j	2010e4b6 <__metal_driver_sifive_fe310_g000_pll_get_rate_hz+0x168>
C:/VSD_Sqd_Project/sifive_hifive1_BitNet_MNIST_App/freedom-metal/src/drivers/sifive_fe310-g000_pll.c:233
    long div_q = 1 << __METAL_GET_FIELD(cfg, PLL_Q);
2010e454:	fd042703          	lw	a4,-48(s0)
2010e458:	6785                	lui	a5,0x1
2010e45a:	c0078793          	add	a5,a5,-1024 # c00 <__heap_size+0x400>
2010e45e:	8ff9                	and	a5,a5,a4
2010e460:	83a9                	srl	a5,a5,0xa
2010e462:	4705                	li	a4,1
2010e464:	00f717b3          	sll	a5,a4,a5
2010e468:	faf42e23          	sw	a5,-68(s0)
C:/VSD_Sqd_Project/sifive_hifive1_BitNet_MNIST_App/freedom-metal/src/drivers/sifive_fe310-g000_pll.c:238
    long pllout = (((ref_hz / div_r) * mul_f) / div_q);
2010e46c:	fc842703          	lw	a4,-56(s0)
2010e470:	fc442783          	lw	a5,-60(s0)
2010e474:	02f74733          	div	a4,a4,a5
2010e478:	fc042783          	lw	a5,-64(s0)
2010e47c:	02f70733          	mul	a4,a4,a5
2010e480:	fbc42783          	lw	a5,-68(s0)
2010e484:	02f747b3          	div	a5,a4,a5
2010e488:	faf42c23          	sw	a5,-72(s0)
C:/VSD_Sqd_Project/sifive_hifive1_BitNet_MNIST_App/freedom-metal/src/drivers/sifive_fe310-g000_pll.c:239
    if (__METAL_GET_FIELD(div, DIV_1))
2010e48c:	fcc42783          	lw	a5,-52(s0)
2010e490:	1007f713          	and	a4,a5,256
2010e494:	0ff00793          	li	a5,255
2010e498:	00e7f563          	bgeu	a5,a4,2010e4a2 <__metal_driver_sifive_fe310_g000_pll_get_rate_hz+0x154>
C:/VSD_Sqd_Project/sifive_hifive1_BitNet_MNIST_App/freedom-metal/src/drivers/sifive_fe310-g000_pll.c:240
        return pllout;
2010e49c:	fb842783          	lw	a5,-72(s0)
2010e4a0:	a819                	j	2010e4b6 <__metal_driver_sifive_fe310_g000_pll_get_rate_hz+0x168>
C:/VSD_Sqd_Project/sifive_hifive1_BitNet_MNIST_App/freedom-metal/src/drivers/sifive_fe310-g000_pll.c:242
    return pllout / (2 * (__METAL_GET_FIELD(div, DIV_DIV) + 1));
2010e4a2:	fb842703          	lw	a4,-72(s0)
2010e4a6:	fcc42783          	lw	a5,-52(s0)
2010e4aa:	03f7f793          	and	a5,a5,63
2010e4ae:	0785                	add	a5,a5,1
2010e4b0:	0786                	sll	a5,a5,0x1
2010e4b2:	02f757b3          	divu	a5,a4,a5
C:/VSD_Sqd_Project/sifive_hifive1_BitNet_MNIST_App/freedom-metal/src/drivers/sifive_fe310-g000_pll.c:243
}
2010e4b6:	853e                	mv	a0,a5
2010e4b8:	40f6                	lw	ra,92(sp)
2010e4ba:	4466                	lw	s0,88(sp)
2010e4bc:	6125                	add	sp,sp,96
2010e4be:	8082                	ret

2010e4c0 <find_closest_config>:
find_closest_config():
C:/VSD_Sqd_Project/sifive_hifive1_BitNet_MNIST_App/freedom-metal/src/drivers/sifive_fe310-g000_pll.c:253
static int find_closest_config(long ref_hz, long rate) {
2010e4c0:	7139                	add	sp,sp,-64
2010e4c2:	de06                	sw	ra,60(sp)
2010e4c4:	dc22                	sw	s0,56(sp)
2010e4c6:	0080                	add	s0,sp,64
2010e4c8:	fca42623          	sw	a0,-52(s0)
2010e4cc:	fcb42423          	sw	a1,-56(s0)
C:/VSD_Sqd_Project/sifive_hifive1_BitNet_MNIST_App/freedom-metal/src/drivers/sifive_fe310-g000_pll.c:254
    int closest_index = -1;
2010e4d0:	57fd                	li	a5,-1
2010e4d2:	fef42623          	sw	a5,-20(s0)
C:/VSD_Sqd_Project/sifive_hifive1_BitNet_MNIST_App/freedom-metal/src/drivers/sifive_fe310-g000_pll.c:255
    long closest_diff = LONG_MAX;
2010e4d6:	800007b7          	lui	a5,0x80000
2010e4da:	17fd                	add	a5,a5,-1 # 7fffffff <metal_segment_data_source_start+0x5fef0447>
2010e4dc:	fef42423          	sw	a5,-24(s0)
C:/VSD_Sqd_Project/sifive_hifive1_BitNet_MNIST_App/freedom-metal/src/drivers/sifive_fe310-g000_pll.c:259
    for (int i = (sizeof(pll_configs) / sizeof(pll_configs[0])) - 1; i >= 0;
2010e4e0:	04300793          	li	a5,67
2010e4e4:	fef42223          	sw	a5,-28(s0)
2010e4e8:	a0b5                	j	2010e554 <find_closest_config+0x94>
C:/VSD_Sqd_Project/sifive_hifive1_BitNet_MNIST_App/freedom-metal/src/drivers/sifive_fe310-g000_pll.c:261
        long config_freq = get_pll_config_freq(ref_hz, &(pll_configs[i]));
2010e4ea:	fcc42683          	lw	a3,-52(s0)
2010e4ee:	fe442783          	lw	a5,-28(s0)
2010e4f2:	00579713          	sll	a4,a5,0x5
2010e4f6:	201097b7          	lui	a5,0x20109
2010e4fa:	be478793          	add	a5,a5,-1052 # 20108be4 <pll_configs>
2010e4fe:	97ba                	add	a5,a5,a4
2010e500:	85be                	mv	a1,a5
2010e502:	8536                	mv	a0,a3
2010e504:	d59ff0ef          	jal	2010e25c <get_pll_config_freq>
2010e508:	fea42023          	sw	a0,-32(s0)
C:/VSD_Sqd_Project/sifive_hifive1_BitNet_MNIST_App/freedom-metal/src/drivers/sifive_fe310-g000_pll.c:262
        if (config_freq != PLL_CONFIG_NOT_VALID) {
2010e50c:	fe042703          	lw	a4,-32(s0)
2010e510:	57fd                	li	a5,-1
2010e512:	02f70c63          	beq	a4,a5,2010e54a <find_closest_config+0x8a>
C:/VSD_Sqd_Project/sifive_hifive1_BitNet_MNIST_App/freedom-metal/src/drivers/sifive_fe310-g000_pll.c:263
            long freq_diff = labs(config_freq - rate);
2010e516:	fe042703          	lw	a4,-32(s0)
2010e51a:	fc842783          	lw	a5,-56(s0)
2010e51e:	8f1d                	sub	a4,a4,a5
2010e520:	41f75793          	sra	a5,a4,0x1f
2010e524:	8f3d                	xor	a4,a4,a5
2010e526:	40f707b3          	sub	a5,a4,a5
2010e52a:	fcf42e23          	sw	a5,-36(s0)
C:/VSD_Sqd_Project/sifive_hifive1_BitNet_MNIST_App/freedom-metal/src/drivers/sifive_fe310-g000_pll.c:265
            if (freq_diff < closest_diff) {
2010e52e:	fdc42703          	lw	a4,-36(s0)
2010e532:	fe842783          	lw	a5,-24(s0)
2010e536:	00f75a63          	bge	a4,a5,2010e54a <find_closest_config+0x8a>
C:/VSD_Sqd_Project/sifive_hifive1_BitNet_MNIST_App/freedom-metal/src/drivers/sifive_fe310-g000_pll.c:266
                closest_index = i;
2010e53a:	fe442783          	lw	a5,-28(s0)
2010e53e:	fef42623          	sw	a5,-20(s0)
C:/VSD_Sqd_Project/sifive_hifive1_BitNet_MNIST_App/freedom-metal/src/drivers/sifive_fe310-g000_pll.c:267
                closest_diff = freq_diff;
2010e542:	fdc42783          	lw	a5,-36(s0)
2010e546:	fef42423          	sw	a5,-24(s0)
C:/VSD_Sqd_Project/sifive_hifive1_BitNet_MNIST_App/freedom-metal/src/drivers/sifive_fe310-g000_pll.c:260
         i--) {
2010e54a:	fe442783          	lw	a5,-28(s0)
2010e54e:	17fd                	add	a5,a5,-1
2010e550:	fef42223          	sw	a5,-28(s0)
C:/VSD_Sqd_Project/sifive_hifive1_BitNet_MNIST_App/freedom-metal/src/drivers/sifive_fe310-g000_pll.c:259 (discriminator 1)
    for (int i = (sizeof(pll_configs) / sizeof(pll_configs[0])) - 1; i >= 0;
2010e554:	fe442783          	lw	a5,-28(s0)
2010e558:	f807d9e3          	bgez	a5,2010e4ea <find_closest_config+0x2a>
C:/VSD_Sqd_Project/sifive_hifive1_BitNet_MNIST_App/freedom-metal/src/drivers/sifive_fe310-g000_pll.c:272
    return closest_index;
2010e55c:	fec42783          	lw	a5,-20(s0)
C:/VSD_Sqd_Project/sifive_hifive1_BitNet_MNIST_App/freedom-metal/src/drivers/sifive_fe310-g000_pll.c:273
}
2010e560:	853e                	mv	a0,a5
2010e562:	50f2                	lw	ra,60(sp)
2010e564:	5462                	lw	s0,56(sp)
2010e566:	6121                	add	sp,sp,64
2010e568:	8082                	ret

2010e56a <configure_pll>:
configure_pll():
C:/VSD_Sqd_Project/sifive_hifive1_BitNet_MNIST_App/freedom-metal/src/drivers/sifive_fe310-g000_pll.c:290
                          const struct pll_config_t *config) {
2010e56a:	7179                	add	sp,sp,-48
2010e56c:	d606                	sw	ra,44(sp)
2010e56e:	d422                	sw	s0,40(sp)
2010e570:	1800                	add	s0,sp,48
2010e572:	fca42e23          	sw	a0,-36(s0)
2010e576:	fcb42c23          	sw	a1,-40(s0)
2010e57a:	fcc42a23          	sw	a2,-44(s0)
C:/VSD_Sqd_Project/sifive_hifive1_BitNet_MNIST_App/freedom-metal/src/drivers/sifive_fe310-g000_pll.c:291
    __METAL_ACCESS_ONCE(pllcfg) &= ~(PLL_R);
2010e57e:	fdc42783          	lw	a5,-36(s0)
2010e582:	439c                	lw	a5,0(a5)
2010e584:	ff87f713          	and	a4,a5,-8
2010e588:	fdc42783          	lw	a5,-36(s0)
2010e58c:	c398                	sw	a4,0(a5)
C:/VSD_Sqd_Project/sifive_hifive1_BitNet_MNIST_App/freedom-metal/src/drivers/sifive_fe310-g000_pll.c:292
    __METAL_ACCESS_ONCE(pllcfg) |= PLL_R_SHIFT(config->r);
2010e58e:	fdc42783          	lw	a5,-36(s0)
2010e592:	4398                	lw	a4,0(a5)
2010e594:	fd442783          	lw	a5,-44(s0)
2010e598:	4b9c                	lw	a5,16(a5)
2010e59a:	8b9d                	and	a5,a5,7
2010e59c:	8f5d                	or	a4,a4,a5
2010e59e:	fdc42783          	lw	a5,-36(s0)
2010e5a2:	c398                	sw	a4,0(a5)
C:/VSD_Sqd_Project/sifive_hifive1_BitNet_MNIST_App/freedom-metal/src/drivers/sifive_fe310-g000_pll.c:294
    __METAL_ACCESS_ONCE(pllcfg) &= ~(PLL_F);
2010e5a4:	fdc42783          	lw	a5,-36(s0)
2010e5a8:	439c                	lw	a5,0(a5)
2010e5aa:	c0f7f713          	and	a4,a5,-1009
2010e5ae:	fdc42783          	lw	a5,-36(s0)
2010e5b2:	c398                	sw	a4,0(a5)
C:/VSD_Sqd_Project/sifive_hifive1_BitNet_MNIST_App/freedom-metal/src/drivers/sifive_fe310-g000_pll.c:295
    __METAL_ACCESS_ONCE(pllcfg) |= PLL_F_SHIFT(config->f);
2010e5b4:	fdc42783          	lw	a5,-36(s0)
2010e5b8:	4398                	lw	a4,0(a5)
2010e5ba:	fd442783          	lw	a5,-44(s0)
2010e5be:	4bdc                	lw	a5,20(a5)
2010e5c0:	0792                	sll	a5,a5,0x4
2010e5c2:	3f07f793          	and	a5,a5,1008
2010e5c6:	8f5d                	or	a4,a4,a5
2010e5c8:	fdc42783          	lw	a5,-36(s0)
2010e5cc:	c398                	sw	a4,0(a5)
C:/VSD_Sqd_Project/sifive_hifive1_BitNet_MNIST_App/freedom-metal/src/drivers/sifive_fe310-g000_pll.c:297
    __METAL_ACCESS_ONCE(pllcfg) &= ~(PLL_Q);
2010e5ce:	fdc42783          	lw	a5,-36(s0)
2010e5d2:	4398                	lw	a4,0(a5)
2010e5d4:	77fd                	lui	a5,0xfffff
2010e5d6:	3ff78793          	add	a5,a5,1023 # fffff3ff <metal_segment_heap_target_end+0x7fffdb7f>
2010e5da:	8f7d                	and	a4,a4,a5
2010e5dc:	fdc42783          	lw	a5,-36(s0)
2010e5e0:	c398                	sw	a4,0(a5)
C:/VSD_Sqd_Project/sifive_hifive1_BitNet_MNIST_App/freedom-metal/src/drivers/sifive_fe310-g000_pll.c:298
    __METAL_ACCESS_ONCE(pllcfg) |= PLL_Q_SHIFT(config->q);
2010e5e2:	fdc42783          	lw	a5,-36(s0)
2010e5e6:	4398                	lw	a4,0(a5)
2010e5e8:	fd442783          	lw	a5,-44(s0)
2010e5ec:	4f9c                	lw	a5,24(a5)
2010e5ee:	00a79693          	sll	a3,a5,0xa
2010e5f2:	6785                	lui	a5,0x1
2010e5f4:	c0078793          	add	a5,a5,-1024 # c00 <__heap_size+0x400>
2010e5f8:	8ff5                	and	a5,a5,a3
2010e5fa:	8f5d                	or	a4,a4,a5
2010e5fc:	fdc42783          	lw	a5,-36(s0)
2010e600:	c398                	sw	a4,0(a5)
C:/VSD_Sqd_Project/sifive_hifive1_BitNet_MNIST_App/freedom-metal/src/drivers/sifive_fe310-g000_pll.c:300
    if (config->d < 0) {
2010e602:	fd442783          	lw	a5,-44(s0)
2010e606:	4fdc                	lw	a5,28(a5)
2010e608:	0207db63          	bgez	a5,2010e63e <configure_pll+0xd4>
C:/VSD_Sqd_Project/sifive_hifive1_BitNet_MNIST_App/freedom-metal/src/drivers/sifive_fe310-g000_pll.c:302
        __METAL_ACCESS_ONCE(plloutdiv) |= DIV_1;
2010e60c:	fd842783          	lw	a5,-40(s0)
2010e610:	439c                	lw	a5,0(a5)
2010e612:	1007e713          	or	a4,a5,256
2010e616:	fd842783          	lw	a5,-40(s0)
2010e61a:	c398                	sw	a4,0(a5)
C:/VSD_Sqd_Project/sifive_hifive1_BitNet_MNIST_App/freedom-metal/src/drivers/sifive_fe310-g000_pll.c:304
        __METAL_ACCESS_ONCE(plloutdiv) &= ~(DIV_DIV);
2010e61c:	fd842783          	lw	a5,-40(s0)
2010e620:	439c                	lw	a5,0(a5)
2010e622:	fc07f713          	and	a4,a5,-64
2010e626:	fd842783          	lw	a5,-40(s0)
2010e62a:	c398                	sw	a4,0(a5)
C:/VSD_Sqd_Project/sifive_hifive1_BitNet_MNIST_App/freedom-metal/src/drivers/sifive_fe310-g000_pll.c:305
        __METAL_ACCESS_ONCE(plloutdiv) |= PLL_DIV_SHIFT(1);
2010e62c:	fd842783          	lw	a5,-40(s0)
2010e630:	439c                	lw	a5,0(a5)
2010e632:	0017e713          	or	a4,a5,1
2010e636:	fd842783          	lw	a5,-40(s0)
2010e63a:	c398                	sw	a4,0(a5)
2010e63c:	a82d                	j	2010e676 <configure_pll+0x10c>
C:/VSD_Sqd_Project/sifive_hifive1_BitNet_MNIST_App/freedom-metal/src/drivers/sifive_fe310-g000_pll.c:307
        __METAL_ACCESS_ONCE(plloutdiv) &= ~(DIV_1);
2010e63e:	fd842783          	lw	a5,-40(s0)
2010e642:	439c                	lw	a5,0(a5)
2010e644:	eff7f713          	and	a4,a5,-257
2010e648:	fd842783          	lw	a5,-40(s0)
2010e64c:	c398                	sw	a4,0(a5)
C:/VSD_Sqd_Project/sifive_hifive1_BitNet_MNIST_App/freedom-metal/src/drivers/sifive_fe310-g000_pll.c:309
        __METAL_ACCESS_ONCE(plloutdiv) &= ~(DIV_DIV);
2010e64e:	fd842783          	lw	a5,-40(s0)
2010e652:	439c                	lw	a5,0(a5)
2010e654:	fc07f713          	and	a4,a5,-64
2010e658:	fd842783          	lw	a5,-40(s0)
2010e65c:	c398                	sw	a4,0(a5)
C:/VSD_Sqd_Project/sifive_hifive1_BitNet_MNIST_App/freedom-metal/src/drivers/sifive_fe310-g000_pll.c:310
        __METAL_ACCESS_ONCE(plloutdiv) |= PLL_DIV_SHIFT(config->d);
2010e65e:	fd842783          	lw	a5,-40(s0)
2010e662:	4398                	lw	a4,0(a5)
2010e664:	fd442783          	lw	a5,-44(s0)
2010e668:	4fdc                	lw	a5,28(a5)
2010e66a:	03f7f793          	and	a5,a5,63
2010e66e:	8f5d                	or	a4,a4,a5
2010e670:	fd842783          	lw	a5,-40(s0)
2010e674:	c398                	sw	a4,0(a5)
C:/VSD_Sqd_Project/sifive_hifive1_BitNet_MNIST_App/freedom-metal/src/drivers/sifive_fe310-g000_pll.c:313
    __METAL_ACCESS_ONCE(pllcfg) &= ~(PLL_BYPASS);
2010e676:	fdc42783          	lw	a5,-36(s0)
2010e67a:	4398                	lw	a4,0(a5)
2010e67c:	fffc07b7          	lui	a5,0xfffc0
2010e680:	17fd                	add	a5,a5,-1 # fffbffff <metal_segment_heap_target_end+0x7ffbe77f>
2010e682:	8f7d                	and	a4,a4,a5
2010e684:	fdc42783          	lw	a5,-36(s0)
2010e688:	c398                	sw	a4,0(a5)
C:/VSD_Sqd_Project/sifive_hifive1_BitNet_MNIST_App/freedom-metal/src/drivers/sifive_fe310-g000_pll.c:318
    __metal_driver_riscv_clint0_command_request(__METAL_DT_RISCV_CLINT0_HANDLE,
2010e68a:	fe040793          	add	a5,s0,-32
2010e68e:	863e                	mv	a2,a5
2010e690:	4585                	li	a1,1
2010e692:	800017b7          	lui	a5,0x80001
2010e696:	a7c78513          	add	a0,a5,-1412 # 80000a7c <__metal_dt_clint_2000000>
2010e69a:	c72fd0ef          	jal	2010bb0c <__metal_driver_riscv_clint0_command_request>
C:/VSD_Sqd_Project/sifive_hifive1_BitNet_MNIST_App/freedom-metal/src/drivers/sifive_fe310-g000_pll.c:320
    mtime_end = mtime + PLL_LOCK_WAIT_TICKS;
2010e69e:	fe042603          	lw	a2,-32(s0)
2010e6a2:	fe442683          	lw	a3,-28(s0)
2010e6a6:	4511                	li	a0,4
2010e6a8:	4581                	li	a1,0
2010e6aa:	00a60733          	add	a4,a2,a0
2010e6ae:	883a                	mv	a6,a4
2010e6b0:	00c83833          	sltu	a6,a6,a2
2010e6b4:	00b687b3          	add	a5,a3,a1
2010e6b8:	00f806b3          	add	a3,a6,a5
2010e6bc:	87b6                	mv	a5,a3
2010e6be:	fee42423          	sw	a4,-24(s0)
2010e6c2:	fef42623          	sw	a5,-20(s0)
C:/VSD_Sqd_Project/sifive_hifive1_BitNet_MNIST_App/freedom-metal/src/drivers/sifive_fe310-g000_pll.c:321
    while (mtime <= mtime_end) {
2010e6c6:	a819                	j	2010e6dc <configure_pll+0x172>
C:/VSD_Sqd_Project/sifive_hifive1_BitNet_MNIST_App/freedom-metal/src/drivers/sifive_fe310-g000_pll.c:322
        __metal_driver_riscv_clint0_command_request(
2010e6c8:	fe040793          	add	a5,s0,-32
2010e6cc:	863e                	mv	a2,a5
2010e6ce:	4585                	li	a1,1
2010e6d0:	800017b7          	lui	a5,0x80001
2010e6d4:	a7c78513          	add	a0,a5,-1412 # 80000a7c <__metal_dt_clint_2000000>
2010e6d8:	c34fd0ef          	jal	2010bb0c <__metal_driver_riscv_clint0_command_request>
C:/VSD_Sqd_Project/sifive_hifive1_BitNet_MNIST_App/freedom-metal/src/drivers/sifive_fe310-g000_pll.c:321
    while (mtime <= mtime_end) {
2010e6dc:	fe042703          	lw	a4,-32(s0)
2010e6e0:	fe442783          	lw	a5,-28(s0)
2010e6e4:	fec42683          	lw	a3,-20(s0)
2010e6e8:	863e                	mv	a2,a5
2010e6ea:	00c6ec63          	bltu	a3,a2,2010e702 <configure_pll+0x198>
2010e6ee:	fec42683          	lw	a3,-20(s0)
2010e6f2:	863e                	mv	a2,a5
2010e6f4:	fcc69ae3          	bne	a3,a2,2010e6c8 <configure_pll+0x15e>
2010e6f8:	fe842683          	lw	a3,-24(s0)
2010e6fc:	87ba                	mv	a5,a4
2010e6fe:	fcf6f5e3          	bgeu	a3,a5,2010e6c8 <configure_pll+0x15e>
C:/VSD_Sqd_Project/sifive_hifive1_BitNet_MNIST_App/freedom-metal/src/drivers/sifive_fe310-g000_pll.c:340
    while ((__METAL_ACCESS_ONCE(pllcfg) & PLL_LOCK) == 0)
2010e702:	0001                	nop
C:/VSD_Sqd_Project/sifive_hifive1_BitNet_MNIST_App/freedom-metal/src/drivers/sifive_fe310-g000_pll.c:340 (discriminator 1)
2010e704:	fdc42783          	lw	a5,-36(s0)
2010e708:	439c                	lw	a5,0(a5)
2010e70a:	fe07dde3          	bgez	a5,2010e704 <configure_pll+0x19a>
C:/VSD_Sqd_Project/sifive_hifive1_BitNet_MNIST_App/freedom-metal/src/drivers/sifive_fe310-g000_pll.c:342
}
2010e70e:	0001                	nop
2010e710:	0001                	nop
2010e712:	50b2                	lw	ra,44(sp)
2010e714:	5422                	lw	s0,40(sp)
2010e716:	6145                	add	sp,sp,48
2010e718:	8082                	ret

2010e71a <__metal_driver_sifive_fe310_g000_pll_set_rate_hz>:
__metal_driver_sifive_fe310_g000_pll_set_rate_hz():
C:/VSD_Sqd_Project/sifive_hifive1_BitNet_MNIST_App/freedom-metal/src/drivers/sifive_fe310-g000_pll.c:345
                                                      long rate) {
2010e71a:	715d                	add	sp,sp,-80
2010e71c:	c686                	sw	ra,76(sp)
2010e71e:	c4a2                	sw	s0,72(sp)
2010e720:	0880                	add	s0,sp,80
2010e722:	faa42e23          	sw	a0,-68(s0)
2010e726:	fab42c23          	sw	a1,-72(s0)
C:/VSD_Sqd_Project/sifive_hifive1_BitNet_MNIST_App/freedom-metal/src/drivers/sifive_fe310-g000_pll.c:347
        __metal_driver_sifive_fe310_g000_pll_pllref(clock);
2010e72a:	fbc42503          	lw	a0,-68(s0)
2010e72e:	a8bff0ef          	jal	2010e1b8 <__metal_driver_sifive_fe310_g000_pll_pllref>
2010e732:	fea42623          	sw	a0,-20(s0)
C:/VSD_Sqd_Project/sifive_hifive1_BitNet_MNIST_App/freedom-metal/src/drivers/sifive_fe310-g000_pll.c:349
        __metal_driver_sifive_fe310_g000_pll_pllsel0(clock);
2010e736:	fbc42503          	lw	a0,-68(s0)
2010e73a:	a65ff0ef          	jal	2010e19e <__metal_driver_sifive_fe310_g000_pll_pllsel0>
2010e73e:	fea42423          	sw	a0,-24(s0)
C:/VSD_Sqd_Project/sifive_hifive1_BitNet_MNIST_App/freedom-metal/src/drivers/sifive_fe310-g000_pll.c:351
        __metal_driver_sifive_fe310_g000_pll_config_offset(clock);
2010e742:	fbc42503          	lw	a0,-68(s0)
2010e746:	ac9ff0ef          	jal	2010e20e <__metal_driver_sifive_fe310_g000_pll_config_offset>
2010e74a:	fea42223          	sw	a0,-28(s0)
C:/VSD_Sqd_Project/sifive_hifive1_BitNet_MNIST_App/freedom-metal/src/drivers/sifive_fe310-g000_pll.c:353
        __metal_driver_sifive_fe310_g000_pll_divider_offset(clock);
2010e74e:	fbc42503          	lw	a0,-68(s0)
2010e752:	a97ff0ef          	jal	2010e1e8 <__metal_driver_sifive_fe310_g000_pll_divider_offset>
2010e756:	fea42023          	sw	a0,-32(s0)
C:/VSD_Sqd_Project/sifive_hifive1_BitNet_MNIST_App/freedom-metal/src/drivers/sifive_fe310-g000_pll.c:354
    long base = __metal_driver_sifive_fe310_g000_prci_base();
2010e75a:	adbff0ef          	jal	2010e234 <__metal_driver_sifive_fe310_g000_prci_base>
2010e75e:	fca42e23          	sw	a0,-36(s0)
C:/VSD_Sqd_Project/sifive_hifive1_BitNet_MNIST_App/freedom-metal/src/drivers/sifive_fe310-g000_pll.c:356
    __metal_io_u32 *pllcfg = (__metal_io_u32 *)(base + config_offset);
2010e762:	fdc42703          	lw	a4,-36(s0)
2010e766:	fe442783          	lw	a5,-28(s0)
2010e76a:	97ba                	add	a5,a5,a4
2010e76c:	fcf42c23          	sw	a5,-40(s0)
C:/VSD_Sqd_Project/sifive_hifive1_BitNet_MNIST_App/freedom-metal/src/drivers/sifive_fe310-g000_pll.c:357
    __metal_io_u32 *plloutdiv = (__metal_io_u32 *)(base + divider_offset);
2010e770:	fdc42703          	lw	a4,-36(s0)
2010e774:	fe042783          	lw	a5,-32(s0)
2010e778:	97ba                	add	a5,a5,a4
2010e77a:	fcf42a23          	sw	a5,-44(s0)
C:/VSD_Sqd_Project/sifive_hifive1_BitNet_MNIST_App/freedom-metal/src/drivers/sifive_fe310-g000_pll.c:360
    if (__METAL_ACCESS_ONCE(pllcfg) & PLL_SEL)
2010e77e:	fd842783          	lw	a5,-40(s0)
2010e782:	4398                	lw	a4,0(a5)
2010e784:	67c1                	lui	a5,0x10
2010e786:	8ff9                	and	a5,a5,a4
2010e788:	cb91                	beqz	a5,2010e79c <__metal_driver_sifive_fe310_g000_pll_set_rate_hz+0x82>
C:/VSD_Sqd_Project/sifive_hifive1_BitNet_MNIST_App/freedom-metal/src/drivers/sifive_fe310-g000_pll.c:361
        __METAL_ACCESS_ONCE(pllcfg) &= ~(PLL_SEL);
2010e78a:	fd842783          	lw	a5,-40(s0)
2010e78e:	4398                	lw	a4,0(a5)
2010e790:	77c1                	lui	a5,0xffff0
2010e792:	17fd                	add	a5,a5,-1 # fffeffff <metal_segment_heap_target_end+0x7ffee77f>
2010e794:	8f7d                	and	a4,a4,a5
2010e796:	fd842783          	lw	a5,-40(s0)
2010e79a:	c398                	sw	a4,0(a5)
C:/VSD_Sqd_Project/sifive_hifive1_BitNet_MNIST_App/freedom-metal/src/drivers/sifive_fe310-g000_pll.c:366
        __METAL_ACCESS_ONCE(pllcfg) & PLL_REFSEL ? pllref : pllsel0);
2010e79c:	fd842783          	lw	a5,-40(s0)
2010e7a0:	4398                	lw	a4,0(a5)
2010e7a2:	000207b7          	lui	a5,0x20
2010e7a6:	8ff9                	and	a5,a5,a4
C:/VSD_Sqd_Project/sifive_hifive1_BitNet_MNIST_App/freedom-metal/src/drivers/sifive_fe310-g000_pll.c:365
    long ref_hz = metal_clock_get_rate_hz(
2010e7a8:	c781                	beqz	a5,2010e7b0 <__metal_driver_sifive_fe310_g000_pll_set_rate_hz+0x96>
C:/VSD_Sqd_Project/sifive_hifive1_BitNet_MNIST_App/freedom-metal/src/drivers/sifive_fe310-g000_pll.c:365 (discriminator 1)
2010e7aa:	fec42783          	lw	a5,-20(s0)
2010e7ae:	a019                	j	2010e7b4 <__metal_driver_sifive_fe310_g000_pll_set_rate_hz+0x9a>
C:/VSD_Sqd_Project/sifive_hifive1_BitNet_MNIST_App/freedom-metal/src/drivers/sifive_fe310-g000_pll.c:365 (discriminator 2)
2010e7b0:	fe842783          	lw	a5,-24(s0)
C:/VSD_Sqd_Project/sifive_hifive1_BitNet_MNIST_App/freedom-metal/src/drivers/sifive_fe310-g000_pll.c:365 (discriminator 4)
2010e7b4:	853e                	mv	a0,a5
2010e7b6:	132010ef          	jal	2010f8e8 <metal_clock_get_rate_hz>
2010e7ba:	fca42823          	sw	a0,-48(s0)
C:/VSD_Sqd_Project/sifive_hifive1_BitNet_MNIST_App/freedom-metal/src/drivers/sifive_fe310-g000_pll.c:370
    if ((ref_hz * 3 / 4) <= rate && (ref_hz * 5 / 4) >= rate) {
2010e7be:	fd042703          	lw	a4,-48(s0)
2010e7c2:	87ba                	mv	a5,a4
2010e7c4:	0786                	sll	a5,a5,0x1
2010e7c6:	97ba                	add	a5,a5,a4
2010e7c8:	41f7d713          	sra	a4,a5,0x1f
2010e7cc:	8b0d                	and	a4,a4,3
2010e7ce:	97ba                	add	a5,a5,a4
2010e7d0:	8789                	sra	a5,a5,0x2
2010e7d2:	873e                	mv	a4,a5
2010e7d4:	fb842783          	lw	a5,-72(s0)
2010e7d8:	02e7cb63          	blt	a5,a4,2010e80e <__metal_driver_sifive_fe310_g000_pll_set_rate_hz+0xf4>
C:/VSD_Sqd_Project/sifive_hifive1_BitNet_MNIST_App/freedom-metal/src/drivers/sifive_fe310-g000_pll.c:370 (discriminator 1)
2010e7dc:	fd042703          	lw	a4,-48(s0)
2010e7e0:	87ba                	mv	a5,a4
2010e7e2:	078a                	sll	a5,a5,0x2
2010e7e4:	97ba                	add	a5,a5,a4
2010e7e6:	41f7d713          	sra	a4,a5,0x1f
2010e7ea:	8b0d                	and	a4,a4,3
2010e7ec:	97ba                	add	a5,a5,a4
2010e7ee:	8789                	sra	a5,a5,0x2
2010e7f0:	873e                	mv	a4,a5
2010e7f2:	fb842783          	lw	a5,-72(s0)
2010e7f6:	00f74c63          	blt	a4,a5,2010e80e <__metal_driver_sifive_fe310_g000_pll_set_rate_hz+0xf4>
C:/VSD_Sqd_Project/sifive_hifive1_BitNet_MNIST_App/freedom-metal/src/drivers/sifive_fe310-g000_pll.c:371
        __METAL_ACCESS_ONCE(pllcfg) |= PLL_BYPASS;
2010e7fa:	fd842783          	lw	a5,-40(s0)
2010e7fe:	4398                	lw	a4,0(a5)
2010e800:	000407b7          	lui	a5,0x40
2010e804:	8f5d                	or	a4,a4,a5
2010e806:	fd842783          	lw	a5,-40(s0)
2010e80a:	c398                	sw	a4,0(a5)
2010e80c:	a881                	j	2010e85c <__metal_driver_sifive_fe310_g000_pll_set_rate_hz+0x142>
C:/VSD_Sqd_Project/sifive_hifive1_BitNet_MNIST_App/freedom-metal/src/drivers/sifive_fe310-g000_pll.c:373
        int config_index = find_closest_config(ref_hz, rate);
2010e80e:	fb842583          	lw	a1,-72(s0)
2010e812:	fd042503          	lw	a0,-48(s0)
2010e816:	cabff0ef          	jal	2010e4c0 <find_closest_config>
2010e81a:	fca42623          	sw	a0,-52(s0)
C:/VSD_Sqd_Project/sifive_hifive1_BitNet_MNIST_App/freedom-metal/src/drivers/sifive_fe310-g000_pll.c:374
        if (config_index != -1) {
2010e81e:	fcc42703          	lw	a4,-52(s0)
2010e822:	57fd                	li	a5,-1
2010e824:	02f70363          	beq	a4,a5,2010e84a <__metal_driver_sifive_fe310_g000_pll_set_rate_hz+0x130>
C:/VSD_Sqd_Project/sifive_hifive1_BitNet_MNIST_App/freedom-metal/src/drivers/sifive_fe310-g000_pll.c:375
            configure_pll(pllcfg, plloutdiv, &(pll_configs[config_index]));
2010e828:	fcc42783          	lw	a5,-52(s0)
2010e82c:	00579713          	sll	a4,a5,0x5
2010e830:	201097b7          	lui	a5,0x20109
2010e834:	be478793          	add	a5,a5,-1052 # 20108be4 <pll_configs>
2010e838:	97ba                	add	a5,a5,a4
2010e83a:	863e                	mv	a2,a5
2010e83c:	fd442583          	lw	a1,-44(s0)
2010e840:	fd842503          	lw	a0,-40(s0)
2010e844:	d27ff0ef          	jal	2010e56a <configure_pll>
2010e848:	a811                	j	2010e85c <__metal_driver_sifive_fe310_g000_pll_set_rate_hz+0x142>
C:/VSD_Sqd_Project/sifive_hifive1_BitNet_MNIST_App/freedom-metal/src/drivers/sifive_fe310-g000_pll.c:378
            __METAL_ACCESS_ONCE(pllcfg) |= PLL_BYPASS;
2010e84a:	fd842783          	lw	a5,-40(s0)
2010e84e:	4398                	lw	a4,0(a5)
2010e850:	000407b7          	lui	a5,0x40
2010e854:	8f5d                	or	a4,a4,a5
2010e856:	fd842783          	lw	a5,-40(s0)
2010e85a:	c398                	sw	a4,0(a5)
C:/VSD_Sqd_Project/sifive_hifive1_BitNet_MNIST_App/freedom-metal/src/drivers/sifive_fe310-g000_pll.c:383
    __METAL_ACCESS_ONCE(pllcfg) |= PLL_SEL;
2010e85c:	fd842783          	lw	a5,-40(s0)
2010e860:	4398                	lw	a4,0(a5)
2010e862:	67c1                	lui	a5,0x10
2010e864:	8f5d                	or	a4,a4,a5
2010e866:	fd842783          	lw	a5,-40(s0)
2010e86a:	c398                	sw	a4,0(a5)
C:/VSD_Sqd_Project/sifive_hifive1_BitNet_MNIST_App/freedom-metal/src/drivers/sifive_fe310-g000_pll.c:385
    return __metal_driver_sifive_fe310_g000_pll_get_rate_hz(clock);
2010e86c:	fbc42503          	lw	a0,-68(s0)
2010e870:	adfff0ef          	jal	2010e34e <__metal_driver_sifive_fe310_g000_pll_get_rate_hz>
2010e874:	87aa                	mv	a5,a0
C:/VSD_Sqd_Project/sifive_hifive1_BitNet_MNIST_App/freedom-metal/src/drivers/sifive_fe310-g000_pll.c:386
}
2010e876:	853e                	mv	a0,a5
2010e878:	40b6                	lw	ra,76(sp)
2010e87a:	4426                	lw	s0,72(sp)
2010e87c:	6161                	add	sp,sp,80
2010e87e:	8082                	ret

2010e880 <__metal_driver_sifive_fe310_g000_prci_base>:
__metal_driver_sifive_fe310_g000_prci_base():
C:\VSD_Sqd_Project\sifive_hifive1_BitNet_MNIST_App\bsp\build\debug/./metal/machine.h:1229
{
2010e880:	1141                	add	sp,sp,-16
2010e882:	c622                	sw	s0,12(sp)
2010e884:	0800                	add	s0,sp,16
C:\VSD_Sqd_Project\sifive_hifive1_BitNet_MNIST_App\bsp\build\debug/./metal/machine.h:1230
		return METAL_SIFIVE_FE310_G000_PRCI_10008000_BASE_ADDRESS;
2010e886:	100087b7          	lui	a5,0x10008
C:\VSD_Sqd_Project\sifive_hifive1_BitNet_MNIST_App\bsp\build\debug/./metal/machine.h:1231
}
2010e88a:	853e                	mv	a0,a5
2010e88c:	4432                	lw	s0,12(sp)
2010e88e:	0141                	add	sp,sp,16
2010e890:	8082                	ret

2010e892 <__metal_driver_sifive_fe310_g000_prci_get_reg>:
__metal_driver_sifive_fe310_g000_prci_get_reg():
C:/VSD_Sqd_Project/sifive_hifive1_BitNet_MNIST_App/freedom-metal/src/drivers/sifive_fe310-g000_prci.c:12

#include <metal/drivers/sifive_fe310-g000_prci.h>
#include <metal/machine.h>

long __metal_driver_sifive_fe310_g000_prci_get_reg(
    const struct __metal_driver_sifive_fe310_g000_prci *prci, long offset) {
2010e892:	7179                	add	sp,sp,-48
2010e894:	d606                	sw	ra,44(sp)
2010e896:	d422                	sw	s0,40(sp)
2010e898:	1800                	add	s0,sp,48
2010e89a:	fca42e23          	sw	a0,-36(s0)
2010e89e:	fcb42c23          	sw	a1,-40(s0)
C:/VSD_Sqd_Project/sifive_hifive1_BitNet_MNIST_App/freedom-metal/src/drivers/sifive_fe310-g000_prci.c:13
    unsigned long base = __metal_driver_sifive_fe310_g000_prci_base();
2010e8a2:	3ff9                	jal	2010e880 <__metal_driver_sifive_fe310_g000_prci_base>
2010e8a4:	87aa                	mv	a5,a0
C:/VSD_Sqd_Project/sifive_hifive1_BitNet_MNIST_App/freedom-metal/src/drivers/sifive_fe310-g000_prci.c:13 (discriminator 1)
2010e8a6:	fef42623          	sw	a5,-20(s0)
C:/VSD_Sqd_Project/sifive_hifive1_BitNet_MNIST_App/freedom-metal/src/drivers/sifive_fe310-g000_prci.c:14
    return __METAL_ACCESS_ONCE((__metal_io_u32 *)(base + offset));
2010e8aa:	fd842703          	lw	a4,-40(s0)
2010e8ae:	fec42783          	lw	a5,-20(s0)
2010e8b2:	97ba                	add	a5,a5,a4
2010e8b4:	439c                	lw	a5,0(a5)
C:/VSD_Sqd_Project/sifive_hifive1_BitNet_MNIST_App/freedom-metal/src/drivers/sifive_fe310-g000_prci.c:15
}
2010e8b6:	853e                	mv	a0,a5
2010e8b8:	50b2                	lw	ra,44(sp)
2010e8ba:	5422                	lw	s0,40(sp)
2010e8bc:	6145                	add	sp,sp,48
2010e8be:	8082                	ret

2010e8c0 <__metal_driver_sifive_fe310_g000_prci_set_reg>:
__metal_driver_sifive_fe310_g000_prci_set_reg():
C:/VSD_Sqd_Project/sifive_hifive1_BitNet_MNIST_App/freedom-metal/src/drivers/sifive_fe310-g000_prci.c:19

long __metal_driver_sifive_fe310_g000_prci_set_reg(
    const struct __metal_driver_sifive_fe310_g000_prci *prci, long offset,
    long value) {
2010e8c0:	7179                	add	sp,sp,-48
2010e8c2:	d606                	sw	ra,44(sp)
2010e8c4:	d422                	sw	s0,40(sp)
2010e8c6:	1800                	add	s0,sp,48
2010e8c8:	fca42e23          	sw	a0,-36(s0)
2010e8cc:	fcb42c23          	sw	a1,-40(s0)
2010e8d0:	fcc42a23          	sw	a2,-44(s0)
C:/VSD_Sqd_Project/sifive_hifive1_BitNet_MNIST_App/freedom-metal/src/drivers/sifive_fe310-g000_prci.c:20
    unsigned long base = __metal_driver_sifive_fe310_g000_prci_base();
2010e8d4:	3775                	jal	2010e880 <__metal_driver_sifive_fe310_g000_prci_base>
2010e8d6:	87aa                	mv	a5,a0
C:/VSD_Sqd_Project/sifive_hifive1_BitNet_MNIST_App/freedom-metal/src/drivers/sifive_fe310-g000_prci.c:20 (discriminator 1)
2010e8d8:	fef42623          	sw	a5,-20(s0)
C:/VSD_Sqd_Project/sifive_hifive1_BitNet_MNIST_App/freedom-metal/src/drivers/sifive_fe310-g000_prci.c:21
    return __METAL_ACCESS_ONCE((__metal_io_u32 *)(base + offset)) = value;
2010e8dc:	fd842703          	lw	a4,-40(s0)
2010e8e0:	fec42783          	lw	a5,-20(s0)
2010e8e4:	97ba                	add	a5,a5,a4
2010e8e6:	873e                	mv	a4,a5
2010e8e8:	fd442783          	lw	a5,-44(s0)
2010e8ec:	c31c                	sw	a5,0(a4)
C:/VSD_Sqd_Project/sifive_hifive1_BitNet_MNIST_App/freedom-metal/src/drivers/sifive_fe310-g000_prci.c:22
}
2010e8ee:	853e                	mv	a0,a5
2010e8f0:	50b2                	lw	ra,44(sp)
2010e8f2:	5422                	lw	s0,40(sp)
2010e8f4:	6145                	add	sp,sp,48
2010e8f6:	8082                	ret

2010e8f8 <__metal_driver_sifive_gpio0_base>:
__metal_driver_sifive_gpio0_base():
C:\VSD_Sqd_Project\sifive_hifive1_BitNet_MNIST_App\bsp\build\debug/./metal/machine.h:480
{
2010e8f8:	1101                	add	sp,sp,-32
2010e8fa:	ce22                	sw	s0,28(sp)
2010e8fc:	1000                	add	s0,sp,32
2010e8fe:	fea42623          	sw	a0,-20(s0)
C:\VSD_Sqd_Project\sifive_hifive1_BitNet_MNIST_App\bsp\build\debug/./metal/machine.h:481
	if ((uintptr_t)gpio == (uintptr_t)&__metal_dt_gpio_10012000) {
2010e902:	fec42703          	lw	a4,-20(s0)
2010e906:	81c18793          	add	a5,gp,-2020 # 80000a8c <__metal_dt_gpio_10012000>
2010e90a:	00f71563          	bne	a4,a5,2010e914 <__metal_driver_sifive_gpio0_base+0x1c>
C:\VSD_Sqd_Project\sifive_hifive1_BitNet_MNIST_App\bsp\build\debug/./metal/machine.h:482
		return METAL_SIFIVE_GPIO0_10012000_BASE_ADDRESS;
2010e90e:	100127b7          	lui	a5,0x10012
2010e912:	a011                	j	2010e916 <__metal_driver_sifive_gpio0_base+0x1e>
C:\VSD_Sqd_Project\sifive_hifive1_BitNet_MNIST_App\bsp\build\debug/./metal/machine.h:485
		return 0;
2010e914:	4781                	li	a5,0
C:\VSD_Sqd_Project\sifive_hifive1_BitNet_MNIST_App\bsp\build\debug/./metal/machine.h:487
}
2010e916:	853e                	mv	a0,a5
2010e918:	4472                	lw	s0,28(sp)
2010e91a:	6105                	add	sp,sp,32
2010e91c:	8082                	ret

2010e91e <__metal_driver_sifive_gpio0_interrupt_parent>:
__metal_driver_sifive_gpio0_interrupt_parent():
C:\VSD_Sqd_Project\sifive_hifive1_BitNet_MNIST_App\bsp\build\debug/./metal/machine.h:510
{
2010e91e:	1101                	add	sp,sp,-32
2010e920:	ce22                	sw	s0,28(sp)
2010e922:	1000                	add	s0,sp,32
2010e924:	fea42623          	sw	a0,-20(s0)
C:\VSD_Sqd_Project\sifive_hifive1_BitNet_MNIST_App\bsp\build\debug/./metal/machine.h:511
	if ((uintptr_t)gpio == (uintptr_t)&__metal_dt_gpio_10012000) {
2010e928:	fec42703          	lw	a4,-20(s0)
2010e92c:	81c18793          	add	a5,gp,-2020 # 80000a8c <__metal_dt_gpio_10012000>
2010e930:	00f71763          	bne	a4,a5,2010e93e <__metal_driver_sifive_gpio0_interrupt_parent+0x20>
C:\VSD_Sqd_Project\sifive_hifive1_BitNet_MNIST_App\bsp\build\debug/./metal/machine.h:512
		return (struct metal_interrupt *)&__metal_dt_interrupt_controller_c000000.controller;
2010e934:	800007b7          	lui	a5,0x80000
2010e938:	45078793          	add	a5,a5,1104 # 80000450 <__metal_dt_interrupt_controller_c000000>
2010e93c:	a011                	j	2010e940 <__metal_driver_sifive_gpio0_interrupt_parent+0x22>
C:\VSD_Sqd_Project\sifive_hifive1_BitNet_MNIST_App\bsp\build\debug/./metal/machine.h:515
		return 0;
2010e93e:	4781                	li	a5,0
C:\VSD_Sqd_Project\sifive_hifive1_BitNet_MNIST_App\bsp\build\debug/./metal/machine.h:517
}
2010e940:	853e                	mv	a0,a5
2010e942:	4472                	lw	s0,28(sp)
2010e944:	6105                	add	sp,sp,32
2010e946:	8082                	ret

2010e948 <__metal_driver_sifive_gpio0_interrupt_lines>:
__metal_driver_sifive_gpio0_interrupt_lines():
C:\VSD_Sqd_Project\sifive_hifive1_BitNet_MNIST_App\bsp\build\debug/./metal/machine.h:520
{
2010e948:	1101                	add	sp,sp,-32
2010e94a:	ce22                	sw	s0,28(sp)
2010e94c:	1000                	add	s0,sp,32
2010e94e:	fea42623          	sw	a0,-20(s0)
2010e952:	feb42423          	sw	a1,-24(s0)
C:\VSD_Sqd_Project\sifive_hifive1_BitNet_MNIST_App\bsp\build\debug/./metal/machine.h:521
	if (((uintptr_t)gpio == (uintptr_t)&__metal_dt_gpio_10012000) && (idx == 0)) {
2010e956:	fec42703          	lw	a4,-20(s0)
2010e95a:	81c18793          	add	a5,gp,-2020 # 80000a8c <__metal_dt_gpio_10012000>
2010e95e:	00f71763          	bne	a4,a5,2010e96c <__metal_driver_sifive_gpio0_interrupt_lines+0x24>
C:\VSD_Sqd_Project\sifive_hifive1_BitNet_MNIST_App\bsp\build\debug/./metal/machine.h:521 (discriminator 1)
2010e962:	fe842783          	lw	a5,-24(s0)
2010e966:	e399                	bnez	a5,2010e96c <__metal_driver_sifive_gpio0_interrupt_lines+0x24>
C:\VSD_Sqd_Project\sifive_hifive1_BitNet_MNIST_App\bsp\build\debug/./metal/machine.h:522
		return 7;
2010e968:	479d                	li	a5,7
2010e96a:	a269                	j	2010eaf4 <__metal_driver_sifive_gpio0_interrupt_lines+0x1ac>
C:\VSD_Sqd_Project\sifive_hifive1_BitNet_MNIST_App\bsp\build\debug/./metal/machine.h:524
	else if ((((uintptr_t)gpio == (uintptr_t)&__metal_dt_gpio_10012000) && (idx == 1))) {
2010e96c:	fec42703          	lw	a4,-20(s0)
2010e970:	81c18793          	add	a5,gp,-2020 # 80000a8c <__metal_dt_gpio_10012000>
2010e974:	00f71963          	bne	a4,a5,2010e986 <__metal_driver_sifive_gpio0_interrupt_lines+0x3e>
C:\VSD_Sqd_Project\sifive_hifive1_BitNet_MNIST_App\bsp\build\debug/./metal/machine.h:524 (discriminator 1)
2010e978:	fe842703          	lw	a4,-24(s0)
2010e97c:	4785                	li	a5,1
2010e97e:	00f71463          	bne	a4,a5,2010e986 <__metal_driver_sifive_gpio0_interrupt_lines+0x3e>
C:\VSD_Sqd_Project\sifive_hifive1_BitNet_MNIST_App\bsp\build\debug/./metal/machine.h:525
		return 8;
2010e982:	47a1                	li	a5,8
2010e984:	aa85                	j	2010eaf4 <__metal_driver_sifive_gpio0_interrupt_lines+0x1ac>
C:\VSD_Sqd_Project\sifive_hifive1_BitNet_MNIST_App\bsp\build\debug/./metal/machine.h:527
	else if ((((uintptr_t)gpio == (uintptr_t)&__metal_dt_gpio_10012000) && (idx == 2))) {
2010e986:	fec42703          	lw	a4,-20(s0)
2010e98a:	81c18793          	add	a5,gp,-2020 # 80000a8c <__metal_dt_gpio_10012000>
2010e98e:	00f71963          	bne	a4,a5,2010e9a0 <__metal_driver_sifive_gpio0_interrupt_lines+0x58>
C:\VSD_Sqd_Project\sifive_hifive1_BitNet_MNIST_App\bsp\build\debug/./metal/machine.h:527 (discriminator 1)
2010e992:	fe842703          	lw	a4,-24(s0)
2010e996:	4789                	li	a5,2
2010e998:	00f71463          	bne	a4,a5,2010e9a0 <__metal_driver_sifive_gpio0_interrupt_lines+0x58>
C:\VSD_Sqd_Project\sifive_hifive1_BitNet_MNIST_App\bsp\build\debug/./metal/machine.h:528
		return 9;
2010e99c:	47a5                	li	a5,9
2010e99e:	aa99                	j	2010eaf4 <__metal_driver_sifive_gpio0_interrupt_lines+0x1ac>
C:\VSD_Sqd_Project\sifive_hifive1_BitNet_MNIST_App\bsp\build\debug/./metal/machine.h:530
	else if ((((uintptr_t)gpio == (uintptr_t)&__metal_dt_gpio_10012000) && (idx == 3))) {
2010e9a0:	fec42703          	lw	a4,-20(s0)
2010e9a4:	81c18793          	add	a5,gp,-2020 # 80000a8c <__metal_dt_gpio_10012000>
2010e9a8:	00f71963          	bne	a4,a5,2010e9ba <__metal_driver_sifive_gpio0_interrupt_lines+0x72>
C:\VSD_Sqd_Project\sifive_hifive1_BitNet_MNIST_App\bsp\build\debug/./metal/machine.h:530 (discriminator 1)
2010e9ac:	fe842703          	lw	a4,-24(s0)
2010e9b0:	478d                	li	a5,3
2010e9b2:	00f71463          	bne	a4,a5,2010e9ba <__metal_driver_sifive_gpio0_interrupt_lines+0x72>
C:\VSD_Sqd_Project\sifive_hifive1_BitNet_MNIST_App\bsp\build\debug/./metal/machine.h:531
		return 10;
2010e9b6:	47a9                	li	a5,10
2010e9b8:	aa35                	j	2010eaf4 <__metal_driver_sifive_gpio0_interrupt_lines+0x1ac>
C:\VSD_Sqd_Project\sifive_hifive1_BitNet_MNIST_App\bsp\build\debug/./metal/machine.h:533
	else if ((((uintptr_t)gpio == (uintptr_t)&__metal_dt_gpio_10012000) && (idx == 4))) {
2010e9ba:	fec42703          	lw	a4,-20(s0)
2010e9be:	81c18793          	add	a5,gp,-2020 # 80000a8c <__metal_dt_gpio_10012000>
2010e9c2:	00f71963          	bne	a4,a5,2010e9d4 <__metal_driver_sifive_gpio0_interrupt_lines+0x8c>
C:\VSD_Sqd_Project\sifive_hifive1_BitNet_MNIST_App\bsp\build\debug/./metal/machine.h:533 (discriminator 1)
2010e9c6:	fe842703          	lw	a4,-24(s0)
2010e9ca:	4791                	li	a5,4
2010e9cc:	00f71463          	bne	a4,a5,2010e9d4 <__metal_driver_sifive_gpio0_interrupt_lines+0x8c>
C:\VSD_Sqd_Project\sifive_hifive1_BitNet_MNIST_App\bsp\build\debug/./metal/machine.h:534
		return 11;
2010e9d0:	47ad                	li	a5,11
2010e9d2:	a20d                	j	2010eaf4 <__metal_driver_sifive_gpio0_interrupt_lines+0x1ac>
C:\VSD_Sqd_Project\sifive_hifive1_BitNet_MNIST_App\bsp\build\debug/./metal/machine.h:536
	else if ((((uintptr_t)gpio == (uintptr_t)&__metal_dt_gpio_10012000) && (idx == 5))) {
2010e9d4:	fec42703          	lw	a4,-20(s0)
2010e9d8:	81c18793          	add	a5,gp,-2020 # 80000a8c <__metal_dt_gpio_10012000>
2010e9dc:	00f71963          	bne	a4,a5,2010e9ee <__metal_driver_sifive_gpio0_interrupt_lines+0xa6>
C:\VSD_Sqd_Project\sifive_hifive1_BitNet_MNIST_App\bsp\build\debug/./metal/machine.h:536 (discriminator 1)
2010e9e0:	fe842703          	lw	a4,-24(s0)
2010e9e4:	4795                	li	a5,5
2010e9e6:	00f71463          	bne	a4,a5,2010e9ee <__metal_driver_sifive_gpio0_interrupt_lines+0xa6>
C:\VSD_Sqd_Project\sifive_hifive1_BitNet_MNIST_App\bsp\build\debug/./metal/machine.h:537
		return 12;
2010e9ea:	47b1                	li	a5,12
2010e9ec:	a221                	j	2010eaf4 <__metal_driver_sifive_gpio0_interrupt_lines+0x1ac>
C:\VSD_Sqd_Project\sifive_hifive1_BitNet_MNIST_App\bsp\build\debug/./metal/machine.h:539
	else if ((((uintptr_t)gpio == (uintptr_t)&__metal_dt_gpio_10012000) && (idx == 6))) {
2010e9ee:	fec42703          	lw	a4,-20(s0)
2010e9f2:	81c18793          	add	a5,gp,-2020 # 80000a8c <__metal_dt_gpio_10012000>
2010e9f6:	00f71963          	bne	a4,a5,2010ea08 <__metal_driver_sifive_gpio0_interrupt_lines+0xc0>
C:\VSD_Sqd_Project\sifive_hifive1_BitNet_MNIST_App\bsp\build\debug/./metal/machine.h:539 (discriminator 1)
2010e9fa:	fe842703          	lw	a4,-24(s0)
2010e9fe:	4799                	li	a5,6
2010ea00:	00f71463          	bne	a4,a5,2010ea08 <__metal_driver_sifive_gpio0_interrupt_lines+0xc0>
C:\VSD_Sqd_Project\sifive_hifive1_BitNet_MNIST_App\bsp\build\debug/./metal/machine.h:540
		return 13;
2010ea04:	47b5                	li	a5,13
2010ea06:	a0fd                	j	2010eaf4 <__metal_driver_sifive_gpio0_interrupt_lines+0x1ac>
C:\VSD_Sqd_Project\sifive_hifive1_BitNet_MNIST_App\bsp\build\debug/./metal/machine.h:542
	else if ((((uintptr_t)gpio == (uintptr_t)&__metal_dt_gpio_10012000) && (idx == 7))) {
2010ea08:	fec42703          	lw	a4,-20(s0)
2010ea0c:	81c18793          	add	a5,gp,-2020 # 80000a8c <__metal_dt_gpio_10012000>
2010ea10:	00f71963          	bne	a4,a5,2010ea22 <__metal_driver_sifive_gpio0_interrupt_lines+0xda>
C:\VSD_Sqd_Project\sifive_hifive1_BitNet_MNIST_App\bsp\build\debug/./metal/machine.h:542 (discriminator 1)
2010ea14:	fe842703          	lw	a4,-24(s0)
2010ea18:	479d                	li	a5,7
2010ea1a:	00f71463          	bne	a4,a5,2010ea22 <__metal_driver_sifive_gpio0_interrupt_lines+0xda>
C:\VSD_Sqd_Project\sifive_hifive1_BitNet_MNIST_App\bsp\build\debug/./metal/machine.h:543
		return 14;
2010ea1e:	47b9                	li	a5,14
2010ea20:	a8d1                	j	2010eaf4 <__metal_driver_sifive_gpio0_interrupt_lines+0x1ac>
C:\VSD_Sqd_Project\sifive_hifive1_BitNet_MNIST_App\bsp\build\debug/./metal/machine.h:545
	else if ((((uintptr_t)gpio == (uintptr_t)&__metal_dt_gpio_10012000) && (idx == 8))) {
2010ea22:	fec42703          	lw	a4,-20(s0)
2010ea26:	81c18793          	add	a5,gp,-2020 # 80000a8c <__metal_dt_gpio_10012000>
2010ea2a:	00f71963          	bne	a4,a5,2010ea3c <__metal_driver_sifive_gpio0_interrupt_lines+0xf4>
C:\VSD_Sqd_Project\sifive_hifive1_BitNet_MNIST_App\bsp\build\debug/./metal/machine.h:545 (discriminator 1)
2010ea2e:	fe842703          	lw	a4,-24(s0)
2010ea32:	47a1                	li	a5,8
2010ea34:	00f71463          	bne	a4,a5,2010ea3c <__metal_driver_sifive_gpio0_interrupt_lines+0xf4>
C:\VSD_Sqd_Project\sifive_hifive1_BitNet_MNIST_App\bsp\build\debug/./metal/machine.h:546
		return 15;
2010ea38:	47bd                	li	a5,15
2010ea3a:	a86d                	j	2010eaf4 <__metal_driver_sifive_gpio0_interrupt_lines+0x1ac>
C:\VSD_Sqd_Project\sifive_hifive1_BitNet_MNIST_App\bsp\build\debug/./metal/machine.h:548
	else if ((((uintptr_t)gpio == (uintptr_t)&__metal_dt_gpio_10012000) && (idx == 9))) {
2010ea3c:	fec42703          	lw	a4,-20(s0)
2010ea40:	81c18793          	add	a5,gp,-2020 # 80000a8c <__metal_dt_gpio_10012000>
2010ea44:	00f71963          	bne	a4,a5,2010ea56 <__metal_driver_sifive_gpio0_interrupt_lines+0x10e>
C:\VSD_Sqd_Project\sifive_hifive1_BitNet_MNIST_App\bsp\build\debug/./metal/machine.h:548 (discriminator 1)
2010ea48:	fe842703          	lw	a4,-24(s0)
2010ea4c:	47a5                	li	a5,9
2010ea4e:	00f71463          	bne	a4,a5,2010ea56 <__metal_driver_sifive_gpio0_interrupt_lines+0x10e>
C:\VSD_Sqd_Project\sifive_hifive1_BitNet_MNIST_App\bsp\build\debug/./metal/machine.h:549
		return 16;
2010ea52:	47c1                	li	a5,16
2010ea54:	a045                	j	2010eaf4 <__metal_driver_sifive_gpio0_interrupt_lines+0x1ac>
C:\VSD_Sqd_Project\sifive_hifive1_BitNet_MNIST_App\bsp\build\debug/./metal/machine.h:551
	else if ((((uintptr_t)gpio == (uintptr_t)&__metal_dt_gpio_10012000) && (idx == 10))) {
2010ea56:	fec42703          	lw	a4,-20(s0)
2010ea5a:	81c18793          	add	a5,gp,-2020 # 80000a8c <__metal_dt_gpio_10012000>
2010ea5e:	00f71963          	bne	a4,a5,2010ea70 <__metal_driver_sifive_gpio0_interrupt_lines+0x128>
C:\VSD_Sqd_Project\sifive_hifive1_BitNet_MNIST_App\bsp\build\debug/./metal/machine.h:551 (discriminator 1)
2010ea62:	fe842703          	lw	a4,-24(s0)
2010ea66:	47a9                	li	a5,10
2010ea68:	00f71463          	bne	a4,a5,2010ea70 <__metal_driver_sifive_gpio0_interrupt_lines+0x128>
C:\VSD_Sqd_Project\sifive_hifive1_BitNet_MNIST_App\bsp\build\debug/./metal/machine.h:552
		return 17;
2010ea6c:	47c5                	li	a5,17
2010ea6e:	a059                	j	2010eaf4 <__metal_driver_sifive_gpio0_interrupt_lines+0x1ac>
C:\VSD_Sqd_Project\sifive_hifive1_BitNet_MNIST_App\bsp\build\debug/./metal/machine.h:554
	else if ((((uintptr_t)gpio == (uintptr_t)&__metal_dt_gpio_10012000) && (idx == 11))) {
2010ea70:	fec42703          	lw	a4,-20(s0)
2010ea74:	81c18793          	add	a5,gp,-2020 # 80000a8c <__metal_dt_gpio_10012000>
2010ea78:	00f71963          	bne	a4,a5,2010ea8a <__metal_driver_sifive_gpio0_interrupt_lines+0x142>
C:\VSD_Sqd_Project\sifive_hifive1_BitNet_MNIST_App\bsp\build\debug/./metal/machine.h:554 (discriminator 1)
2010ea7c:	fe842703          	lw	a4,-24(s0)
2010ea80:	47ad                	li	a5,11
2010ea82:	00f71463          	bne	a4,a5,2010ea8a <__metal_driver_sifive_gpio0_interrupt_lines+0x142>
C:\VSD_Sqd_Project\sifive_hifive1_BitNet_MNIST_App\bsp\build\debug/./metal/machine.h:555
		return 18;
2010ea86:	47c9                	li	a5,18
2010ea88:	a0b5                	j	2010eaf4 <__metal_driver_sifive_gpio0_interrupt_lines+0x1ac>
C:\VSD_Sqd_Project\sifive_hifive1_BitNet_MNIST_App\bsp\build\debug/./metal/machine.h:557
	else if ((((uintptr_t)gpio == (uintptr_t)&__metal_dt_gpio_10012000) && (idx == 12))) {
2010ea8a:	fec42703          	lw	a4,-20(s0)
2010ea8e:	81c18793          	add	a5,gp,-2020 # 80000a8c <__metal_dt_gpio_10012000>
2010ea92:	00f71963          	bne	a4,a5,2010eaa4 <__metal_driver_sifive_gpio0_interrupt_lines+0x15c>
C:\VSD_Sqd_Project\sifive_hifive1_BitNet_MNIST_App\bsp\build\debug/./metal/machine.h:557 (discriminator 1)
2010ea96:	fe842703          	lw	a4,-24(s0)
2010ea9a:	47b1                	li	a5,12
2010ea9c:	00f71463          	bne	a4,a5,2010eaa4 <__metal_driver_sifive_gpio0_interrupt_lines+0x15c>
C:\VSD_Sqd_Project\sifive_hifive1_BitNet_MNIST_App\bsp\build\debug/./metal/machine.h:558
		return 19;
2010eaa0:	47cd                	li	a5,19
2010eaa2:	a889                	j	2010eaf4 <__metal_driver_sifive_gpio0_interrupt_lines+0x1ac>
C:\VSD_Sqd_Project\sifive_hifive1_BitNet_MNIST_App\bsp\build\debug/./metal/machine.h:560
	else if ((((uintptr_t)gpio == (uintptr_t)&__metal_dt_gpio_10012000) && (idx == 13))) {
2010eaa4:	fec42703          	lw	a4,-20(s0)
2010eaa8:	81c18793          	add	a5,gp,-2020 # 80000a8c <__metal_dt_gpio_10012000>
2010eaac:	00f71963          	bne	a4,a5,2010eabe <__metal_driver_sifive_gpio0_interrupt_lines+0x176>
C:\VSD_Sqd_Project\sifive_hifive1_BitNet_MNIST_App\bsp\build\debug/./metal/machine.h:560 (discriminator 1)
2010eab0:	fe842703          	lw	a4,-24(s0)
2010eab4:	47b5                	li	a5,13
2010eab6:	00f71463          	bne	a4,a5,2010eabe <__metal_driver_sifive_gpio0_interrupt_lines+0x176>
C:\VSD_Sqd_Project\sifive_hifive1_BitNet_MNIST_App\bsp\build\debug/./metal/machine.h:561
		return 20;
2010eaba:	47d1                	li	a5,20
2010eabc:	a825                	j	2010eaf4 <__metal_driver_sifive_gpio0_interrupt_lines+0x1ac>
C:\VSD_Sqd_Project\sifive_hifive1_BitNet_MNIST_App\bsp\build\debug/./metal/machine.h:563
	else if ((((uintptr_t)gpio == (uintptr_t)&__metal_dt_gpio_10012000) && (idx == 14))) {
2010eabe:	fec42703          	lw	a4,-20(s0)
2010eac2:	81c18793          	add	a5,gp,-2020 # 80000a8c <__metal_dt_gpio_10012000>
2010eac6:	00f71963          	bne	a4,a5,2010ead8 <__metal_driver_sifive_gpio0_interrupt_lines+0x190>
C:\VSD_Sqd_Project\sifive_hifive1_BitNet_MNIST_App\bsp\build\debug/./metal/machine.h:563 (discriminator 1)
2010eaca:	fe842703          	lw	a4,-24(s0)
2010eace:	47b9                	li	a5,14
2010ead0:	00f71463          	bne	a4,a5,2010ead8 <__metal_driver_sifive_gpio0_interrupt_lines+0x190>
C:\VSD_Sqd_Project\sifive_hifive1_BitNet_MNIST_App\bsp\build\debug/./metal/machine.h:564
		return 21;
2010ead4:	47d5                	li	a5,21
2010ead6:	a839                	j	2010eaf4 <__metal_driver_sifive_gpio0_interrupt_lines+0x1ac>
C:\VSD_Sqd_Project\sifive_hifive1_BitNet_MNIST_App\bsp\build\debug/./metal/machine.h:566
	else if ((((uintptr_t)gpio == (uintptr_t)&__metal_dt_gpio_10012000) && (idx == 15))) {
2010ead8:	fec42703          	lw	a4,-20(s0)
2010eadc:	81c18793          	add	a5,gp,-2020 # 80000a8c <__metal_dt_gpio_10012000>
2010eae0:	00f71963          	bne	a4,a5,2010eaf2 <__metal_driver_sifive_gpio0_interrupt_lines+0x1aa>
C:\VSD_Sqd_Project\sifive_hifive1_BitNet_MNIST_App\bsp\build\debug/./metal/machine.h:566 (discriminator 1)
2010eae4:	fe842703          	lw	a4,-24(s0)
2010eae8:	47bd                	li	a5,15
2010eaea:	00f71463          	bne	a4,a5,2010eaf2 <__metal_driver_sifive_gpio0_interrupt_lines+0x1aa>
C:\VSD_Sqd_Project\sifive_hifive1_BitNet_MNIST_App\bsp\build\debug/./metal/machine.h:567
		return 22;
2010eaee:	47d9                	li	a5,22
2010eaf0:	a011                	j	2010eaf4 <__metal_driver_sifive_gpio0_interrupt_lines+0x1ac>
C:\VSD_Sqd_Project\sifive_hifive1_BitNet_MNIST_App\bsp\build\debug/./metal/machine.h:570
		return 0;
2010eaf2:	4781                	li	a5,0
C:\VSD_Sqd_Project\sifive_hifive1_BitNet_MNIST_App\bsp\build\debug/./metal/machine.h:572
}
2010eaf4:	853e                	mv	a0,a5
2010eaf6:	4472                	lw	s0,28(sp)
2010eaf8:	6105                	add	sp,sp,32
2010eafa:	8082                	ret

2010eafc <__metal_driver_sifive_gpio0_enable_input>:
__metal_driver_sifive_gpio0_enable_input():
C:/VSD_Sqd_Project/sifive_hifive1_BitNet_MNIST_App/freedom-metal/src/drivers/sifive_gpio0.c:13
#include <metal/drivers/sifive_gpio0.h>
#include <metal/io.h>
#include <metal/machine.h>

int __metal_driver_sifive_gpio0_enable_input(struct metal_gpio *ggpio,
                                             long source) {
2010eafc:	7179                	add	sp,sp,-48
2010eafe:	d606                	sw	ra,44(sp)
2010eb00:	d422                	sw	s0,40(sp)
2010eb02:	1800                	add	s0,sp,48
2010eb04:	fca42e23          	sw	a0,-36(s0)
2010eb08:	fcb42c23          	sw	a1,-40(s0)
C:/VSD_Sqd_Project/sifive_hifive1_BitNet_MNIST_App/freedom-metal/src/drivers/sifive_gpio0.c:14
    long base = __metal_driver_sifive_gpio0_base(ggpio);
2010eb0c:	fdc42503          	lw	a0,-36(s0)
2010eb10:	de9ff0ef          	jal	2010e8f8 <__metal_driver_sifive_gpio0_base>
2010eb14:	87aa                	mv	a5,a0
C:/VSD_Sqd_Project/sifive_hifive1_BitNet_MNIST_App/freedom-metal/src/drivers/sifive_gpio0.c:14 (discriminator 1)
2010eb16:	fef42623          	sw	a5,-20(s0)
C:/VSD_Sqd_Project/sifive_hifive1_BitNet_MNIST_App/freedom-metal/src/drivers/sifive_gpio0.c:16

    __METAL_ACCESS_ONCE(
2010eb1a:	fec42783          	lw	a5,-20(s0)
2010eb1e:	0791                	add	a5,a5,4
2010eb20:	4398                	lw	a4,0(a5)
C:/VSD_Sqd_Project/sifive_hifive1_BitNet_MNIST_App/freedom-metal/src/drivers/sifive_gpio0.c:17
        (__metal_io_u32 *)(base + METAL_SIFIVE_GPIO0_INPUT_EN)) |= source;
2010eb22:	fd842783          	lw	a5,-40(s0)
C:/VSD_Sqd_Project/sifive_hifive1_BitNet_MNIST_App/freedom-metal/src/drivers/sifive_gpio0.c:16
    __METAL_ACCESS_ONCE(
2010eb26:	fec42683          	lw	a3,-20(s0)
2010eb2a:	0691                	add	a3,a3,4
C:/VSD_Sqd_Project/sifive_hifive1_BitNet_MNIST_App/freedom-metal/src/drivers/sifive_gpio0.c:17
        (__metal_io_u32 *)(base + METAL_SIFIVE_GPIO0_INPUT_EN)) |= source;
2010eb2c:	8fd9                	or	a5,a5,a4
2010eb2e:	c29c                	sw	a5,0(a3)
C:/VSD_Sqd_Project/sifive_hifive1_BitNet_MNIST_App/freedom-metal/src/drivers/sifive_gpio0.c:19

    return 0;
2010eb30:	4781                	li	a5,0
C:/VSD_Sqd_Project/sifive_hifive1_BitNet_MNIST_App/freedom-metal/src/drivers/sifive_gpio0.c:20
}
2010eb32:	853e                	mv	a0,a5
2010eb34:	50b2                	lw	ra,44(sp)
2010eb36:	5422                	lw	s0,40(sp)
2010eb38:	6145                	add	sp,sp,48
2010eb3a:	8082                	ret

2010eb3c <__metal_driver_sifive_gpio0_disable_input>:
__metal_driver_sifive_gpio0_disable_input():
C:/VSD_Sqd_Project/sifive_hifive1_BitNet_MNIST_App/freedom-metal/src/drivers/sifive_gpio0.c:23

int __metal_driver_sifive_gpio0_disable_input(struct metal_gpio *ggpio,
                                              long source) {
2010eb3c:	7179                	add	sp,sp,-48
2010eb3e:	d606                	sw	ra,44(sp)
2010eb40:	d422                	sw	s0,40(sp)
2010eb42:	1800                	add	s0,sp,48
2010eb44:	fca42e23          	sw	a0,-36(s0)
2010eb48:	fcb42c23          	sw	a1,-40(s0)
C:/VSD_Sqd_Project/sifive_hifive1_BitNet_MNIST_App/freedom-metal/src/drivers/sifive_gpio0.c:24
    long base = __metal_driver_sifive_gpio0_base(ggpio);
2010eb4c:	fdc42503          	lw	a0,-36(s0)
2010eb50:	da9ff0ef          	jal	2010e8f8 <__metal_driver_sifive_gpio0_base>
2010eb54:	87aa                	mv	a5,a0
C:/VSD_Sqd_Project/sifive_hifive1_BitNet_MNIST_App/freedom-metal/src/drivers/sifive_gpio0.c:24 (discriminator 1)
2010eb56:	fef42623          	sw	a5,-20(s0)
C:/VSD_Sqd_Project/sifive_hifive1_BitNet_MNIST_App/freedom-metal/src/drivers/sifive_gpio0.c:26

    __METAL_ACCESS_ONCE(
2010eb5a:	fec42783          	lw	a5,-20(s0)
2010eb5e:	0791                	add	a5,a5,4
2010eb60:	439c                	lw	a5,0(a5)
C:/VSD_Sqd_Project/sifive_hifive1_BitNet_MNIST_App/freedom-metal/src/drivers/sifive_gpio0.c:27
        (__metal_io_u32 *)(base + METAL_SIFIVE_GPIO0_INPUT_EN)) &= ~source;
2010eb62:	fd842703          	lw	a4,-40(s0)
2010eb66:	fff74713          	not	a4,a4
2010eb6a:	86ba                	mv	a3,a4
C:/VSD_Sqd_Project/sifive_hifive1_BitNet_MNIST_App/freedom-metal/src/drivers/sifive_gpio0.c:26
    __METAL_ACCESS_ONCE(
2010eb6c:	fec42703          	lw	a4,-20(s0)
2010eb70:	0711                	add	a4,a4,4
C:/VSD_Sqd_Project/sifive_hifive1_BitNet_MNIST_App/freedom-metal/src/drivers/sifive_gpio0.c:27
        (__metal_io_u32 *)(base + METAL_SIFIVE_GPIO0_INPUT_EN)) &= ~source;
2010eb72:	8ff5                	and	a5,a5,a3
2010eb74:	c31c                	sw	a5,0(a4)
C:/VSD_Sqd_Project/sifive_hifive1_BitNet_MNIST_App/freedom-metal/src/drivers/sifive_gpio0.c:29

    return 0;
2010eb76:	4781                	li	a5,0
C:/VSD_Sqd_Project/sifive_hifive1_BitNet_MNIST_App/freedom-metal/src/drivers/sifive_gpio0.c:30
}
2010eb78:	853e                	mv	a0,a5
2010eb7a:	50b2                	lw	ra,44(sp)
2010eb7c:	5422                	lw	s0,40(sp)
2010eb7e:	6145                	add	sp,sp,48
2010eb80:	8082                	ret

2010eb82 <__metal_driver_sifive_gpio0_input>:
__metal_driver_sifive_gpio0_input():
C:/VSD_Sqd_Project/sifive_hifive1_BitNet_MNIST_App/freedom-metal/src/drivers/sifive_gpio0.c:32

long __metal_driver_sifive_gpio0_input(struct metal_gpio *ggpio) {
2010eb82:	7179                	add	sp,sp,-48
2010eb84:	d606                	sw	ra,44(sp)
2010eb86:	d422                	sw	s0,40(sp)
2010eb88:	1800                	add	s0,sp,48
2010eb8a:	fca42e23          	sw	a0,-36(s0)
C:/VSD_Sqd_Project/sifive_hifive1_BitNet_MNIST_App/freedom-metal/src/drivers/sifive_gpio0.c:33
    long base = __metal_driver_sifive_gpio0_base(ggpio);
2010eb8e:	fdc42503          	lw	a0,-36(s0)
2010eb92:	d67ff0ef          	jal	2010e8f8 <__metal_driver_sifive_gpio0_base>
2010eb96:	87aa                	mv	a5,a0
C:/VSD_Sqd_Project/sifive_hifive1_BitNet_MNIST_App/freedom-metal/src/drivers/sifive_gpio0.c:33 (discriminator 1)
2010eb98:	fef42623          	sw	a5,-20(s0)
C:/VSD_Sqd_Project/sifive_hifive1_BitNet_MNIST_App/freedom-metal/src/drivers/sifive_gpio0.c:35

    return __METAL_ACCESS_ONCE(
2010eb9c:	fec42783          	lw	a5,-20(s0)
2010eba0:	439c                	lw	a5,0(a5)
C:/VSD_Sqd_Project/sifive_hifive1_BitNet_MNIST_App/freedom-metal/src/drivers/sifive_gpio0.c:37
        (__metal_io_u32 *)(base + METAL_SIFIVE_GPIO0_VALUE));
}
2010eba2:	853e                	mv	a0,a5
2010eba4:	50b2                	lw	ra,44(sp)
2010eba6:	5422                	lw	s0,40(sp)
2010eba8:	6145                	add	sp,sp,48
2010ebaa:	8082                	ret

2010ebac <__metal_driver_sifive_gpio0_output>:
__metal_driver_sifive_gpio0_output():
C:/VSD_Sqd_Project/sifive_hifive1_BitNet_MNIST_App/freedom-metal/src/drivers/sifive_gpio0.c:39

long __metal_driver_sifive_gpio0_output(struct metal_gpio *ggpio) {
2010ebac:	7179                	add	sp,sp,-48
2010ebae:	d606                	sw	ra,44(sp)
2010ebb0:	d422                	sw	s0,40(sp)
2010ebb2:	1800                	add	s0,sp,48
2010ebb4:	fca42e23          	sw	a0,-36(s0)
C:/VSD_Sqd_Project/sifive_hifive1_BitNet_MNIST_App/freedom-metal/src/drivers/sifive_gpio0.c:40
    long base = __metal_driver_sifive_gpio0_base(ggpio);
2010ebb8:	fdc42503          	lw	a0,-36(s0)
2010ebbc:	d3dff0ef          	jal	2010e8f8 <__metal_driver_sifive_gpio0_base>
2010ebc0:	87aa                	mv	a5,a0
C:/VSD_Sqd_Project/sifive_hifive1_BitNet_MNIST_App/freedom-metal/src/drivers/sifive_gpio0.c:40 (discriminator 1)
2010ebc2:	fef42623          	sw	a5,-20(s0)
C:/VSD_Sqd_Project/sifive_hifive1_BitNet_MNIST_App/freedom-metal/src/drivers/sifive_gpio0.c:42

    return __METAL_ACCESS_ONCE(
2010ebc6:	fec42783          	lw	a5,-20(s0)
2010ebca:	07b1                	add	a5,a5,12
2010ebcc:	439c                	lw	a5,0(a5)
C:/VSD_Sqd_Project/sifive_hifive1_BitNet_MNIST_App/freedom-metal/src/drivers/sifive_gpio0.c:44
        (__metal_io_u32 *)(base + METAL_SIFIVE_GPIO0_PORT));
}
2010ebce:	853e                	mv	a0,a5
2010ebd0:	50b2                	lw	ra,44(sp)
2010ebd2:	5422                	lw	s0,40(sp)
2010ebd4:	6145                	add	sp,sp,48
2010ebd6:	8082                	ret

2010ebd8 <__metal_driver_sifive_gpio0_disable_output>:
__metal_driver_sifive_gpio0_disable_output():
C:/VSD_Sqd_Project/sifive_hifive1_BitNet_MNIST_App/freedom-metal/src/drivers/sifive_gpio0.c:47

int __metal_driver_sifive_gpio0_disable_output(struct metal_gpio *ggpio,
                                               long source) {
2010ebd8:	7179                	add	sp,sp,-48
2010ebda:	d606                	sw	ra,44(sp)
2010ebdc:	d422                	sw	s0,40(sp)
2010ebde:	1800                	add	s0,sp,48
2010ebe0:	fca42e23          	sw	a0,-36(s0)
2010ebe4:	fcb42c23          	sw	a1,-40(s0)
C:/VSD_Sqd_Project/sifive_hifive1_BitNet_MNIST_App/freedom-metal/src/drivers/sifive_gpio0.c:48
    long base = __metal_driver_sifive_gpio0_base(ggpio);
2010ebe8:	fdc42503          	lw	a0,-36(s0)
2010ebec:	d0dff0ef          	jal	2010e8f8 <__metal_driver_sifive_gpio0_base>
2010ebf0:	87aa                	mv	a5,a0
C:/VSD_Sqd_Project/sifive_hifive1_BitNet_MNIST_App/freedom-metal/src/drivers/sifive_gpio0.c:48 (discriminator 1)
2010ebf2:	fef42623          	sw	a5,-20(s0)
C:/VSD_Sqd_Project/sifive_hifive1_BitNet_MNIST_App/freedom-metal/src/drivers/sifive_gpio0.c:50

    __METAL_ACCESS_ONCE(
2010ebf6:	fec42783          	lw	a5,-20(s0)
2010ebfa:	07a1                	add	a5,a5,8
2010ebfc:	439c                	lw	a5,0(a5)
C:/VSD_Sqd_Project/sifive_hifive1_BitNet_MNIST_App/freedom-metal/src/drivers/sifive_gpio0.c:51
        (__metal_io_u32 *)(base + METAL_SIFIVE_GPIO0_OUTPUT_EN)) &= ~source;
2010ebfe:	fd842703          	lw	a4,-40(s0)
2010ec02:	fff74713          	not	a4,a4
2010ec06:	86ba                	mv	a3,a4
C:/VSD_Sqd_Project/sifive_hifive1_BitNet_MNIST_App/freedom-metal/src/drivers/sifive_gpio0.c:50
    __METAL_ACCESS_ONCE(
2010ec08:	fec42703          	lw	a4,-20(s0)
2010ec0c:	0721                	add	a4,a4,8
C:/VSD_Sqd_Project/sifive_hifive1_BitNet_MNIST_App/freedom-metal/src/drivers/sifive_gpio0.c:51
        (__metal_io_u32 *)(base + METAL_SIFIVE_GPIO0_OUTPUT_EN)) &= ~source;
2010ec0e:	8ff5                	and	a5,a5,a3
2010ec10:	c31c                	sw	a5,0(a4)
C:/VSD_Sqd_Project/sifive_hifive1_BitNet_MNIST_App/freedom-metal/src/drivers/sifive_gpio0.c:53

    return 0;
2010ec12:	4781                	li	a5,0
C:/VSD_Sqd_Project/sifive_hifive1_BitNet_MNIST_App/freedom-metal/src/drivers/sifive_gpio0.c:54
}
2010ec14:	853e                	mv	a0,a5
2010ec16:	50b2                	lw	ra,44(sp)
2010ec18:	5422                	lw	s0,40(sp)
2010ec1a:	6145                	add	sp,sp,48
2010ec1c:	8082                	ret

2010ec1e <__metal_driver_sifive_gpio0_enable_output>:
__metal_driver_sifive_gpio0_enable_output():
C:/VSD_Sqd_Project/sifive_hifive1_BitNet_MNIST_App/freedom-metal/src/drivers/sifive_gpio0.c:57

int __metal_driver_sifive_gpio0_enable_output(struct metal_gpio *ggpio,
                                              long source) {
2010ec1e:	7179                	add	sp,sp,-48
2010ec20:	d606                	sw	ra,44(sp)
2010ec22:	d422                	sw	s0,40(sp)
2010ec24:	1800                	add	s0,sp,48
2010ec26:	fca42e23          	sw	a0,-36(s0)
2010ec2a:	fcb42c23          	sw	a1,-40(s0)
C:/VSD_Sqd_Project/sifive_hifive1_BitNet_MNIST_App/freedom-metal/src/drivers/sifive_gpio0.c:58
    long base = __metal_driver_sifive_gpio0_base(ggpio);
2010ec2e:	fdc42503          	lw	a0,-36(s0)
2010ec32:	cc7ff0ef          	jal	2010e8f8 <__metal_driver_sifive_gpio0_base>
2010ec36:	87aa                	mv	a5,a0
C:/VSD_Sqd_Project/sifive_hifive1_BitNet_MNIST_App/freedom-metal/src/drivers/sifive_gpio0.c:58 (discriminator 1)
2010ec38:	fef42623          	sw	a5,-20(s0)
C:/VSD_Sqd_Project/sifive_hifive1_BitNet_MNIST_App/freedom-metal/src/drivers/sifive_gpio0.c:60

    __METAL_ACCESS_ONCE(
2010ec3c:	fec42783          	lw	a5,-20(s0)
2010ec40:	07a1                	add	a5,a5,8
2010ec42:	4398                	lw	a4,0(a5)
C:/VSD_Sqd_Project/sifive_hifive1_BitNet_MNIST_App/freedom-metal/src/drivers/sifive_gpio0.c:61
        (__metal_io_u32 *)(base + METAL_SIFIVE_GPIO0_OUTPUT_EN)) |= source;
2010ec44:	fd842783          	lw	a5,-40(s0)
C:/VSD_Sqd_Project/sifive_hifive1_BitNet_MNIST_App/freedom-metal/src/drivers/sifive_gpio0.c:60
    __METAL_ACCESS_ONCE(
2010ec48:	fec42683          	lw	a3,-20(s0)
2010ec4c:	06a1                	add	a3,a3,8
C:/VSD_Sqd_Project/sifive_hifive1_BitNet_MNIST_App/freedom-metal/src/drivers/sifive_gpio0.c:61
        (__metal_io_u32 *)(base + METAL_SIFIVE_GPIO0_OUTPUT_EN)) |= source;
2010ec4e:	8fd9                	or	a5,a5,a4
2010ec50:	c29c                	sw	a5,0(a3)
C:/VSD_Sqd_Project/sifive_hifive1_BitNet_MNIST_App/freedom-metal/src/drivers/sifive_gpio0.c:63

    return 0;
2010ec52:	4781                	li	a5,0
C:/VSD_Sqd_Project/sifive_hifive1_BitNet_MNIST_App/freedom-metal/src/drivers/sifive_gpio0.c:64
}
2010ec54:	853e                	mv	a0,a5
2010ec56:	50b2                	lw	ra,44(sp)
2010ec58:	5422                	lw	s0,40(sp)
2010ec5a:	6145                	add	sp,sp,48
2010ec5c:	8082                	ret

2010ec5e <__metal_driver_sifive_gpio0_output_set>:
__metal_driver_sifive_gpio0_output_set():
C:/VSD_Sqd_Project/sifive_hifive1_BitNet_MNIST_App/freedom-metal/src/drivers/sifive_gpio0.c:67

int __metal_driver_sifive_gpio0_output_set(struct metal_gpio *ggpio,
                                           long value) {
2010ec5e:	7179                	add	sp,sp,-48
2010ec60:	d606                	sw	ra,44(sp)
2010ec62:	d422                	sw	s0,40(sp)
2010ec64:	1800                	add	s0,sp,48
2010ec66:	fca42e23          	sw	a0,-36(s0)
2010ec6a:	fcb42c23          	sw	a1,-40(s0)
C:/VSD_Sqd_Project/sifive_hifive1_BitNet_MNIST_App/freedom-metal/src/drivers/sifive_gpio0.c:68
    long base = __metal_driver_sifive_gpio0_base(ggpio);
2010ec6e:	fdc42503          	lw	a0,-36(s0)
2010ec72:	c87ff0ef          	jal	2010e8f8 <__metal_driver_sifive_gpio0_base>
2010ec76:	87aa                	mv	a5,a0
C:/VSD_Sqd_Project/sifive_hifive1_BitNet_MNIST_App/freedom-metal/src/drivers/sifive_gpio0.c:68 (discriminator 1)
2010ec78:	fef42623          	sw	a5,-20(s0)
C:/VSD_Sqd_Project/sifive_hifive1_BitNet_MNIST_App/freedom-metal/src/drivers/sifive_gpio0.c:70

    __METAL_ACCESS_ONCE((__metal_io_u32 *)(base + METAL_SIFIVE_GPIO0_PORT)) |=
2010ec7c:	fec42783          	lw	a5,-20(s0)
2010ec80:	07b1                	add	a5,a5,12
2010ec82:	4398                	lw	a4,0(a5)
2010ec84:	fd842783          	lw	a5,-40(s0)
2010ec88:	fec42683          	lw	a3,-20(s0)
2010ec8c:	06b1                	add	a3,a3,12
2010ec8e:	8fd9                	or	a5,a5,a4
2010ec90:	c29c                	sw	a5,0(a3)
C:/VSD_Sqd_Project/sifive_hifive1_BitNet_MNIST_App/freedom-metal/src/drivers/sifive_gpio0.c:73
        value;

    return 0;
2010ec92:	4781                	li	a5,0
C:/VSD_Sqd_Project/sifive_hifive1_BitNet_MNIST_App/freedom-metal/src/drivers/sifive_gpio0.c:74
}
2010ec94:	853e                	mv	a0,a5
2010ec96:	50b2                	lw	ra,44(sp)
2010ec98:	5422                	lw	s0,40(sp)
2010ec9a:	6145                	add	sp,sp,48
2010ec9c:	8082                	ret

2010ec9e <__metal_driver_sifive_gpio0_output_clear>:
__metal_driver_sifive_gpio0_output_clear():
C:/VSD_Sqd_Project/sifive_hifive1_BitNet_MNIST_App/freedom-metal/src/drivers/sifive_gpio0.c:77

int __metal_driver_sifive_gpio0_output_clear(struct metal_gpio *ggpio,
                                             long value) {
2010ec9e:	7179                	add	sp,sp,-48
2010eca0:	d606                	sw	ra,44(sp)
2010eca2:	d422                	sw	s0,40(sp)
2010eca4:	1800                	add	s0,sp,48
2010eca6:	fca42e23          	sw	a0,-36(s0)
2010ecaa:	fcb42c23          	sw	a1,-40(s0)
C:/VSD_Sqd_Project/sifive_hifive1_BitNet_MNIST_App/freedom-metal/src/drivers/sifive_gpio0.c:78
    long base = __metal_driver_sifive_gpio0_base(ggpio);
2010ecae:	fdc42503          	lw	a0,-36(s0)
2010ecb2:	c47ff0ef          	jal	2010e8f8 <__metal_driver_sifive_gpio0_base>
2010ecb6:	87aa                	mv	a5,a0
C:/VSD_Sqd_Project/sifive_hifive1_BitNet_MNIST_App/freedom-metal/src/drivers/sifive_gpio0.c:78 (discriminator 1)
2010ecb8:	fef42623          	sw	a5,-20(s0)
C:/VSD_Sqd_Project/sifive_hifive1_BitNet_MNIST_App/freedom-metal/src/drivers/sifive_gpio0.c:80

    __METAL_ACCESS_ONCE((__metal_io_u32 *)(base + METAL_SIFIVE_GPIO0_PORT)) &=
2010ecbc:	fec42783          	lw	a5,-20(s0)
2010ecc0:	07b1                	add	a5,a5,12
2010ecc2:	439c                	lw	a5,0(a5)
C:/VSD_Sqd_Project/sifive_hifive1_BitNet_MNIST_App/freedom-metal/src/drivers/sifive_gpio0.c:81
        ~value;
2010ecc4:	fd842703          	lw	a4,-40(s0)
2010ecc8:	fff74713          	not	a4,a4
2010eccc:	86ba                	mv	a3,a4
C:/VSD_Sqd_Project/sifive_hifive1_BitNet_MNIST_App/freedom-metal/src/drivers/sifive_gpio0.c:80
    __METAL_ACCESS_ONCE((__metal_io_u32 *)(base + METAL_SIFIVE_GPIO0_PORT)) &=
2010ecce:	fec42703          	lw	a4,-20(s0)
2010ecd2:	0731                	add	a4,a4,12
2010ecd4:	8ff5                	and	a5,a5,a3
2010ecd6:	c31c                	sw	a5,0(a4)
C:/VSD_Sqd_Project/sifive_hifive1_BitNet_MNIST_App/freedom-metal/src/drivers/sifive_gpio0.c:83

    return 0;
2010ecd8:	4781                	li	a5,0
C:/VSD_Sqd_Project/sifive_hifive1_BitNet_MNIST_App/freedom-metal/src/drivers/sifive_gpio0.c:84
}
2010ecda:	853e                	mv	a0,a5
2010ecdc:	50b2                	lw	ra,44(sp)
2010ecde:	5422                	lw	s0,40(sp)
2010ece0:	6145                	add	sp,sp,48
2010ece2:	8082                	ret

2010ece4 <__metal_driver_sifive_gpio0_output_toggle>:
__metal_driver_sifive_gpio0_output_toggle():
C:/VSD_Sqd_Project/sifive_hifive1_BitNet_MNIST_App/freedom-metal/src/drivers/sifive_gpio0.c:87

int __metal_driver_sifive_gpio0_output_toggle(struct metal_gpio *ggpio,
                                              long value) {
2010ece4:	7179                	add	sp,sp,-48
2010ece6:	d606                	sw	ra,44(sp)
2010ece8:	d422                	sw	s0,40(sp)
2010ecea:	1800                	add	s0,sp,48
2010ecec:	fca42e23          	sw	a0,-36(s0)
2010ecf0:	fcb42c23          	sw	a1,-40(s0)
C:/VSD_Sqd_Project/sifive_hifive1_BitNet_MNIST_App/freedom-metal/src/drivers/sifive_gpio0.c:88
    long base = __metal_driver_sifive_gpio0_base(ggpio);
2010ecf4:	fdc42503          	lw	a0,-36(s0)
2010ecf8:	c01ff0ef          	jal	2010e8f8 <__metal_driver_sifive_gpio0_base>
2010ecfc:	87aa                	mv	a5,a0
C:/VSD_Sqd_Project/sifive_hifive1_BitNet_MNIST_App/freedom-metal/src/drivers/sifive_gpio0.c:88 (discriminator 1)
2010ecfe:	fef42623          	sw	a5,-20(s0)
C:/VSD_Sqd_Project/sifive_hifive1_BitNet_MNIST_App/freedom-metal/src/drivers/sifive_gpio0.c:91

    __METAL_ACCESS_ONCE((__metal_io_u32 *)(base + METAL_SIFIVE_GPIO0_PORT)) =
        __METAL_ACCESS_ONCE(
2010ed02:	fec42783          	lw	a5,-20(s0)
2010ed06:	07b1                	add	a5,a5,12
2010ed08:	4398                	lw	a4,0(a5)
C:/VSD_Sqd_Project/sifive_hifive1_BitNet_MNIST_App/freedom-metal/src/drivers/sifive_gpio0.c:92
            (__metal_io_u32 *)(base + METAL_SIFIVE_GPIO0_PORT)) ^
2010ed0a:	fd842783          	lw	a5,-40(s0)
C:/VSD_Sqd_Project/sifive_hifive1_BitNet_MNIST_App/freedom-metal/src/drivers/sifive_gpio0.c:90
    __METAL_ACCESS_ONCE((__metal_io_u32 *)(base + METAL_SIFIVE_GPIO0_PORT)) =
2010ed0e:	fec42683          	lw	a3,-20(s0)
2010ed12:	06b1                	add	a3,a3,12
C:/VSD_Sqd_Project/sifive_hifive1_BitNet_MNIST_App/freedom-metal/src/drivers/sifive_gpio0.c:92
            (__metal_io_u32 *)(base + METAL_SIFIVE_GPIO0_PORT)) ^
2010ed14:	8fb9                	xor	a5,a5,a4
C:/VSD_Sqd_Project/sifive_hifive1_BitNet_MNIST_App/freedom-metal/src/drivers/sifive_gpio0.c:90
    __METAL_ACCESS_ONCE((__metal_io_u32 *)(base + METAL_SIFIVE_GPIO0_PORT)) =
2010ed16:	c29c                	sw	a5,0(a3)
C:/VSD_Sqd_Project/sifive_hifive1_BitNet_MNIST_App/freedom-metal/src/drivers/sifive_gpio0.c:95
        value;

    return 0;
2010ed18:	4781                	li	a5,0
C:/VSD_Sqd_Project/sifive_hifive1_BitNet_MNIST_App/freedom-metal/src/drivers/sifive_gpio0.c:96
}
2010ed1a:	853e                	mv	a0,a5
2010ed1c:	50b2                	lw	ra,44(sp)
2010ed1e:	5422                	lw	s0,40(sp)
2010ed20:	6145                	add	sp,sp,48
2010ed22:	8082                	ret

2010ed24 <__metal_driver_sifive_gpio0_enable_io>:
__metal_driver_sifive_gpio0_enable_io():
C:/VSD_Sqd_Project/sifive_hifive1_BitNet_MNIST_App/freedom-metal/src/drivers/sifive_gpio0.c:99

int __metal_driver_sifive_gpio0_enable_io(struct metal_gpio *ggpio, long source,
                                          long dest) {
2010ed24:	7179                	add	sp,sp,-48
2010ed26:	d606                	sw	ra,44(sp)
2010ed28:	d422                	sw	s0,40(sp)
2010ed2a:	1800                	add	s0,sp,48
2010ed2c:	fca42e23          	sw	a0,-36(s0)
2010ed30:	fcb42c23          	sw	a1,-40(s0)
2010ed34:	fcc42a23          	sw	a2,-44(s0)
C:/VSD_Sqd_Project/sifive_hifive1_BitNet_MNIST_App/freedom-metal/src/drivers/sifive_gpio0.c:100
    long base = __metal_driver_sifive_gpio0_base(ggpio);
2010ed38:	fdc42503          	lw	a0,-36(s0)
2010ed3c:	bbdff0ef          	jal	2010e8f8 <__metal_driver_sifive_gpio0_base>
2010ed40:	87aa                	mv	a5,a0
C:/VSD_Sqd_Project/sifive_hifive1_BitNet_MNIST_App/freedom-metal/src/drivers/sifive_gpio0.c:100 (discriminator 1)
2010ed42:	fef42623          	sw	a5,-20(s0)
C:/VSD_Sqd_Project/sifive_hifive1_BitNet_MNIST_App/freedom-metal/src/drivers/sifive_gpio0.c:102

    __METAL_ACCESS_ONCE(
2010ed46:	fec42783          	lw	a5,-20(s0)
2010ed4a:	03c78793          	add	a5,a5,60
2010ed4e:	4398                	lw	a4,0(a5)
C:/VSD_Sqd_Project/sifive_hifive1_BitNet_MNIST_App/freedom-metal/src/drivers/sifive_gpio0.c:103
        (__metal_io_u32 *)(base + METAL_SIFIVE_GPIO0_IOF_SEL)) |= source;
2010ed50:	fd842783          	lw	a5,-40(s0)
C:/VSD_Sqd_Project/sifive_hifive1_BitNet_MNIST_App/freedom-metal/src/drivers/sifive_gpio0.c:102
    __METAL_ACCESS_ONCE(
2010ed54:	fec42683          	lw	a3,-20(s0)
2010ed58:	03c68693          	add	a3,a3,60
C:/VSD_Sqd_Project/sifive_hifive1_BitNet_MNIST_App/freedom-metal/src/drivers/sifive_gpio0.c:103
        (__metal_io_u32 *)(base + METAL_SIFIVE_GPIO0_IOF_SEL)) |= source;
2010ed5c:	8fd9                	or	a5,a5,a4
2010ed5e:	c29c                	sw	a5,0(a3)
C:/VSD_Sqd_Project/sifive_hifive1_BitNet_MNIST_App/freedom-metal/src/drivers/sifive_gpio0.c:104
    __METAL_ACCESS_ONCE((__metal_io_u32 *)(base + METAL_SIFIVE_GPIO0_IOF_EN)) |=
2010ed60:	fec42783          	lw	a5,-20(s0)
2010ed64:	03878793          	add	a5,a5,56
2010ed68:	4398                	lw	a4,0(a5)
2010ed6a:	fd442783          	lw	a5,-44(s0)
2010ed6e:	fec42683          	lw	a3,-20(s0)
2010ed72:	03868693          	add	a3,a3,56
2010ed76:	8fd9                	or	a5,a5,a4
2010ed78:	c29c                	sw	a5,0(a3)
C:/VSD_Sqd_Project/sifive_hifive1_BitNet_MNIST_App/freedom-metal/src/drivers/sifive_gpio0.c:107
        dest;

    return 0;
2010ed7a:	4781                	li	a5,0
C:/VSD_Sqd_Project/sifive_hifive1_BitNet_MNIST_App/freedom-metal/src/drivers/sifive_gpio0.c:108
}
2010ed7c:	853e                	mv	a0,a5
2010ed7e:	50b2                	lw	ra,44(sp)
2010ed80:	5422                	lw	s0,40(sp)
2010ed82:	6145                	add	sp,sp,48
2010ed84:	8082                	ret

2010ed86 <__metal_driver_sifive_gpio0_disable_io>:
__metal_driver_sifive_gpio0_disable_io():
C:/VSD_Sqd_Project/sifive_hifive1_BitNet_MNIST_App/freedom-metal/src/drivers/sifive_gpio0.c:111

int __metal_driver_sifive_gpio0_disable_io(struct metal_gpio *ggpio,
                                           long source) {
2010ed86:	7179                	add	sp,sp,-48
2010ed88:	d606                	sw	ra,44(sp)
2010ed8a:	d422                	sw	s0,40(sp)
2010ed8c:	1800                	add	s0,sp,48
2010ed8e:	fca42e23          	sw	a0,-36(s0)
2010ed92:	fcb42c23          	sw	a1,-40(s0)
C:/VSD_Sqd_Project/sifive_hifive1_BitNet_MNIST_App/freedom-metal/src/drivers/sifive_gpio0.c:112
    long base = __metal_driver_sifive_gpio0_base(ggpio);
2010ed96:	fdc42503          	lw	a0,-36(s0)
2010ed9a:	b5fff0ef          	jal	2010e8f8 <__metal_driver_sifive_gpio0_base>
2010ed9e:	87aa                	mv	a5,a0
C:/VSD_Sqd_Project/sifive_hifive1_BitNet_MNIST_App/freedom-metal/src/drivers/sifive_gpio0.c:112 (discriminator 1)
2010eda0:	fef42623          	sw	a5,-20(s0)
C:/VSD_Sqd_Project/sifive_hifive1_BitNet_MNIST_App/freedom-metal/src/drivers/sifive_gpio0.c:114

    __METAL_ACCESS_ONCE((__metal_io_u32 *)(base + METAL_SIFIVE_GPIO0_IOF_EN)) &=
2010eda4:	fec42783          	lw	a5,-20(s0)
2010eda8:	03878793          	add	a5,a5,56
2010edac:	439c                	lw	a5,0(a5)
C:/VSD_Sqd_Project/sifive_hifive1_BitNet_MNIST_App/freedom-metal/src/drivers/sifive_gpio0.c:115
        ~source;
2010edae:	fd842703          	lw	a4,-40(s0)
2010edb2:	fff74713          	not	a4,a4
2010edb6:	86ba                	mv	a3,a4
C:/VSD_Sqd_Project/sifive_hifive1_BitNet_MNIST_App/freedom-metal/src/drivers/sifive_gpio0.c:114
    __METAL_ACCESS_ONCE((__metal_io_u32 *)(base + METAL_SIFIVE_GPIO0_IOF_EN)) &=
2010edb8:	fec42703          	lw	a4,-20(s0)
2010edbc:	03870713          	add	a4,a4,56
2010edc0:	8ff5                	and	a5,a5,a3
2010edc2:	c31c                	sw	a5,0(a4)
C:/VSD_Sqd_Project/sifive_hifive1_BitNet_MNIST_App/freedom-metal/src/drivers/sifive_gpio0.c:117

    return 0;
2010edc4:	4781                	li	a5,0
C:/VSD_Sqd_Project/sifive_hifive1_BitNet_MNIST_App/freedom-metal/src/drivers/sifive_gpio0.c:118
}
2010edc6:	853e                	mv	a0,a5
2010edc8:	50b2                	lw	ra,44(sp)
2010edca:	5422                	lw	s0,40(sp)
2010edcc:	6145                	add	sp,sp,48
2010edce:	8082                	ret

2010edd0 <__metal_driver_sifive_gpio0_config_int>:
__metal_driver_sifive_gpio0_config_int():
C:/VSD_Sqd_Project/sifive_hifive1_BitNet_MNIST_App/freedom-metal/src/drivers/sifive_gpio0.c:121

int __metal_driver_sifive_gpio0_config_int(struct metal_gpio *ggpio,
                                           long source, int intr_type) {
2010edd0:	7179                	add	sp,sp,-48
2010edd2:	d606                	sw	ra,44(sp)
2010edd4:	d422                	sw	s0,40(sp)
2010edd6:	1800                	add	s0,sp,48
2010edd8:	fca42e23          	sw	a0,-36(s0)
2010eddc:	fcb42c23          	sw	a1,-40(s0)
2010ede0:	fcc42a23          	sw	a2,-44(s0)
C:/VSD_Sqd_Project/sifive_hifive1_BitNet_MNIST_App/freedom-metal/src/drivers/sifive_gpio0.c:122
    long base = __metal_driver_sifive_gpio0_base(ggpio);
2010ede4:	fdc42503          	lw	a0,-36(s0)
2010ede8:	b11ff0ef          	jal	2010e8f8 <__metal_driver_sifive_gpio0_base>
2010edec:	87aa                	mv	a5,a0
C:/VSD_Sqd_Project/sifive_hifive1_BitNet_MNIST_App/freedom-metal/src/drivers/sifive_gpio0.c:122 (discriminator 1)
2010edee:	fef42623          	sw	a5,-20(s0)
C:/VSD_Sqd_Project/sifive_hifive1_BitNet_MNIST_App/freedom-metal/src/drivers/sifive_gpio0.c:124

    switch (intr_type) {
2010edf2:	fd442703          	lw	a4,-44(s0)
2010edf6:	479d                	li	a5,7
2010edf8:	1ce7e963          	bltu	a5,a4,2010efca <__metal_driver_sifive_gpio0_config_int+0x1fa>
2010edfc:	fd442783          	lw	a5,-44(s0)
2010ee00:	00279713          	sll	a4,a5,0x2
2010ee04:	201097b7          	lui	a5,0x20109
2010ee08:	47078793          	add	a5,a5,1136 # 20109470 <__metal_driver_vtable_sifive_fe310_g000_pll+0xc>
2010ee0c:	97ba                	add	a5,a5,a4
2010ee0e:	439c                	lw	a5,0(a5)
2010ee10:	8782                	jr	a5
C:/VSD_Sqd_Project/sifive_hifive1_BitNet_MNIST_App/freedom-metal/src/drivers/sifive_gpio0.c:126
    case METAL_GPIO_INT_DISABLE:
        __METAL_ACCESS_ONCE(
2010ee12:	fec42783          	lw	a5,-20(s0)
2010ee16:	07e1                	add	a5,a5,24
2010ee18:	439c                	lw	a5,0(a5)
C:/VSD_Sqd_Project/sifive_hifive1_BitNet_MNIST_App/freedom-metal/src/drivers/sifive_gpio0.c:127
            (__metal_io_u32 *)(base + METAL_SIFIVE_GPIO0_RISE_IE)) &= ~source;
2010ee1a:	fd842703          	lw	a4,-40(s0)
2010ee1e:	fff74713          	not	a4,a4
2010ee22:	86ba                	mv	a3,a4
C:/VSD_Sqd_Project/sifive_hifive1_BitNet_MNIST_App/freedom-metal/src/drivers/sifive_gpio0.c:126
        __METAL_ACCESS_ONCE(
2010ee24:	fec42703          	lw	a4,-20(s0)
2010ee28:	0761                	add	a4,a4,24
C:/VSD_Sqd_Project/sifive_hifive1_BitNet_MNIST_App/freedom-metal/src/drivers/sifive_gpio0.c:127
            (__metal_io_u32 *)(base + METAL_SIFIVE_GPIO0_RISE_IE)) &= ~source;
2010ee2a:	8ff5                	and	a5,a5,a3
2010ee2c:	c31c                	sw	a5,0(a4)
C:/VSD_Sqd_Project/sifive_hifive1_BitNet_MNIST_App/freedom-metal/src/drivers/sifive_gpio0.c:128
        __METAL_ACCESS_ONCE(
2010ee2e:	fec42783          	lw	a5,-20(s0)
2010ee32:	02078793          	add	a5,a5,32
2010ee36:	439c                	lw	a5,0(a5)
C:/VSD_Sqd_Project/sifive_hifive1_BitNet_MNIST_App/freedom-metal/src/drivers/sifive_gpio0.c:129
            (__metal_io_u32 *)(base + METAL_SIFIVE_GPIO0_FALL_IE)) &= ~source;
2010ee38:	fd842703          	lw	a4,-40(s0)
2010ee3c:	fff74713          	not	a4,a4
2010ee40:	86ba                	mv	a3,a4
C:/VSD_Sqd_Project/sifive_hifive1_BitNet_MNIST_App/freedom-metal/src/drivers/sifive_gpio0.c:128
        __METAL_ACCESS_ONCE(
2010ee42:	fec42703          	lw	a4,-20(s0)
2010ee46:	02070713          	add	a4,a4,32
C:/VSD_Sqd_Project/sifive_hifive1_BitNet_MNIST_App/freedom-metal/src/drivers/sifive_gpio0.c:129
            (__metal_io_u32 *)(base + METAL_SIFIVE_GPIO0_FALL_IE)) &= ~source;
2010ee4a:	8ff5                	and	a5,a5,a3
2010ee4c:	c31c                	sw	a5,0(a4)
C:/VSD_Sqd_Project/sifive_hifive1_BitNet_MNIST_App/freedom-metal/src/drivers/sifive_gpio0.c:130
        __METAL_ACCESS_ONCE(
2010ee4e:	fec42783          	lw	a5,-20(s0)
2010ee52:	02878793          	add	a5,a5,40
2010ee56:	439c                	lw	a5,0(a5)
C:/VSD_Sqd_Project/sifive_hifive1_BitNet_MNIST_App/freedom-metal/src/drivers/sifive_gpio0.c:131
            (__metal_io_u32 *)(base + METAL_SIFIVE_GPIO0_HIGH_IE)) &= ~source;
2010ee58:	fd842703          	lw	a4,-40(s0)
2010ee5c:	fff74713          	not	a4,a4
2010ee60:	86ba                	mv	a3,a4
C:/VSD_Sqd_Project/sifive_hifive1_BitNet_MNIST_App/freedom-metal/src/drivers/sifive_gpio0.c:130
        __METAL_ACCESS_ONCE(
2010ee62:	fec42703          	lw	a4,-20(s0)
2010ee66:	02870713          	add	a4,a4,40
C:/VSD_Sqd_Project/sifive_hifive1_BitNet_MNIST_App/freedom-metal/src/drivers/sifive_gpio0.c:131
            (__metal_io_u32 *)(base + METAL_SIFIVE_GPIO0_HIGH_IE)) &= ~source;
2010ee6a:	8ff5                	and	a5,a5,a3
2010ee6c:	c31c                	sw	a5,0(a4)
C:/VSD_Sqd_Project/sifive_hifive1_BitNet_MNIST_App/freedom-metal/src/drivers/sifive_gpio0.c:132
        __METAL_ACCESS_ONCE(
2010ee6e:	fec42783          	lw	a5,-20(s0)
2010ee72:	03078793          	add	a5,a5,48
2010ee76:	439c                	lw	a5,0(a5)
C:/VSD_Sqd_Project/sifive_hifive1_BitNet_MNIST_App/freedom-metal/src/drivers/sifive_gpio0.c:133
            (__metal_io_u32 *)(base + METAL_SIFIVE_GPIO0_LOW_IE)) &= ~source;
2010ee78:	fd842703          	lw	a4,-40(s0)
2010ee7c:	fff74713          	not	a4,a4
2010ee80:	86ba                	mv	a3,a4
C:/VSD_Sqd_Project/sifive_hifive1_BitNet_MNIST_App/freedom-metal/src/drivers/sifive_gpio0.c:132
        __METAL_ACCESS_ONCE(
2010ee82:	fec42703          	lw	a4,-20(s0)
2010ee86:	03070713          	add	a4,a4,48
C:/VSD_Sqd_Project/sifive_hifive1_BitNet_MNIST_App/freedom-metal/src/drivers/sifive_gpio0.c:133
            (__metal_io_u32 *)(base + METAL_SIFIVE_GPIO0_LOW_IE)) &= ~source;
2010ee8a:	8ff5                	and	a5,a5,a3
2010ee8c:	c31c                	sw	a5,0(a4)
C:/VSD_Sqd_Project/sifive_hifive1_BitNet_MNIST_App/freedom-metal/src/drivers/sifive_gpio0.c:134
        break;
2010ee8e:	aa35                	j	2010efca <__metal_driver_sifive_gpio0_config_int+0x1fa>
C:/VSD_Sqd_Project/sifive_hifive1_BitNet_MNIST_App/freedom-metal/src/drivers/sifive_gpio0.c:136
    case METAL_GPIO_INT_RISING:
        __METAL_ACCESS_ONCE(
2010ee90:	fec42783          	lw	a5,-20(s0)
2010ee94:	07e1                	add	a5,a5,24
2010ee96:	4398                	lw	a4,0(a5)
C:/VSD_Sqd_Project/sifive_hifive1_BitNet_MNIST_App/freedom-metal/src/drivers/sifive_gpio0.c:137
            (__metal_io_u32 *)(base + METAL_SIFIVE_GPIO0_RISE_IE)) |= source;
2010ee98:	fd842783          	lw	a5,-40(s0)
C:/VSD_Sqd_Project/sifive_hifive1_BitNet_MNIST_App/freedom-metal/src/drivers/sifive_gpio0.c:136
        __METAL_ACCESS_ONCE(
2010ee9c:	fec42683          	lw	a3,-20(s0)
2010eea0:	06e1                	add	a3,a3,24
C:/VSD_Sqd_Project/sifive_hifive1_BitNet_MNIST_App/freedom-metal/src/drivers/sifive_gpio0.c:137
            (__metal_io_u32 *)(base + METAL_SIFIVE_GPIO0_RISE_IE)) |= source;
2010eea2:	8fd9                	or	a5,a5,a4
2010eea4:	c29c                	sw	a5,0(a3)
C:/VSD_Sqd_Project/sifive_hifive1_BitNet_MNIST_App/freedom-metal/src/drivers/sifive_gpio0.c:138
        break;
2010eea6:	a215                	j	2010efca <__metal_driver_sifive_gpio0_config_int+0x1fa>
C:/VSD_Sqd_Project/sifive_hifive1_BitNet_MNIST_App/freedom-metal/src/drivers/sifive_gpio0.c:140
    case METAL_GPIO_INT_FALLING:
        __METAL_ACCESS_ONCE(
2010eea8:	fec42783          	lw	a5,-20(s0)
2010eeac:	02078793          	add	a5,a5,32
2010eeb0:	4398                	lw	a4,0(a5)
C:/VSD_Sqd_Project/sifive_hifive1_BitNet_MNIST_App/freedom-metal/src/drivers/sifive_gpio0.c:141
            (__metal_io_u32 *)(base + METAL_SIFIVE_GPIO0_FALL_IE)) |= source;
2010eeb2:	fd842783          	lw	a5,-40(s0)
C:/VSD_Sqd_Project/sifive_hifive1_BitNet_MNIST_App/freedom-metal/src/drivers/sifive_gpio0.c:140
        __METAL_ACCESS_ONCE(
2010eeb6:	fec42683          	lw	a3,-20(s0)
2010eeba:	02068693          	add	a3,a3,32
C:/VSD_Sqd_Project/sifive_hifive1_BitNet_MNIST_App/freedom-metal/src/drivers/sifive_gpio0.c:141
            (__metal_io_u32 *)(base + METAL_SIFIVE_GPIO0_FALL_IE)) |= source;
2010eebe:	8fd9                	or	a5,a5,a4
2010eec0:	c29c                	sw	a5,0(a3)
C:/VSD_Sqd_Project/sifive_hifive1_BitNet_MNIST_App/freedom-metal/src/drivers/sifive_gpio0.c:142
        break;
2010eec2:	a221                	j	2010efca <__metal_driver_sifive_gpio0_config_int+0x1fa>
C:/VSD_Sqd_Project/sifive_hifive1_BitNet_MNIST_App/freedom-metal/src/drivers/sifive_gpio0.c:144
    case METAL_GPIO_INT_BOTH_EDGE:
        __METAL_ACCESS_ONCE(
2010eec4:	fec42783          	lw	a5,-20(s0)
2010eec8:	07e1                	add	a5,a5,24
2010eeca:	4398                	lw	a4,0(a5)
C:/VSD_Sqd_Project/sifive_hifive1_BitNet_MNIST_App/freedom-metal/src/drivers/sifive_gpio0.c:145
            (__metal_io_u32 *)(base + METAL_SIFIVE_GPIO0_RISE_IE)) |= source;
2010eecc:	fd842783          	lw	a5,-40(s0)
C:/VSD_Sqd_Project/sifive_hifive1_BitNet_MNIST_App/freedom-metal/src/drivers/sifive_gpio0.c:144
        __METAL_ACCESS_ONCE(
2010eed0:	fec42683          	lw	a3,-20(s0)
2010eed4:	06e1                	add	a3,a3,24
C:/VSD_Sqd_Project/sifive_hifive1_BitNet_MNIST_App/freedom-metal/src/drivers/sifive_gpio0.c:145
            (__metal_io_u32 *)(base + METAL_SIFIVE_GPIO0_RISE_IE)) |= source;
2010eed6:	8fd9                	or	a5,a5,a4
2010eed8:	c29c                	sw	a5,0(a3)
C:/VSD_Sqd_Project/sifive_hifive1_BitNet_MNIST_App/freedom-metal/src/drivers/sifive_gpio0.c:146
        __METAL_ACCESS_ONCE(
2010eeda:	fec42783          	lw	a5,-20(s0)
2010eede:	02078793          	add	a5,a5,32
2010eee2:	4398                	lw	a4,0(a5)
C:/VSD_Sqd_Project/sifive_hifive1_BitNet_MNIST_App/freedom-metal/src/drivers/sifive_gpio0.c:147
            (__metal_io_u32 *)(base + METAL_SIFIVE_GPIO0_FALL_IE)) |= source;
2010eee4:	fd842783          	lw	a5,-40(s0)
C:/VSD_Sqd_Project/sifive_hifive1_BitNet_MNIST_App/freedom-metal/src/drivers/sifive_gpio0.c:146
        __METAL_ACCESS_ONCE(
2010eee8:	fec42683          	lw	a3,-20(s0)
2010eeec:	02068693          	add	a3,a3,32
C:/VSD_Sqd_Project/sifive_hifive1_BitNet_MNIST_App/freedom-metal/src/drivers/sifive_gpio0.c:147
            (__metal_io_u32 *)(base + METAL_SIFIVE_GPIO0_FALL_IE)) |= source;
2010eef0:	8fd9                	or	a5,a5,a4
2010eef2:	c29c                	sw	a5,0(a3)
C:/VSD_Sqd_Project/sifive_hifive1_BitNet_MNIST_App/freedom-metal/src/drivers/sifive_gpio0.c:148
        break;
2010eef4:	a8d9                	j	2010efca <__metal_driver_sifive_gpio0_config_int+0x1fa>
C:/VSD_Sqd_Project/sifive_hifive1_BitNet_MNIST_App/freedom-metal/src/drivers/sifive_gpio0.c:150
    case METAL_GPIO_INT_HIGH:
        __METAL_ACCESS_ONCE(
2010eef6:	fec42783          	lw	a5,-20(s0)
2010eefa:	02878793          	add	a5,a5,40
2010eefe:	4398                	lw	a4,0(a5)
C:/VSD_Sqd_Project/sifive_hifive1_BitNet_MNIST_App/freedom-metal/src/drivers/sifive_gpio0.c:151
            (__metal_io_u32 *)(base + METAL_SIFIVE_GPIO0_HIGH_IE)) |= source;
2010ef00:	fd842783          	lw	a5,-40(s0)
C:/VSD_Sqd_Project/sifive_hifive1_BitNet_MNIST_App/freedom-metal/src/drivers/sifive_gpio0.c:150
        __METAL_ACCESS_ONCE(
2010ef04:	fec42683          	lw	a3,-20(s0)
2010ef08:	02868693          	add	a3,a3,40
C:/VSD_Sqd_Project/sifive_hifive1_BitNet_MNIST_App/freedom-metal/src/drivers/sifive_gpio0.c:151
            (__metal_io_u32 *)(base + METAL_SIFIVE_GPIO0_HIGH_IE)) |= source;
2010ef0c:	8fd9                	or	a5,a5,a4
2010ef0e:	c29c                	sw	a5,0(a3)
C:/VSD_Sqd_Project/sifive_hifive1_BitNet_MNIST_App/freedom-metal/src/drivers/sifive_gpio0.c:152
        break;
2010ef10:	a86d                	j	2010efca <__metal_driver_sifive_gpio0_config_int+0x1fa>
C:/VSD_Sqd_Project/sifive_hifive1_BitNet_MNIST_App/freedom-metal/src/drivers/sifive_gpio0.c:154
    case METAL_GPIO_INT_LOW:
        __METAL_ACCESS_ONCE(
2010ef12:	fec42783          	lw	a5,-20(s0)
2010ef16:	03078793          	add	a5,a5,48
2010ef1a:	4398                	lw	a4,0(a5)
C:/VSD_Sqd_Project/sifive_hifive1_BitNet_MNIST_App/freedom-metal/src/drivers/sifive_gpio0.c:155
            (__metal_io_u32 *)(base + METAL_SIFIVE_GPIO0_LOW_IE)) |= source;
2010ef1c:	fd842783          	lw	a5,-40(s0)
C:/VSD_Sqd_Project/sifive_hifive1_BitNet_MNIST_App/freedom-metal/src/drivers/sifive_gpio0.c:154
        __METAL_ACCESS_ONCE(
2010ef20:	fec42683          	lw	a3,-20(s0)
2010ef24:	03068693          	add	a3,a3,48
C:/VSD_Sqd_Project/sifive_hifive1_BitNet_MNIST_App/freedom-metal/src/drivers/sifive_gpio0.c:155
            (__metal_io_u32 *)(base + METAL_SIFIVE_GPIO0_LOW_IE)) |= source;
2010ef28:	8fd9                	or	a5,a5,a4
2010ef2a:	c29c                	sw	a5,0(a3)
C:/VSD_Sqd_Project/sifive_hifive1_BitNet_MNIST_App/freedom-metal/src/drivers/sifive_gpio0.c:156
        break;
2010ef2c:	a879                	j	2010efca <__metal_driver_sifive_gpio0_config_int+0x1fa>
C:/VSD_Sqd_Project/sifive_hifive1_BitNet_MNIST_App/freedom-metal/src/drivers/sifive_gpio0.c:158
    case METAL_GPIO_INT_BOTH_LEVEL:
        __METAL_ACCESS_ONCE(
2010ef2e:	fec42783          	lw	a5,-20(s0)
2010ef32:	02878793          	add	a5,a5,40
2010ef36:	4398                	lw	a4,0(a5)
C:/VSD_Sqd_Project/sifive_hifive1_BitNet_MNIST_App/freedom-metal/src/drivers/sifive_gpio0.c:159
            (__metal_io_u32 *)(base + METAL_SIFIVE_GPIO0_HIGH_IE)) |= source;
2010ef38:	fd842783          	lw	a5,-40(s0)
C:/VSD_Sqd_Project/sifive_hifive1_BitNet_MNIST_App/freedom-metal/src/drivers/sifive_gpio0.c:158
        __METAL_ACCESS_ONCE(
2010ef3c:	fec42683          	lw	a3,-20(s0)
2010ef40:	02868693          	add	a3,a3,40
C:/VSD_Sqd_Project/sifive_hifive1_BitNet_MNIST_App/freedom-metal/src/drivers/sifive_gpio0.c:159
            (__metal_io_u32 *)(base + METAL_SIFIVE_GPIO0_HIGH_IE)) |= source;
2010ef44:	8fd9                	or	a5,a5,a4
2010ef46:	c29c                	sw	a5,0(a3)
C:/VSD_Sqd_Project/sifive_hifive1_BitNet_MNIST_App/freedom-metal/src/drivers/sifive_gpio0.c:160
        __METAL_ACCESS_ONCE(
2010ef48:	fec42783          	lw	a5,-20(s0)
2010ef4c:	03078793          	add	a5,a5,48
2010ef50:	4398                	lw	a4,0(a5)
C:/VSD_Sqd_Project/sifive_hifive1_BitNet_MNIST_App/freedom-metal/src/drivers/sifive_gpio0.c:161
            (__metal_io_u32 *)(base + METAL_SIFIVE_GPIO0_LOW_IE)) |= source;
2010ef52:	fd842783          	lw	a5,-40(s0)
C:/VSD_Sqd_Project/sifive_hifive1_BitNet_MNIST_App/freedom-metal/src/drivers/sifive_gpio0.c:160
        __METAL_ACCESS_ONCE(
2010ef56:	fec42683          	lw	a3,-20(s0)
2010ef5a:	03068693          	add	a3,a3,48
C:/VSD_Sqd_Project/sifive_hifive1_BitNet_MNIST_App/freedom-metal/src/drivers/sifive_gpio0.c:161
            (__metal_io_u32 *)(base + METAL_SIFIVE_GPIO0_LOW_IE)) |= source;
2010ef5e:	8fd9                	or	a5,a5,a4
2010ef60:	c29c                	sw	a5,0(a3)
C:/VSD_Sqd_Project/sifive_hifive1_BitNet_MNIST_App/freedom-metal/src/drivers/sifive_gpio0.c:162
        break;
2010ef62:	a0a5                	j	2010efca <__metal_driver_sifive_gpio0_config_int+0x1fa>
C:/VSD_Sqd_Project/sifive_hifive1_BitNet_MNIST_App/freedom-metal/src/drivers/sifive_gpio0.c:164
    case METAL_GPIO_INT_MAX:
        __METAL_ACCESS_ONCE(
2010ef64:	fec42783          	lw	a5,-20(s0)
2010ef68:	07e1                	add	a5,a5,24
2010ef6a:	4398                	lw	a4,0(a5)
C:/VSD_Sqd_Project/sifive_hifive1_BitNet_MNIST_App/freedom-metal/src/drivers/sifive_gpio0.c:165
            (__metal_io_u32 *)(base + METAL_SIFIVE_GPIO0_RISE_IE)) |= source;
2010ef6c:	fd842783          	lw	a5,-40(s0)
C:/VSD_Sqd_Project/sifive_hifive1_BitNet_MNIST_App/freedom-metal/src/drivers/sifive_gpio0.c:164
        __METAL_ACCESS_ONCE(
2010ef70:	fec42683          	lw	a3,-20(s0)
2010ef74:	06e1                	add	a3,a3,24
C:/VSD_Sqd_Project/sifive_hifive1_BitNet_MNIST_App/freedom-metal/src/drivers/sifive_gpio0.c:165
            (__metal_io_u32 *)(base + METAL_SIFIVE_GPIO0_RISE_IE)) |= source;
2010ef76:	8fd9                	or	a5,a5,a4
2010ef78:	c29c                	sw	a5,0(a3)
C:/VSD_Sqd_Project/sifive_hifive1_BitNet_MNIST_App/freedom-metal/src/drivers/sifive_gpio0.c:166
        __METAL_ACCESS_ONCE(
2010ef7a:	fec42783          	lw	a5,-20(s0)
2010ef7e:	02078793          	add	a5,a5,32
2010ef82:	4398                	lw	a4,0(a5)
C:/VSD_Sqd_Project/sifive_hifive1_BitNet_MNIST_App/freedom-metal/src/drivers/sifive_gpio0.c:167
            (__metal_io_u32 *)(base + METAL_SIFIVE_GPIO0_FALL_IE)) |= source;
2010ef84:	fd842783          	lw	a5,-40(s0)
C:/VSD_Sqd_Project/sifive_hifive1_BitNet_MNIST_App/freedom-metal/src/drivers/sifive_gpio0.c:166
        __METAL_ACCESS_ONCE(
2010ef88:	fec42683          	lw	a3,-20(s0)
2010ef8c:	02068693          	add	a3,a3,32
C:/VSD_Sqd_Project/sifive_hifive1_BitNet_MNIST_App/freedom-metal/src/drivers/sifive_gpio0.c:167
            (__metal_io_u32 *)(base + METAL_SIFIVE_GPIO0_FALL_IE)) |= source;
2010ef90:	8fd9                	or	a5,a5,a4
2010ef92:	c29c                	sw	a5,0(a3)
C:/VSD_Sqd_Project/sifive_hifive1_BitNet_MNIST_App/freedom-metal/src/drivers/sifive_gpio0.c:168
        __METAL_ACCESS_ONCE(
2010ef94:	fec42783          	lw	a5,-20(s0)
2010ef98:	02878793          	add	a5,a5,40
2010ef9c:	4398                	lw	a4,0(a5)
C:/VSD_Sqd_Project/sifive_hifive1_BitNet_MNIST_App/freedom-metal/src/drivers/sifive_gpio0.c:169
            (__metal_io_u32 *)(base + METAL_SIFIVE_GPIO0_HIGH_IE)) |= source;
2010ef9e:	fd842783          	lw	a5,-40(s0)
C:/VSD_Sqd_Project/sifive_hifive1_BitNet_MNIST_App/freedom-metal/src/drivers/sifive_gpio0.c:168
        __METAL_ACCESS_ONCE(
2010efa2:	fec42683          	lw	a3,-20(s0)
2010efa6:	02868693          	add	a3,a3,40
C:/VSD_Sqd_Project/sifive_hifive1_BitNet_MNIST_App/freedom-metal/src/drivers/sifive_gpio0.c:169
            (__metal_io_u32 *)(base + METAL_SIFIVE_GPIO0_HIGH_IE)) |= source;
2010efaa:	8fd9                	or	a5,a5,a4
2010efac:	c29c                	sw	a5,0(a3)
C:/VSD_Sqd_Project/sifive_hifive1_BitNet_MNIST_App/freedom-metal/src/drivers/sifive_gpio0.c:170
        __METAL_ACCESS_ONCE(
2010efae:	fec42783          	lw	a5,-20(s0)
2010efb2:	03078793          	add	a5,a5,48
2010efb6:	4398                	lw	a4,0(a5)
C:/VSD_Sqd_Project/sifive_hifive1_BitNet_MNIST_App/freedom-metal/src/drivers/sifive_gpio0.c:171
            (__metal_io_u32 *)(base + METAL_SIFIVE_GPIO0_LOW_IE)) |= source;
2010efb8:	fd842783          	lw	a5,-40(s0)
C:/VSD_Sqd_Project/sifive_hifive1_BitNet_MNIST_App/freedom-metal/src/drivers/sifive_gpio0.c:170
        __METAL_ACCESS_ONCE(
2010efbc:	fec42683          	lw	a3,-20(s0)
2010efc0:	03068693          	add	a3,a3,48
C:/VSD_Sqd_Project/sifive_hifive1_BitNet_MNIST_App/freedom-metal/src/drivers/sifive_gpio0.c:171
            (__metal_io_u32 *)(base + METAL_SIFIVE_GPIO0_LOW_IE)) |= source;
2010efc4:	8fd9                	or	a5,a5,a4
2010efc6:	c29c                	sw	a5,0(a3)
C:/VSD_Sqd_Project/sifive_hifive1_BitNet_MNIST_App/freedom-metal/src/drivers/sifive_gpio0.c:172
        break;
2010efc8:	0001                	nop
C:/VSD_Sqd_Project/sifive_hifive1_BitNet_MNIST_App/freedom-metal/src/drivers/sifive_gpio0.c:174
    }
    return 0;
2010efca:	4781                	li	a5,0
C:/VSD_Sqd_Project/sifive_hifive1_BitNet_MNIST_App/freedom-metal/src/drivers/sifive_gpio0.c:175
}
2010efcc:	853e                	mv	a0,a5
2010efce:	50b2                	lw	ra,44(sp)
2010efd0:	5422                	lw	s0,40(sp)
2010efd2:	6145                	add	sp,sp,48
2010efd4:	8082                	ret

2010efd6 <__metal_driver_sifive_gpio0_clear_int>:
__metal_driver_sifive_gpio0_clear_int():
C:/VSD_Sqd_Project/sifive_hifive1_BitNet_MNIST_App/freedom-metal/src/drivers/sifive_gpio0.c:178

int __metal_driver_sifive_gpio0_clear_int(struct metal_gpio *ggpio, long source,
                                          int intr_type) {
2010efd6:	7179                	add	sp,sp,-48
2010efd8:	d606                	sw	ra,44(sp)
2010efda:	d422                	sw	s0,40(sp)
2010efdc:	1800                	add	s0,sp,48
2010efde:	fca42e23          	sw	a0,-36(s0)
2010efe2:	fcb42c23          	sw	a1,-40(s0)
2010efe6:	fcc42a23          	sw	a2,-44(s0)
C:/VSD_Sqd_Project/sifive_hifive1_BitNet_MNIST_App/freedom-metal/src/drivers/sifive_gpio0.c:179
    long base = __metal_driver_sifive_gpio0_base(ggpio);
2010efea:	fdc42503          	lw	a0,-36(s0)
2010efee:	90bff0ef          	jal	2010e8f8 <__metal_driver_sifive_gpio0_base>
2010eff2:	87aa                	mv	a5,a0
C:/VSD_Sqd_Project/sifive_hifive1_BitNet_MNIST_App/freedom-metal/src/drivers/sifive_gpio0.c:179 (discriminator 1)
2010eff4:	fef42623          	sw	a5,-20(s0)
C:/VSD_Sqd_Project/sifive_hifive1_BitNet_MNIST_App/freedom-metal/src/drivers/sifive_gpio0.c:181

    switch (intr_type) {
2010eff8:	fd442703          	lw	a4,-44(s0)
2010effc:	479d                	li	a5,7
2010effe:	14e7ea63          	bltu	a5,a4,2010f152 <__metal_driver_sifive_gpio0_clear_int+0x17c>
2010f002:	fd442783          	lw	a5,-44(s0)
2010f006:	00279713          	sll	a4,a5,0x2
2010f00a:	201097b7          	lui	a5,0x20109
2010f00e:	49078793          	add	a5,a5,1168 # 20109490 <__metal_driver_vtable_sifive_fe310_g000_pll+0x2c>
2010f012:	97ba                	add	a5,a5,a4
2010f014:	439c                	lw	a5,0(a5)
2010f016:	8782                	jr	a5
C:/VSD_Sqd_Project/sifive_hifive1_BitNet_MNIST_App/freedom-metal/src/drivers/sifive_gpio0.c:183
    case METAL_GPIO_INT_RISING:
        __METAL_ACCESS_ONCE(
2010f018:	fec42783          	lw	a5,-20(s0)
2010f01c:	07f1                	add	a5,a5,28
2010f01e:	4398                	lw	a4,0(a5)
C:/VSD_Sqd_Project/sifive_hifive1_BitNet_MNIST_App/freedom-metal/src/drivers/sifive_gpio0.c:184
            (__metal_io_u32 *)(base + METAL_SIFIVE_GPIO0_RISE_IP)) |= source;
2010f020:	fd842783          	lw	a5,-40(s0)
C:/VSD_Sqd_Project/sifive_hifive1_BitNet_MNIST_App/freedom-metal/src/drivers/sifive_gpio0.c:183
        __METAL_ACCESS_ONCE(
2010f024:	fec42683          	lw	a3,-20(s0)
2010f028:	06f1                	add	a3,a3,28
C:/VSD_Sqd_Project/sifive_hifive1_BitNet_MNIST_App/freedom-metal/src/drivers/sifive_gpio0.c:184
            (__metal_io_u32 *)(base + METAL_SIFIVE_GPIO0_RISE_IP)) |= source;
2010f02a:	8fd9                	or	a5,a5,a4
2010f02c:	c29c                	sw	a5,0(a3)
C:/VSD_Sqd_Project/sifive_hifive1_BitNet_MNIST_App/freedom-metal/src/drivers/sifive_gpio0.c:185
        break;
2010f02e:	a215                	j	2010f152 <__metal_driver_sifive_gpio0_clear_int+0x17c>
C:/VSD_Sqd_Project/sifive_hifive1_BitNet_MNIST_App/freedom-metal/src/drivers/sifive_gpio0.c:187
    case METAL_GPIO_INT_FALLING:
        __METAL_ACCESS_ONCE(
2010f030:	fec42783          	lw	a5,-20(s0)
2010f034:	02478793          	add	a5,a5,36
2010f038:	4398                	lw	a4,0(a5)
C:/VSD_Sqd_Project/sifive_hifive1_BitNet_MNIST_App/freedom-metal/src/drivers/sifive_gpio0.c:188
            (__metal_io_u32 *)(base + METAL_SIFIVE_GPIO0_FALL_IP)) |= source;
2010f03a:	fd842783          	lw	a5,-40(s0)
C:/VSD_Sqd_Project/sifive_hifive1_BitNet_MNIST_App/freedom-metal/src/drivers/sifive_gpio0.c:187
        __METAL_ACCESS_ONCE(
2010f03e:	fec42683          	lw	a3,-20(s0)
2010f042:	02468693          	add	a3,a3,36
C:/VSD_Sqd_Project/sifive_hifive1_BitNet_MNIST_App/freedom-metal/src/drivers/sifive_gpio0.c:188
            (__metal_io_u32 *)(base + METAL_SIFIVE_GPIO0_FALL_IP)) |= source;
2010f046:	8fd9                	or	a5,a5,a4
2010f048:	c29c                	sw	a5,0(a3)
C:/VSD_Sqd_Project/sifive_hifive1_BitNet_MNIST_App/freedom-metal/src/drivers/sifive_gpio0.c:189
        break;
2010f04a:	a221                	j	2010f152 <__metal_driver_sifive_gpio0_clear_int+0x17c>
C:/VSD_Sqd_Project/sifive_hifive1_BitNet_MNIST_App/freedom-metal/src/drivers/sifive_gpio0.c:191
    case METAL_GPIO_INT_BOTH_EDGE:
        __METAL_ACCESS_ONCE(
2010f04c:	fec42783          	lw	a5,-20(s0)
2010f050:	07f1                	add	a5,a5,28
2010f052:	4398                	lw	a4,0(a5)
C:/VSD_Sqd_Project/sifive_hifive1_BitNet_MNIST_App/freedom-metal/src/drivers/sifive_gpio0.c:192
            (__metal_io_u32 *)(base + METAL_SIFIVE_GPIO0_RISE_IP)) |= source;
2010f054:	fd842783          	lw	a5,-40(s0)
C:/VSD_Sqd_Project/sifive_hifive1_BitNet_MNIST_App/freedom-metal/src/drivers/sifive_gpio0.c:191
        __METAL_ACCESS_ONCE(
2010f058:	fec42683          	lw	a3,-20(s0)
2010f05c:	06f1                	add	a3,a3,28
C:/VSD_Sqd_Project/sifive_hifive1_BitNet_MNIST_App/freedom-metal/src/drivers/sifive_gpio0.c:192
            (__metal_io_u32 *)(base + METAL_SIFIVE_GPIO0_RISE_IP)) |= source;
2010f05e:	8fd9                	or	a5,a5,a4
2010f060:	c29c                	sw	a5,0(a3)
C:/VSD_Sqd_Project/sifive_hifive1_BitNet_MNIST_App/freedom-metal/src/drivers/sifive_gpio0.c:193
        __METAL_ACCESS_ONCE(
2010f062:	fec42783          	lw	a5,-20(s0)
2010f066:	02478793          	add	a5,a5,36
2010f06a:	4398                	lw	a4,0(a5)
C:/VSD_Sqd_Project/sifive_hifive1_BitNet_MNIST_App/freedom-metal/src/drivers/sifive_gpio0.c:194
            (__metal_io_u32 *)(base + METAL_SIFIVE_GPIO0_FALL_IP)) |= source;
2010f06c:	fd842783          	lw	a5,-40(s0)
C:/VSD_Sqd_Project/sifive_hifive1_BitNet_MNIST_App/freedom-metal/src/drivers/sifive_gpio0.c:193
        __METAL_ACCESS_ONCE(
2010f070:	fec42683          	lw	a3,-20(s0)
2010f074:	02468693          	add	a3,a3,36
C:/VSD_Sqd_Project/sifive_hifive1_BitNet_MNIST_App/freedom-metal/src/drivers/sifive_gpio0.c:194
            (__metal_io_u32 *)(base + METAL_SIFIVE_GPIO0_FALL_IP)) |= source;
2010f078:	8fd9                	or	a5,a5,a4
2010f07a:	c29c                	sw	a5,0(a3)
C:/VSD_Sqd_Project/sifive_hifive1_BitNet_MNIST_App/freedom-metal/src/drivers/sifive_gpio0.c:195
        break;
2010f07c:	a8d9                	j	2010f152 <__metal_driver_sifive_gpio0_clear_int+0x17c>
C:/VSD_Sqd_Project/sifive_hifive1_BitNet_MNIST_App/freedom-metal/src/drivers/sifive_gpio0.c:197
    case METAL_GPIO_INT_HIGH:
        __METAL_ACCESS_ONCE(
2010f07e:	fec42783          	lw	a5,-20(s0)
2010f082:	02c78793          	add	a5,a5,44
2010f086:	4398                	lw	a4,0(a5)
C:/VSD_Sqd_Project/sifive_hifive1_BitNet_MNIST_App/freedom-metal/src/drivers/sifive_gpio0.c:198
            (__metal_io_u32 *)(base + METAL_SIFIVE_GPIO0_HIGH_IP)) |= source;
2010f088:	fd842783          	lw	a5,-40(s0)
C:/VSD_Sqd_Project/sifive_hifive1_BitNet_MNIST_App/freedom-metal/src/drivers/sifive_gpio0.c:197
        __METAL_ACCESS_ONCE(
2010f08c:	fec42683          	lw	a3,-20(s0)
2010f090:	02c68693          	add	a3,a3,44
C:/VSD_Sqd_Project/sifive_hifive1_BitNet_MNIST_App/freedom-metal/src/drivers/sifive_gpio0.c:198
            (__metal_io_u32 *)(base + METAL_SIFIVE_GPIO0_HIGH_IP)) |= source;
2010f094:	8fd9                	or	a5,a5,a4
2010f096:	c29c                	sw	a5,0(a3)
C:/VSD_Sqd_Project/sifive_hifive1_BitNet_MNIST_App/freedom-metal/src/drivers/sifive_gpio0.c:199
        break;
2010f098:	a86d                	j	2010f152 <__metal_driver_sifive_gpio0_clear_int+0x17c>
C:/VSD_Sqd_Project/sifive_hifive1_BitNet_MNIST_App/freedom-metal/src/drivers/sifive_gpio0.c:201
    case METAL_GPIO_INT_LOW:
        __METAL_ACCESS_ONCE(
2010f09a:	fec42783          	lw	a5,-20(s0)
2010f09e:	03478793          	add	a5,a5,52
2010f0a2:	4398                	lw	a4,0(a5)
C:/VSD_Sqd_Project/sifive_hifive1_BitNet_MNIST_App/freedom-metal/src/drivers/sifive_gpio0.c:202
            (__metal_io_u32 *)(base + METAL_SIFIVE_GPIO0_LOW_IP)) |= source;
2010f0a4:	fd842783          	lw	a5,-40(s0)
C:/VSD_Sqd_Project/sifive_hifive1_BitNet_MNIST_App/freedom-metal/src/drivers/sifive_gpio0.c:201
        __METAL_ACCESS_ONCE(
2010f0a8:	fec42683          	lw	a3,-20(s0)
2010f0ac:	03468693          	add	a3,a3,52
C:/VSD_Sqd_Project/sifive_hifive1_BitNet_MNIST_App/freedom-metal/src/drivers/sifive_gpio0.c:202
            (__metal_io_u32 *)(base + METAL_SIFIVE_GPIO0_LOW_IP)) |= source;
2010f0b0:	8fd9                	or	a5,a5,a4
2010f0b2:	c29c                	sw	a5,0(a3)
C:/VSD_Sqd_Project/sifive_hifive1_BitNet_MNIST_App/freedom-metal/src/drivers/sifive_gpio0.c:203
        break;
2010f0b4:	a879                	j	2010f152 <__metal_driver_sifive_gpio0_clear_int+0x17c>
C:/VSD_Sqd_Project/sifive_hifive1_BitNet_MNIST_App/freedom-metal/src/drivers/sifive_gpio0.c:205
    case METAL_GPIO_INT_BOTH_LEVEL:
        __METAL_ACCESS_ONCE(
2010f0b6:	fec42783          	lw	a5,-20(s0)
2010f0ba:	02c78793          	add	a5,a5,44
2010f0be:	4398                	lw	a4,0(a5)
C:/VSD_Sqd_Project/sifive_hifive1_BitNet_MNIST_App/freedom-metal/src/drivers/sifive_gpio0.c:206
            (__metal_io_u32 *)(base + METAL_SIFIVE_GPIO0_HIGH_IP)) |= source;
2010f0c0:	fd842783          	lw	a5,-40(s0)
C:/VSD_Sqd_Project/sifive_hifive1_BitNet_MNIST_App/freedom-metal/src/drivers/sifive_gpio0.c:205
        __METAL_ACCESS_ONCE(
2010f0c4:	fec42683          	lw	a3,-20(s0)
2010f0c8:	02c68693          	add	a3,a3,44
C:/VSD_Sqd_Project/sifive_hifive1_BitNet_MNIST_App/freedom-metal/src/drivers/sifive_gpio0.c:206
            (__metal_io_u32 *)(base + METAL_SIFIVE_GPIO0_HIGH_IP)) |= source;
2010f0cc:	8fd9                	or	a5,a5,a4
2010f0ce:	c29c                	sw	a5,0(a3)
C:/VSD_Sqd_Project/sifive_hifive1_BitNet_MNIST_App/freedom-metal/src/drivers/sifive_gpio0.c:207
        __METAL_ACCESS_ONCE(
2010f0d0:	fec42783          	lw	a5,-20(s0)
2010f0d4:	03478793          	add	a5,a5,52
2010f0d8:	4398                	lw	a4,0(a5)
C:/VSD_Sqd_Project/sifive_hifive1_BitNet_MNIST_App/freedom-metal/src/drivers/sifive_gpio0.c:208
            (__metal_io_u32 *)(base + METAL_SIFIVE_GPIO0_LOW_IP)) |= source;
2010f0da:	fd842783          	lw	a5,-40(s0)
C:/VSD_Sqd_Project/sifive_hifive1_BitNet_MNIST_App/freedom-metal/src/drivers/sifive_gpio0.c:207
        __METAL_ACCESS_ONCE(
2010f0de:	fec42683          	lw	a3,-20(s0)
2010f0e2:	03468693          	add	a3,a3,52
C:/VSD_Sqd_Project/sifive_hifive1_BitNet_MNIST_App/freedom-metal/src/drivers/sifive_gpio0.c:208
            (__metal_io_u32 *)(base + METAL_SIFIVE_GPIO0_LOW_IP)) |= source;
2010f0e6:	8fd9                	or	a5,a5,a4
2010f0e8:	c29c                	sw	a5,0(a3)
C:/VSD_Sqd_Project/sifive_hifive1_BitNet_MNIST_App/freedom-metal/src/drivers/sifive_gpio0.c:209
        break;
2010f0ea:	a0a5                	j	2010f152 <__metal_driver_sifive_gpio0_clear_int+0x17c>
C:/VSD_Sqd_Project/sifive_hifive1_BitNet_MNIST_App/freedom-metal/src/drivers/sifive_gpio0.c:211
    case METAL_GPIO_INT_MAX:
        __METAL_ACCESS_ONCE(
2010f0ec:	fec42783          	lw	a5,-20(s0)
2010f0f0:	07f1                	add	a5,a5,28
2010f0f2:	4398                	lw	a4,0(a5)
C:/VSD_Sqd_Project/sifive_hifive1_BitNet_MNIST_App/freedom-metal/src/drivers/sifive_gpio0.c:212
            (__metal_io_u32 *)(base + METAL_SIFIVE_GPIO0_RISE_IP)) |= source;
2010f0f4:	fd842783          	lw	a5,-40(s0)
C:/VSD_Sqd_Project/sifive_hifive1_BitNet_MNIST_App/freedom-metal/src/drivers/sifive_gpio0.c:211
        __METAL_ACCESS_ONCE(
2010f0f8:	fec42683          	lw	a3,-20(s0)
2010f0fc:	06f1                	add	a3,a3,28
C:/VSD_Sqd_Project/sifive_hifive1_BitNet_MNIST_App/freedom-metal/src/drivers/sifive_gpio0.c:212
            (__metal_io_u32 *)(base + METAL_SIFIVE_GPIO0_RISE_IP)) |= source;
2010f0fe:	8fd9                	or	a5,a5,a4
2010f100:	c29c                	sw	a5,0(a3)
C:/VSD_Sqd_Project/sifive_hifive1_BitNet_MNIST_App/freedom-metal/src/drivers/sifive_gpio0.c:213
        __METAL_ACCESS_ONCE(
2010f102:	fec42783          	lw	a5,-20(s0)
2010f106:	02478793          	add	a5,a5,36
2010f10a:	4398                	lw	a4,0(a5)
C:/VSD_Sqd_Project/sifive_hifive1_BitNet_MNIST_App/freedom-metal/src/drivers/sifive_gpio0.c:214
            (__metal_io_u32 *)(base + METAL_SIFIVE_GPIO0_FALL_IP)) |= source;
2010f10c:	fd842783          	lw	a5,-40(s0)
C:/VSD_Sqd_Project/sifive_hifive1_BitNet_MNIST_App/freedom-metal/src/drivers/sifive_gpio0.c:213
        __METAL_ACCESS_ONCE(
2010f110:	fec42683          	lw	a3,-20(s0)
2010f114:	02468693          	add	a3,a3,36
C:/VSD_Sqd_Project/sifive_hifive1_BitNet_MNIST_App/freedom-metal/src/drivers/sifive_gpio0.c:214
            (__metal_io_u32 *)(base + METAL_SIFIVE_GPIO0_FALL_IP)) |= source;
2010f118:	8fd9                	or	a5,a5,a4
2010f11a:	c29c                	sw	a5,0(a3)
C:/VSD_Sqd_Project/sifive_hifive1_BitNet_MNIST_App/freedom-metal/src/drivers/sifive_gpio0.c:215
        __METAL_ACCESS_ONCE(
2010f11c:	fec42783          	lw	a5,-20(s0)
2010f120:	02c78793          	add	a5,a5,44
2010f124:	4398                	lw	a4,0(a5)
C:/VSD_Sqd_Project/sifive_hifive1_BitNet_MNIST_App/freedom-metal/src/drivers/sifive_gpio0.c:216
            (__metal_io_u32 *)(base + METAL_SIFIVE_GPIO0_HIGH_IP)) |= source;
2010f126:	fd842783          	lw	a5,-40(s0)
C:/VSD_Sqd_Project/sifive_hifive1_BitNet_MNIST_App/freedom-metal/src/drivers/sifive_gpio0.c:215
        __METAL_ACCESS_ONCE(
2010f12a:	fec42683          	lw	a3,-20(s0)
2010f12e:	02c68693          	add	a3,a3,44
C:/VSD_Sqd_Project/sifive_hifive1_BitNet_MNIST_App/freedom-metal/src/drivers/sifive_gpio0.c:216
            (__metal_io_u32 *)(base + METAL_SIFIVE_GPIO0_HIGH_IP)) |= source;
2010f132:	8fd9                	or	a5,a5,a4
2010f134:	c29c                	sw	a5,0(a3)
C:/VSD_Sqd_Project/sifive_hifive1_BitNet_MNIST_App/freedom-metal/src/drivers/sifive_gpio0.c:217
        __METAL_ACCESS_ONCE(
2010f136:	fec42783          	lw	a5,-20(s0)
2010f13a:	03478793          	add	a5,a5,52
2010f13e:	4398                	lw	a4,0(a5)
C:/VSD_Sqd_Project/sifive_hifive1_BitNet_MNIST_App/freedom-metal/src/drivers/sifive_gpio0.c:218
            (__metal_io_u32 *)(base + METAL_SIFIVE_GPIO0_LOW_IP)) |= source;
2010f140:	fd842783          	lw	a5,-40(s0)
C:/VSD_Sqd_Project/sifive_hifive1_BitNet_MNIST_App/freedom-metal/src/drivers/sifive_gpio0.c:217
        __METAL_ACCESS_ONCE(
2010f144:	fec42683          	lw	a3,-20(s0)
2010f148:	03468693          	add	a3,a3,52
C:/VSD_Sqd_Project/sifive_hifive1_BitNet_MNIST_App/freedom-metal/src/drivers/sifive_gpio0.c:218
            (__metal_io_u32 *)(base + METAL_SIFIVE_GPIO0_LOW_IP)) |= source;
2010f14c:	8fd9                	or	a5,a5,a4
2010f14e:	c29c                	sw	a5,0(a3)
C:/VSD_Sqd_Project/sifive_hifive1_BitNet_MNIST_App/freedom-metal/src/drivers/sifive_gpio0.c:219
        break;
2010f150:	0001                	nop
C:/VSD_Sqd_Project/sifive_hifive1_BitNet_MNIST_App/freedom-metal/src/drivers/sifive_gpio0.c:221
    }
    return 0;
2010f152:	4781                	li	a5,0
C:/VSD_Sqd_Project/sifive_hifive1_BitNet_MNIST_App/freedom-metal/src/drivers/sifive_gpio0.c:222
}
2010f154:	853e                	mv	a0,a5
2010f156:	50b2                	lw	ra,44(sp)
2010f158:	5422                	lw	s0,40(sp)
2010f15a:	6145                	add	sp,sp,48
2010f15c:	8082                	ret

2010f15e <__metal_driver_gpio_interrupt_controller>:
__metal_driver_gpio_interrupt_controller():
C:/VSD_Sqd_Project/sifive_hifive1_BitNet_MNIST_App/freedom-metal/src/drivers/sifive_gpio0.c:225

struct metal_interrupt *
__metal_driver_gpio_interrupt_controller(struct metal_gpio *gpio) {
2010f15e:	1101                	add	sp,sp,-32
2010f160:	ce06                	sw	ra,28(sp)
2010f162:	cc22                	sw	s0,24(sp)
2010f164:	1000                	add	s0,sp,32
2010f166:	fea42623          	sw	a0,-20(s0)
C:/VSD_Sqd_Project/sifive_hifive1_BitNet_MNIST_App/freedom-metal/src/drivers/sifive_gpio0.c:226
    return __metal_driver_sifive_gpio0_interrupt_parent(gpio);
2010f16a:	fec42503          	lw	a0,-20(s0)
2010f16e:	fb0ff0ef          	jal	2010e91e <__metal_driver_sifive_gpio0_interrupt_parent>
2010f172:	87aa                	mv	a5,a0
C:/VSD_Sqd_Project/sifive_hifive1_BitNet_MNIST_App/freedom-metal/src/drivers/sifive_gpio0.c:227
}
2010f174:	853e                	mv	a0,a5
2010f176:	40f2                	lw	ra,28(sp)
2010f178:	4462                	lw	s0,24(sp)
2010f17a:	6105                	add	sp,sp,32
2010f17c:	8082                	ret

2010f17e <__metal_driver_gpio_get_interrupt_id>:
__metal_driver_gpio_get_interrupt_id():
C:/VSD_Sqd_Project/sifive_hifive1_BitNet_MNIST_App/freedom-metal/src/drivers/sifive_gpio0.c:229

int __metal_driver_gpio_get_interrupt_id(struct metal_gpio *gpio, int pin) {
2010f17e:	7179                	add	sp,sp,-48
2010f180:	d606                	sw	ra,44(sp)
2010f182:	d422                	sw	s0,40(sp)
2010f184:	1800                	add	s0,sp,48
2010f186:	fca42e23          	sw	a0,-36(s0)
2010f18a:	fcb42c23          	sw	a1,-40(s0)
C:/VSD_Sqd_Project/sifive_hifive1_BitNet_MNIST_App/freedom-metal/src/drivers/sifive_gpio0.c:231
    int irq;
    irq = __metal_driver_sifive_gpio0_interrupt_lines(gpio, pin);
2010f18e:	fd842583          	lw	a1,-40(s0)
2010f192:	fdc42503          	lw	a0,-36(s0)
2010f196:	fb2ff0ef          	jal	2010e948 <__metal_driver_sifive_gpio0_interrupt_lines>
2010f19a:	fea42623          	sw	a0,-20(s0)
C:/VSD_Sqd_Project/sifive_hifive1_BitNet_MNIST_App/freedom-metal/src/drivers/sifive_gpio0.c:232
    return irq;
2010f19e:	fec42783          	lw	a5,-20(s0)
C:/VSD_Sqd_Project/sifive_hifive1_BitNet_MNIST_App/freedom-metal/src/drivers/sifive_gpio0.c:233
}
2010f1a2:	853e                	mv	a0,a5
2010f1a4:	50b2                	lw	ra,44(sp)
2010f1a6:	5422                	lw	s0,40(sp)
2010f1a8:	6145                	add	sp,sp,48
2010f1aa:	8082                	ret

2010f1ac <__metal_driver_sifive_uart0_control_base>:
__metal_driver_sifive_uart0_control_base():
C:\VSD_Sqd_Project\sifive_hifive1_BitNet_MNIST_App\bsp\build\debug/./metal/machine.h:958
{
2010f1ac:	1101                	add	sp,sp,-32
2010f1ae:	ce22                	sw	s0,28(sp)
2010f1b0:	1000                	add	s0,sp,32
2010f1b2:	fea42623          	sw	a0,-20(s0)
C:\VSD_Sqd_Project\sifive_hifive1_BitNet_MNIST_App\bsp\build\debug/./metal/machine.h:959
	if ((uintptr_t)uart == (uintptr_t)&__metal_dt_serial_10013000) {
2010f1b6:	fec42703          	lw	a4,-20(s0)
2010f1ba:	800017b7          	lui	a5,0x80001
2010f1be:	a2878793          	add	a5,a5,-1496 # 80000a28 <__metal_dt_serial_10013000>
2010f1c2:	00f71563          	bne	a4,a5,2010f1cc <__metal_driver_sifive_uart0_control_base+0x20>
C:\VSD_Sqd_Project\sifive_hifive1_BitNet_MNIST_App\bsp\build\debug/./metal/machine.h:960
		return METAL_SIFIVE_UART0_10013000_BASE_ADDRESS;
2010f1c6:	100137b7          	lui	a5,0x10013
2010f1ca:	a011                	j	2010f1ce <__metal_driver_sifive_uart0_control_base+0x22>
C:\VSD_Sqd_Project\sifive_hifive1_BitNet_MNIST_App\bsp\build\debug/./metal/machine.h:963
		return 0;
2010f1cc:	4781                	li	a5,0
C:\VSD_Sqd_Project\sifive_hifive1_BitNet_MNIST_App\bsp\build\debug/./metal/machine.h:965
}
2010f1ce:	853e                	mv	a0,a5
2010f1d0:	4472                	lw	s0,28(sp)
2010f1d2:	6105                	add	sp,sp,32
2010f1d4:	8082                	ret

2010f1d6 <__metal_driver_sifive_uart0_interrupt_parent>:
__metal_driver_sifive_uart0_interrupt_parent():
C:\VSD_Sqd_Project\sifive_hifive1_BitNet_MNIST_App\bsp\build\debug/./metal/machine.h:988
{
2010f1d6:	1101                	add	sp,sp,-32
2010f1d8:	ce22                	sw	s0,28(sp)
2010f1da:	1000                	add	s0,sp,32
2010f1dc:	fea42623          	sw	a0,-20(s0)
C:\VSD_Sqd_Project\sifive_hifive1_BitNet_MNIST_App\bsp\build\debug/./metal/machine.h:989
	if ((uintptr_t)uart == (uintptr_t)&__metal_dt_serial_10013000) {
2010f1e0:	fec42703          	lw	a4,-20(s0)
2010f1e4:	800017b7          	lui	a5,0x80001
2010f1e8:	a2878793          	add	a5,a5,-1496 # 80000a28 <__metal_dt_serial_10013000>
2010f1ec:	00f71763          	bne	a4,a5,2010f1fa <__metal_driver_sifive_uart0_interrupt_parent+0x24>
C:\VSD_Sqd_Project\sifive_hifive1_BitNet_MNIST_App\bsp\build\debug/./metal/machine.h:990
		return (struct metal_interrupt *)&__metal_dt_interrupt_controller_c000000.controller;
2010f1f0:	800007b7          	lui	a5,0x80000
2010f1f4:	45078793          	add	a5,a5,1104 # 80000450 <__metal_dt_interrupt_controller_c000000>
2010f1f8:	a011                	j	2010f1fc <__metal_driver_sifive_uart0_interrupt_parent+0x26>
C:\VSD_Sqd_Project\sifive_hifive1_BitNet_MNIST_App\bsp\build\debug/./metal/machine.h:993
		return 0;
2010f1fa:	4781                	li	a5,0
C:\VSD_Sqd_Project\sifive_hifive1_BitNet_MNIST_App\bsp\build\debug/./metal/machine.h:995
}
2010f1fc:	853e                	mv	a0,a5
2010f1fe:	4472                	lw	s0,28(sp)
2010f200:	6105                	add	sp,sp,32
2010f202:	8082                	ret

2010f204 <__metal_driver_sifive_uart0_interrupt_line>:
__metal_driver_sifive_uart0_interrupt_line():
C:\VSD_Sqd_Project\sifive_hifive1_BitNet_MNIST_App\bsp\build\debug/./metal/machine.h:998
{
2010f204:	1101                	add	sp,sp,-32
2010f206:	ce22                	sw	s0,28(sp)
2010f208:	1000                	add	s0,sp,32
2010f20a:	fea42623          	sw	a0,-20(s0)
C:\VSD_Sqd_Project\sifive_hifive1_BitNet_MNIST_App\bsp\build\debug/./metal/machine.h:999
	if ((uintptr_t)uart == (uintptr_t)&__metal_dt_serial_10013000) {
2010f20e:	fec42703          	lw	a4,-20(s0)
2010f212:	800017b7          	lui	a5,0x80001
2010f216:	a2878793          	add	a5,a5,-1496 # 80000a28 <__metal_dt_serial_10013000>
2010f21a:	00f71463          	bne	a4,a5,2010f222 <__metal_driver_sifive_uart0_interrupt_line+0x1e>
C:\VSD_Sqd_Project\sifive_hifive1_BitNet_MNIST_App\bsp\build\debug/./metal/machine.h:1000
		return 5;
2010f21e:	4795                	li	a5,5
2010f220:	a011                	j	2010f224 <__metal_driver_sifive_uart0_interrupt_line+0x20>
C:\VSD_Sqd_Project\sifive_hifive1_BitNet_MNIST_App\bsp\build\debug/./metal/machine.h:1003
		return 0;
2010f222:	4781                	li	a5,0
C:\VSD_Sqd_Project\sifive_hifive1_BitNet_MNIST_App\bsp\build\debug/./metal/machine.h:1005
}
2010f224:	853e                	mv	a0,a5
2010f226:	4472                	lw	s0,28(sp)
2010f228:	6105                	add	sp,sp,32
2010f22a:	8082                	ret

2010f22c <__metal_driver_sifive_uart0_clock>:
__metal_driver_sifive_uart0_clock():
C:\VSD_Sqd_Project\sifive_hifive1_BitNet_MNIST_App\bsp\build\debug/./metal/machine.h:1008
{
2010f22c:	1101                	add	sp,sp,-32
2010f22e:	ce22                	sw	s0,28(sp)
2010f230:	1000                	add	s0,sp,32
2010f232:	fea42623          	sw	a0,-20(s0)
C:\VSD_Sqd_Project\sifive_hifive1_BitNet_MNIST_App\bsp\build\debug/./metal/machine.h:1009
	if ((uintptr_t)uart == (uintptr_t)&__metal_dt_serial_10013000) {
2010f236:	fec42703          	lw	a4,-20(s0)
2010f23a:	800017b7          	lui	a5,0x80001
2010f23e:	a2878793          	add	a5,a5,-1496 # 80000a28 <__metal_dt_serial_10013000>
2010f242:	00f71763          	bne	a4,a5,2010f250 <__metal_driver_sifive_uart0_clock+0x24>
C:\VSD_Sqd_Project\sifive_hifive1_BitNet_MNIST_App\bsp\build\debug/./metal/machine.h:1010
		return (struct metal_clock *)&__metal_dt_clock_4.clock;
2010f246:	800017b7          	lui	a5,0x80001
2010f24a:	a6078793          	add	a5,a5,-1440 # 80000a60 <__metal_dt_clock_4>
2010f24e:	a011                	j	2010f252 <__metal_driver_sifive_uart0_clock+0x26>
C:\VSD_Sqd_Project\sifive_hifive1_BitNet_MNIST_App\bsp\build\debug/./metal/machine.h:1013
		return 0;
2010f250:	4781                	li	a5,0
C:\VSD_Sqd_Project\sifive_hifive1_BitNet_MNIST_App\bsp\build\debug/./metal/machine.h:1015
}
2010f252:	853e                	mv	a0,a5
2010f254:	4472                	lw	s0,28(sp)
2010f256:	6105                	add	sp,sp,32
2010f258:	8082                	ret

2010f25a <__metal_driver_sifive_uart0_pinmux>:
__metal_driver_sifive_uart0_pinmux():
C:\VSD_Sqd_Project\sifive_hifive1_BitNet_MNIST_App\bsp\build\debug/./metal/machine.h:1018
{
2010f25a:	1101                	add	sp,sp,-32
2010f25c:	ce22                	sw	s0,28(sp)
2010f25e:	1000                	add	s0,sp,32
2010f260:	fea42623          	sw	a0,-20(s0)
C:\VSD_Sqd_Project\sifive_hifive1_BitNet_MNIST_App\bsp\build\debug/./metal/machine.h:1019
	if ((uintptr_t)uart == (uintptr_t)&__metal_dt_serial_10013000) {
2010f264:	fec42703          	lw	a4,-20(s0)
2010f268:	800017b7          	lui	a5,0x80001
2010f26c:	a2878793          	add	a5,a5,-1496 # 80000a28 <__metal_dt_serial_10013000>
2010f270:	00f71563          	bne	a4,a5,2010f27a <__metal_driver_sifive_uart0_pinmux+0x20>
C:\VSD_Sqd_Project\sifive_hifive1_BitNet_MNIST_App\bsp\build\debug/./metal/machine.h:1020
		return (struct __metal_driver_sifive_gpio0 *)&__metal_dt_gpio_10012000;
2010f274:	81c18793          	add	a5,gp,-2020 # 80000a8c <__metal_dt_gpio_10012000>
2010f278:	a011                	j	2010f27c <__metal_driver_sifive_uart0_pinmux+0x22>
C:\VSD_Sqd_Project\sifive_hifive1_BitNet_MNIST_App\bsp\build\debug/./metal/machine.h:1023
		return 0;
2010f27a:	4781                	li	a5,0
C:\VSD_Sqd_Project\sifive_hifive1_BitNet_MNIST_App\bsp\build\debug/./metal/machine.h:1025
}
2010f27c:	853e                	mv	a0,a5
2010f27e:	4472                	lw	s0,28(sp)
2010f280:	6105                	add	sp,sp,32
2010f282:	8082                	ret

2010f284 <__metal_driver_sifive_uart0_pinmux_output_selector>:
__metal_driver_sifive_uart0_pinmux_output_selector():
C:\VSD_Sqd_Project\sifive_hifive1_BitNet_MNIST_App\bsp\build\debug/./metal/machine.h:1028
{
2010f284:	1101                	add	sp,sp,-32
2010f286:	ce22                	sw	s0,28(sp)
2010f288:	1000                	add	s0,sp,32
2010f28a:	fea42623          	sw	a0,-20(s0)
C:\VSD_Sqd_Project\sifive_hifive1_BitNet_MNIST_App\bsp\build\debug/./metal/machine.h:1029
	if ((uintptr_t)uart == (uintptr_t)&__metal_dt_serial_10013000) {
2010f28e:	fec42703          	lw	a4,-20(s0)
2010f292:	800017b7          	lui	a5,0x80001
2010f296:	a2878793          	add	a5,a5,-1496 # 80000a28 <__metal_dt_serial_10013000>
2010f29a:	00f71463          	bne	a4,a5,2010f2a2 <__metal_driver_sifive_uart0_pinmux_output_selector+0x1e>
C:\VSD_Sqd_Project\sifive_hifive1_BitNet_MNIST_App\bsp\build\debug/./metal/machine.h:1030
		return 0;
2010f29e:	4781                	li	a5,0
2010f2a0:	a011                	j	2010f2a4 <__metal_driver_sifive_uart0_pinmux_output_selector+0x20>
C:\VSD_Sqd_Project\sifive_hifive1_BitNet_MNIST_App\bsp\build\debug/./metal/machine.h:1033
		return 0;
2010f2a2:	4781                	li	a5,0
C:\VSD_Sqd_Project\sifive_hifive1_BitNet_MNIST_App\bsp\build\debug/./metal/machine.h:1035
}
2010f2a4:	853e                	mv	a0,a5
2010f2a6:	4472                	lw	s0,28(sp)
2010f2a8:	6105                	add	sp,sp,32
2010f2aa:	8082                	ret

2010f2ac <__metal_driver_sifive_uart0_pinmux_source_selector>:
__metal_driver_sifive_uart0_pinmux_source_selector():
C:\VSD_Sqd_Project\sifive_hifive1_BitNet_MNIST_App\bsp\build\debug/./metal/machine.h:1038
{
2010f2ac:	1101                	add	sp,sp,-32
2010f2ae:	ce22                	sw	s0,28(sp)
2010f2b0:	1000                	add	s0,sp,32
2010f2b2:	fea42623          	sw	a0,-20(s0)
C:\VSD_Sqd_Project\sifive_hifive1_BitNet_MNIST_App\bsp\build\debug/./metal/machine.h:1039
	if ((uintptr_t)uart == (uintptr_t)&__metal_dt_serial_10013000) {
2010f2b6:	fec42703          	lw	a4,-20(s0)
2010f2ba:	800017b7          	lui	a5,0x80001
2010f2be:	a2878793          	add	a5,a5,-1496 # 80000a28 <__metal_dt_serial_10013000>
2010f2c2:	00f71563          	bne	a4,a5,2010f2cc <__metal_driver_sifive_uart0_pinmux_source_selector+0x20>
C:\VSD_Sqd_Project\sifive_hifive1_BitNet_MNIST_App\bsp\build\debug/./metal/machine.h:1040
		return 196608;
2010f2c6:	000307b7          	lui	a5,0x30
2010f2ca:	a011                	j	2010f2ce <__metal_driver_sifive_uart0_pinmux_source_selector+0x22>
C:\VSD_Sqd_Project\sifive_hifive1_BitNet_MNIST_App\bsp\build\debug/./metal/machine.h:1043
		return 0;
2010f2cc:	4781                	li	a5,0
C:\VSD_Sqd_Project\sifive_hifive1_BitNet_MNIST_App\bsp\build\debug/./metal/machine.h:1045
}
2010f2ce:	853e                	mv	a0,a5
2010f2d0:	4472                	lw	s0,28(sp)
2010f2d2:	6105                	add	sp,sp,32
2010f2d4:	8082                	ret

2010f2d6 <__metal_driver_sifive_uart0_interrupt_controller>:
__metal_driver_sifive_uart0_interrupt_controller():
C:/VSD_Sqd_Project/sifive_hifive1_BitNet_MNIST_App/freedom-metal/src/drivers/sifive_uart0.c:37
    (__METAL_ACCESS_ONCE((__metal_io_u8 *)UART_REG(offset)))
#define UART_REGW(offset)                                                      \
    (__METAL_ACCESS_ONCE((__metal_io_u32 *)UART_REG(offset)))

struct metal_interrupt *
__metal_driver_sifive_uart0_interrupt_controller(struct metal_uart *uart) {
2010f2d6:	1101                	add	sp,sp,-32
2010f2d8:	ce06                	sw	ra,28(sp)
2010f2da:	cc22                	sw	s0,24(sp)
2010f2dc:	1000                	add	s0,sp,32
2010f2de:	fea42623          	sw	a0,-20(s0)
C:/VSD_Sqd_Project/sifive_hifive1_BitNet_MNIST_App/freedom-metal/src/drivers/sifive_uart0.c:38
    return __metal_driver_sifive_uart0_interrupt_parent(uart);
2010f2e2:	fec42503          	lw	a0,-20(s0)
2010f2e6:	ef1ff0ef          	jal	2010f1d6 <__metal_driver_sifive_uart0_interrupt_parent>
2010f2ea:	87aa                	mv	a5,a0
C:/VSD_Sqd_Project/sifive_hifive1_BitNet_MNIST_App/freedom-metal/src/drivers/sifive_uart0.c:39
}
2010f2ec:	853e                	mv	a0,a5
2010f2ee:	40f2                	lw	ra,28(sp)
2010f2f0:	4462                	lw	s0,24(sp)
2010f2f2:	6105                	add	sp,sp,32
2010f2f4:	8082                	ret

2010f2f6 <__metal_driver_sifive_uart0_get_interrupt_id>:
__metal_driver_sifive_uart0_get_interrupt_id():
C:/VSD_Sqd_Project/sifive_hifive1_BitNet_MNIST_App/freedom-metal/src/drivers/sifive_uart0.c:41

int __metal_driver_sifive_uart0_get_interrupt_id(struct metal_uart *uart) {
2010f2f6:	1101                	add	sp,sp,-32
2010f2f8:	ce06                	sw	ra,28(sp)
2010f2fa:	cc22                	sw	s0,24(sp)
2010f2fc:	1000                	add	s0,sp,32
2010f2fe:	fea42623          	sw	a0,-20(s0)
C:/VSD_Sqd_Project/sifive_hifive1_BitNet_MNIST_App/freedom-metal/src/drivers/sifive_uart0.c:42
    return __metal_driver_sifive_uart0_interrupt_line(uart);
2010f302:	fec42503          	lw	a0,-20(s0)
2010f306:	effff0ef          	jal	2010f204 <__metal_driver_sifive_uart0_interrupt_line>
2010f30a:	87aa                	mv	a5,a0
C:/VSD_Sqd_Project/sifive_hifive1_BitNet_MNIST_App/freedom-metal/src/drivers/sifive_uart0.c:43
}
2010f30c:	853e                	mv	a0,a5
2010f30e:	40f2                	lw	ra,28(sp)
2010f310:	4462                	lw	s0,24(sp)
2010f312:	6105                	add	sp,sp,32
2010f314:	8082                	ret

2010f316 <__metal_driver_sifive_uart0_tx_interrupt_enable>:
__metal_driver_sifive_uart0_tx_interrupt_enable():
C:/VSD_Sqd_Project/sifive_hifive1_BitNet_MNIST_App/freedom-metal/src/drivers/sifive_uart0.c:45

int __metal_driver_sifive_uart0_tx_interrupt_enable(struct metal_uart *uart) {
2010f316:	7179                	add	sp,sp,-48
2010f318:	d606                	sw	ra,44(sp)
2010f31a:	d422                	sw	s0,40(sp)
2010f31c:	1800                	add	s0,sp,48
2010f31e:	fca42e23          	sw	a0,-36(s0)
C:/VSD_Sqd_Project/sifive_hifive1_BitNet_MNIST_App/freedom-metal/src/drivers/sifive_uart0.c:46
    long control_base = __metal_driver_sifive_uart0_control_base(uart);
2010f322:	fdc42503          	lw	a0,-36(s0)
2010f326:	e87ff0ef          	jal	2010f1ac <__metal_driver_sifive_uart0_control_base>
2010f32a:	87aa                	mv	a5,a0
C:/VSD_Sqd_Project/sifive_hifive1_BitNet_MNIST_App/freedom-metal/src/drivers/sifive_uart0.c:46 (discriminator 1)
2010f32c:	fef42623          	sw	a5,-20(s0)
C:/VSD_Sqd_Project/sifive_hifive1_BitNet_MNIST_App/freedom-metal/src/drivers/sifive_uart0.c:48

    UART_REGW(METAL_SIFIVE_UART0_IE) |= UART_TXWM;
2010f330:	fec42783          	lw	a5,-20(s0)
2010f334:	07c1                	add	a5,a5,16 # 30010 <__heap_size+0x2f810>
2010f336:	439c                	lw	a5,0(a5)
2010f338:	fec42703          	lw	a4,-20(s0)
2010f33c:	0741                	add	a4,a4,16
2010f33e:	0017e793          	or	a5,a5,1
2010f342:	c31c                	sw	a5,0(a4)
C:/VSD_Sqd_Project/sifive_hifive1_BitNet_MNIST_App/freedom-metal/src/drivers/sifive_uart0.c:49
    return 0;
2010f344:	4781                	li	a5,0
C:/VSD_Sqd_Project/sifive_hifive1_BitNet_MNIST_App/freedom-metal/src/drivers/sifive_uart0.c:50
}
2010f346:	853e                	mv	a0,a5
2010f348:	50b2                	lw	ra,44(sp)
2010f34a:	5422                	lw	s0,40(sp)
2010f34c:	6145                	add	sp,sp,48
2010f34e:	8082                	ret

2010f350 <__metal_driver_sifive_uart0_tx_interrupt_disable>:
__metal_driver_sifive_uart0_tx_interrupt_disable():
C:/VSD_Sqd_Project/sifive_hifive1_BitNet_MNIST_App/freedom-metal/src/drivers/sifive_uart0.c:52

int __metal_driver_sifive_uart0_tx_interrupt_disable(struct metal_uart *uart) {
2010f350:	7179                	add	sp,sp,-48
2010f352:	d606                	sw	ra,44(sp)
2010f354:	d422                	sw	s0,40(sp)
2010f356:	1800                	add	s0,sp,48
2010f358:	fca42e23          	sw	a0,-36(s0)
C:/VSD_Sqd_Project/sifive_hifive1_BitNet_MNIST_App/freedom-metal/src/drivers/sifive_uart0.c:53
    long control_base = __metal_driver_sifive_uart0_control_base(uart);
2010f35c:	fdc42503          	lw	a0,-36(s0)
2010f360:	e4dff0ef          	jal	2010f1ac <__metal_driver_sifive_uart0_control_base>
2010f364:	87aa                	mv	a5,a0
C:/VSD_Sqd_Project/sifive_hifive1_BitNet_MNIST_App/freedom-metal/src/drivers/sifive_uart0.c:53 (discriminator 1)
2010f366:	fef42623          	sw	a5,-20(s0)
C:/VSD_Sqd_Project/sifive_hifive1_BitNet_MNIST_App/freedom-metal/src/drivers/sifive_uart0.c:55

    UART_REGW(METAL_SIFIVE_UART0_IE) &= ~UART_TXWM;
2010f36a:	fec42783          	lw	a5,-20(s0)
2010f36e:	07c1                	add	a5,a5,16
2010f370:	439c                	lw	a5,0(a5)
2010f372:	fec42703          	lw	a4,-20(s0)
2010f376:	0741                	add	a4,a4,16
2010f378:	9bf9                	and	a5,a5,-2
2010f37a:	c31c                	sw	a5,0(a4)
C:/VSD_Sqd_Project/sifive_hifive1_BitNet_MNIST_App/freedom-metal/src/drivers/sifive_uart0.c:56
    return 0;
2010f37c:	4781                	li	a5,0
C:/VSD_Sqd_Project/sifive_hifive1_BitNet_MNIST_App/freedom-metal/src/drivers/sifive_uart0.c:57
}
2010f37e:	853e                	mv	a0,a5
2010f380:	50b2                	lw	ra,44(sp)
2010f382:	5422                	lw	s0,40(sp)
2010f384:	6145                	add	sp,sp,48
2010f386:	8082                	ret

2010f388 <__metal_driver_sifive_uart0_rx_interrupt_enable>:
__metal_driver_sifive_uart0_rx_interrupt_enable():
C:/VSD_Sqd_Project/sifive_hifive1_BitNet_MNIST_App/freedom-metal/src/drivers/sifive_uart0.c:59

int __metal_driver_sifive_uart0_rx_interrupt_enable(struct metal_uart *uart) {
2010f388:	7179                	add	sp,sp,-48
2010f38a:	d606                	sw	ra,44(sp)
2010f38c:	d422                	sw	s0,40(sp)
2010f38e:	1800                	add	s0,sp,48
2010f390:	fca42e23          	sw	a0,-36(s0)
C:/VSD_Sqd_Project/sifive_hifive1_BitNet_MNIST_App/freedom-metal/src/drivers/sifive_uart0.c:60
    long control_base = __metal_driver_sifive_uart0_control_base(uart);
2010f394:	fdc42503          	lw	a0,-36(s0)
2010f398:	e15ff0ef          	jal	2010f1ac <__metal_driver_sifive_uart0_control_base>
2010f39c:	87aa                	mv	a5,a0
C:/VSD_Sqd_Project/sifive_hifive1_BitNet_MNIST_App/freedom-metal/src/drivers/sifive_uart0.c:60 (discriminator 1)
2010f39e:	fef42623          	sw	a5,-20(s0)
C:/VSD_Sqd_Project/sifive_hifive1_BitNet_MNIST_App/freedom-metal/src/drivers/sifive_uart0.c:62

    UART_REGW(METAL_SIFIVE_UART0_IE) |= UART_RXWM;
2010f3a2:	fec42783          	lw	a5,-20(s0)
2010f3a6:	07c1                	add	a5,a5,16
2010f3a8:	439c                	lw	a5,0(a5)
2010f3aa:	fec42703          	lw	a4,-20(s0)
2010f3ae:	0741                	add	a4,a4,16
2010f3b0:	0027e793          	or	a5,a5,2
2010f3b4:	c31c                	sw	a5,0(a4)
C:/VSD_Sqd_Project/sifive_hifive1_BitNet_MNIST_App/freedom-metal/src/drivers/sifive_uart0.c:63
    return 0;
2010f3b6:	4781                	li	a5,0
C:/VSD_Sqd_Project/sifive_hifive1_BitNet_MNIST_App/freedom-metal/src/drivers/sifive_uart0.c:64
}
2010f3b8:	853e                	mv	a0,a5
2010f3ba:	50b2                	lw	ra,44(sp)
2010f3bc:	5422                	lw	s0,40(sp)
2010f3be:	6145                	add	sp,sp,48
2010f3c0:	8082                	ret

2010f3c2 <__metal_driver_sifive_uart0_rx_interrupt_disable>:
__metal_driver_sifive_uart0_rx_interrupt_disable():
C:/VSD_Sqd_Project/sifive_hifive1_BitNet_MNIST_App/freedom-metal/src/drivers/sifive_uart0.c:66

int __metal_driver_sifive_uart0_rx_interrupt_disable(struct metal_uart *uart) {
2010f3c2:	7179                	add	sp,sp,-48
2010f3c4:	d606                	sw	ra,44(sp)
2010f3c6:	d422                	sw	s0,40(sp)
2010f3c8:	1800                	add	s0,sp,48
2010f3ca:	fca42e23          	sw	a0,-36(s0)
C:/VSD_Sqd_Project/sifive_hifive1_BitNet_MNIST_App/freedom-metal/src/drivers/sifive_uart0.c:67
    long control_base = __metal_driver_sifive_uart0_control_base(uart);
2010f3ce:	fdc42503          	lw	a0,-36(s0)
2010f3d2:	ddbff0ef          	jal	2010f1ac <__metal_driver_sifive_uart0_control_base>
2010f3d6:	87aa                	mv	a5,a0
C:/VSD_Sqd_Project/sifive_hifive1_BitNet_MNIST_App/freedom-metal/src/drivers/sifive_uart0.c:67 (discriminator 1)
2010f3d8:	fef42623          	sw	a5,-20(s0)
C:/VSD_Sqd_Project/sifive_hifive1_BitNet_MNIST_App/freedom-metal/src/drivers/sifive_uart0.c:69

    UART_REGW(METAL_SIFIVE_UART0_IE) &= ~UART_RXWM;
2010f3dc:	fec42783          	lw	a5,-20(s0)
2010f3e0:	07c1                	add	a5,a5,16
2010f3e2:	439c                	lw	a5,0(a5)
2010f3e4:	fec42703          	lw	a4,-20(s0)
2010f3e8:	0741                	add	a4,a4,16
2010f3ea:	9bf5                	and	a5,a5,-3
2010f3ec:	c31c                	sw	a5,0(a4)
C:/VSD_Sqd_Project/sifive_hifive1_BitNet_MNIST_App/freedom-metal/src/drivers/sifive_uart0.c:70
    return 0;
2010f3ee:	4781                	li	a5,0
C:/VSD_Sqd_Project/sifive_hifive1_BitNet_MNIST_App/freedom-metal/src/drivers/sifive_uart0.c:71
}
2010f3f0:	853e                	mv	a0,a5
2010f3f2:	50b2                	lw	ra,44(sp)
2010f3f4:	5422                	lw	s0,40(sp)
2010f3f6:	6145                	add	sp,sp,48
2010f3f8:	8082                	ret

2010f3fa <__metal_driver_sifive_uart0_txready>:
__metal_driver_sifive_uart0_txready():
C:/VSD_Sqd_Project/sifive_hifive1_BitNet_MNIST_App/freedom-metal/src/drivers/sifive_uart0.c:73

int __metal_driver_sifive_uart0_txready(struct metal_uart *uart) {
2010f3fa:	7179                	add	sp,sp,-48
2010f3fc:	d606                	sw	ra,44(sp)
2010f3fe:	d422                	sw	s0,40(sp)
2010f400:	1800                	add	s0,sp,48
2010f402:	fca42e23          	sw	a0,-36(s0)
C:/VSD_Sqd_Project/sifive_hifive1_BitNet_MNIST_App/freedom-metal/src/drivers/sifive_uart0.c:74
    long control_base = __metal_driver_sifive_uart0_control_base(uart);
2010f406:	fdc42503          	lw	a0,-36(s0)
2010f40a:	da3ff0ef          	jal	2010f1ac <__metal_driver_sifive_uart0_control_base>
2010f40e:	87aa                	mv	a5,a0
C:/VSD_Sqd_Project/sifive_hifive1_BitNet_MNIST_App/freedom-metal/src/drivers/sifive_uart0.c:74 (discriminator 1)
2010f410:	fef42623          	sw	a5,-20(s0)
C:/VSD_Sqd_Project/sifive_hifive1_BitNet_MNIST_App/freedom-metal/src/drivers/sifive_uart0.c:76

    return !!((UART_REGW(METAL_SIFIVE_UART0_TXDATA) & UART_TXFULL));
2010f414:	fec42783          	lw	a5,-20(s0)
2010f418:	439c                	lw	a5,0(a5)
2010f41a:	83fd                	srl	a5,a5,0x1f
2010f41c:	0ff7f793          	zext.b	a5,a5
C:/VSD_Sqd_Project/sifive_hifive1_BitNet_MNIST_App/freedom-metal/src/drivers/sifive_uart0.c:77
}
2010f420:	853e                	mv	a0,a5
2010f422:	50b2                	lw	ra,44(sp)
2010f424:	5422                	lw	s0,40(sp)
2010f426:	6145                	add	sp,sp,48
2010f428:	8082                	ret

2010f42a <__metal_driver_sifive_uart0_set_tx_watermark>:
__metal_driver_sifive_uart0_set_tx_watermark():
C:/VSD_Sqd_Project/sifive_hifive1_BitNet_MNIST_App/freedom-metal/src/drivers/sifive_uart0.c:80

int __metal_driver_sifive_uart0_set_tx_watermark(struct metal_uart *uart,
                                                 size_t level) {
2010f42a:	7179                	add	sp,sp,-48
2010f42c:	d606                	sw	ra,44(sp)
2010f42e:	d422                	sw	s0,40(sp)
2010f430:	1800                	add	s0,sp,48
2010f432:	fca42e23          	sw	a0,-36(s0)
2010f436:	fcb42c23          	sw	a1,-40(s0)
C:/VSD_Sqd_Project/sifive_hifive1_BitNet_MNIST_App/freedom-metal/src/drivers/sifive_uart0.c:81
    long control_base = __metal_driver_sifive_uart0_control_base(uart);
2010f43a:	fdc42503          	lw	a0,-36(s0)
2010f43e:	d6fff0ef          	jal	2010f1ac <__metal_driver_sifive_uart0_control_base>
2010f442:	87aa                	mv	a5,a0
C:/VSD_Sqd_Project/sifive_hifive1_BitNet_MNIST_App/freedom-metal/src/drivers/sifive_uart0.c:81 (discriminator 1)
2010f444:	fef42623          	sw	a5,-20(s0)
C:/VSD_Sqd_Project/sifive_hifive1_BitNet_MNIST_App/freedom-metal/src/drivers/sifive_uart0.c:83

    UART_REGW(METAL_SIFIVE_UART0_TXCTRL) |= UART_TXCNT(level);
2010f448:	fec42783          	lw	a5,-20(s0)
2010f44c:	07a1                	add	a5,a5,8
2010f44e:	4398                	lw	a4,0(a5)
2010f450:	fd842783          	lw	a5,-40(s0)
2010f454:	01079693          	sll	a3,a5,0x10
2010f458:	000707b7          	lui	a5,0x70
2010f45c:	8ff5                	and	a5,a5,a3
2010f45e:	fec42683          	lw	a3,-20(s0)
2010f462:	06a1                	add	a3,a3,8
2010f464:	8fd9                	or	a5,a5,a4
2010f466:	c29c                	sw	a5,0(a3)
C:/VSD_Sqd_Project/sifive_hifive1_BitNet_MNIST_App/freedom-metal/src/drivers/sifive_uart0.c:84
    return 0;
2010f468:	4781                	li	a5,0
C:/VSD_Sqd_Project/sifive_hifive1_BitNet_MNIST_App/freedom-metal/src/drivers/sifive_uart0.c:85
}
2010f46a:	853e                	mv	a0,a5
2010f46c:	50b2                	lw	ra,44(sp)
2010f46e:	5422                	lw	s0,40(sp)
2010f470:	6145                	add	sp,sp,48
2010f472:	8082                	ret

2010f474 <__metal_driver_sifive_uart0_get_tx_watermark>:
__metal_driver_sifive_uart0_get_tx_watermark():
C:/VSD_Sqd_Project/sifive_hifive1_BitNet_MNIST_App/freedom-metal/src/drivers/sifive_uart0.c:87

size_t __metal_driver_sifive_uart0_get_tx_watermark(struct metal_uart *uart) {
2010f474:	7179                	add	sp,sp,-48
2010f476:	d606                	sw	ra,44(sp)
2010f478:	d422                	sw	s0,40(sp)
2010f47a:	1800                	add	s0,sp,48
2010f47c:	fca42e23          	sw	a0,-36(s0)
C:/VSD_Sqd_Project/sifive_hifive1_BitNet_MNIST_App/freedom-metal/src/drivers/sifive_uart0.c:88
    long control_base = __metal_driver_sifive_uart0_control_base(uart);
2010f480:	fdc42503          	lw	a0,-36(s0)
2010f484:	d29ff0ef          	jal	2010f1ac <__metal_driver_sifive_uart0_control_base>
2010f488:	87aa                	mv	a5,a0
C:/VSD_Sqd_Project/sifive_hifive1_BitNet_MNIST_App/freedom-metal/src/drivers/sifive_uart0.c:88 (discriminator 1)
2010f48a:	fef42623          	sw	a5,-20(s0)
C:/VSD_Sqd_Project/sifive_hifive1_BitNet_MNIST_App/freedom-metal/src/drivers/sifive_uart0.c:90

    return ((UART_REGW(METAL_SIFIVE_UART0_TXCTRL) >> 16) & 0x7);
2010f48e:	fec42783          	lw	a5,-20(s0)
2010f492:	07a1                	add	a5,a5,8 # 70008 <__heap_size+0x6f808>
2010f494:	439c                	lw	a5,0(a5)
2010f496:	83c1                	srl	a5,a5,0x10
2010f498:	8b9d                	and	a5,a5,7
C:/VSD_Sqd_Project/sifive_hifive1_BitNet_MNIST_App/freedom-metal/src/drivers/sifive_uart0.c:91
}
2010f49a:	853e                	mv	a0,a5
2010f49c:	50b2                	lw	ra,44(sp)
2010f49e:	5422                	lw	s0,40(sp)
2010f4a0:	6145                	add	sp,sp,48
2010f4a2:	8082                	ret

2010f4a4 <__metal_driver_sifive_uart0_set_rx_watermark>:
__metal_driver_sifive_uart0_set_rx_watermark():
C:/VSD_Sqd_Project/sifive_hifive1_BitNet_MNIST_App/freedom-metal/src/drivers/sifive_uart0.c:94

int __metal_driver_sifive_uart0_set_rx_watermark(struct metal_uart *uart,
                                                 size_t level) {
2010f4a4:	7179                	add	sp,sp,-48
2010f4a6:	d606                	sw	ra,44(sp)
2010f4a8:	d422                	sw	s0,40(sp)
2010f4aa:	1800                	add	s0,sp,48
2010f4ac:	fca42e23          	sw	a0,-36(s0)
2010f4b0:	fcb42c23          	sw	a1,-40(s0)
C:/VSD_Sqd_Project/sifive_hifive1_BitNet_MNIST_App/freedom-metal/src/drivers/sifive_uart0.c:95
    long control_base = __metal_driver_sifive_uart0_control_base(uart);
2010f4b4:	fdc42503          	lw	a0,-36(s0)
2010f4b8:	cf5ff0ef          	jal	2010f1ac <__metal_driver_sifive_uart0_control_base>
2010f4bc:	87aa                	mv	a5,a0
C:/VSD_Sqd_Project/sifive_hifive1_BitNet_MNIST_App/freedom-metal/src/drivers/sifive_uart0.c:95 (discriminator 1)
2010f4be:	fef42623          	sw	a5,-20(s0)
C:/VSD_Sqd_Project/sifive_hifive1_BitNet_MNIST_App/freedom-metal/src/drivers/sifive_uart0.c:97

    UART_REGW(METAL_SIFIVE_UART0_RXCTRL) |= UART_RXCNT(level);
2010f4c2:	fec42783          	lw	a5,-20(s0)
2010f4c6:	07b1                	add	a5,a5,12
2010f4c8:	4398                	lw	a4,0(a5)
2010f4ca:	fd842783          	lw	a5,-40(s0)
2010f4ce:	01079693          	sll	a3,a5,0x10
2010f4d2:	000707b7          	lui	a5,0x70
2010f4d6:	8ff5                	and	a5,a5,a3
2010f4d8:	fec42683          	lw	a3,-20(s0)
2010f4dc:	06b1                	add	a3,a3,12
2010f4de:	8fd9                	or	a5,a5,a4
2010f4e0:	c29c                	sw	a5,0(a3)
C:/VSD_Sqd_Project/sifive_hifive1_BitNet_MNIST_App/freedom-metal/src/drivers/sifive_uart0.c:98
    return 0;
2010f4e2:	4781                	li	a5,0
C:/VSD_Sqd_Project/sifive_hifive1_BitNet_MNIST_App/freedom-metal/src/drivers/sifive_uart0.c:99
}
2010f4e4:	853e                	mv	a0,a5
2010f4e6:	50b2                	lw	ra,44(sp)
2010f4e8:	5422                	lw	s0,40(sp)
2010f4ea:	6145                	add	sp,sp,48
2010f4ec:	8082                	ret

2010f4ee <__metal_driver_sifive_uart0_get_rx_watermark>:
__metal_driver_sifive_uart0_get_rx_watermark():
C:/VSD_Sqd_Project/sifive_hifive1_BitNet_MNIST_App/freedom-metal/src/drivers/sifive_uart0.c:101

size_t __metal_driver_sifive_uart0_get_rx_watermark(struct metal_uart *uart) {
2010f4ee:	7179                	add	sp,sp,-48
2010f4f0:	d606                	sw	ra,44(sp)
2010f4f2:	d422                	sw	s0,40(sp)
2010f4f4:	1800                	add	s0,sp,48
2010f4f6:	fca42e23          	sw	a0,-36(s0)
C:/VSD_Sqd_Project/sifive_hifive1_BitNet_MNIST_App/freedom-metal/src/drivers/sifive_uart0.c:102
    long control_base = __metal_driver_sifive_uart0_control_base(uart);
2010f4fa:	fdc42503          	lw	a0,-36(s0)
2010f4fe:	cafff0ef          	jal	2010f1ac <__metal_driver_sifive_uart0_control_base>
2010f502:	87aa                	mv	a5,a0
C:/VSD_Sqd_Project/sifive_hifive1_BitNet_MNIST_App/freedom-metal/src/drivers/sifive_uart0.c:102 (discriminator 1)
2010f504:	fef42623          	sw	a5,-20(s0)
C:/VSD_Sqd_Project/sifive_hifive1_BitNet_MNIST_App/freedom-metal/src/drivers/sifive_uart0.c:104

    return ((UART_REGW(METAL_SIFIVE_UART0_RXCTRL) >> 16) & 0x7);
2010f508:	fec42783          	lw	a5,-20(s0)
2010f50c:	07b1                	add	a5,a5,12 # 7000c <__heap_size+0x6f80c>
2010f50e:	439c                	lw	a5,0(a5)
2010f510:	83c1                	srl	a5,a5,0x10
2010f512:	8b9d                	and	a5,a5,7
C:/VSD_Sqd_Project/sifive_hifive1_BitNet_MNIST_App/freedom-metal/src/drivers/sifive_uart0.c:105
}
2010f514:	853e                	mv	a0,a5
2010f516:	50b2                	lw	ra,44(sp)
2010f518:	5422                	lw	s0,40(sp)
2010f51a:	6145                	add	sp,sp,48
2010f51c:	8082                	ret

2010f51e <__metal_driver_sifive_uart0_putc>:
__metal_driver_sifive_uart0_putc():
C:/VSD_Sqd_Project/sifive_hifive1_BitNet_MNIST_App/freedom-metal/src/drivers/sifive_uart0.c:107

int __metal_driver_sifive_uart0_putc(struct metal_uart *uart, int c) {
2010f51e:	7179                	add	sp,sp,-48
2010f520:	d606                	sw	ra,44(sp)
2010f522:	d422                	sw	s0,40(sp)
2010f524:	1800                	add	s0,sp,48
2010f526:	fca42e23          	sw	a0,-36(s0)
2010f52a:	fcb42c23          	sw	a1,-40(s0)
C:/VSD_Sqd_Project/sifive_hifive1_BitNet_MNIST_App/freedom-metal/src/drivers/sifive_uart0.c:108
    long control_base = __metal_driver_sifive_uart0_control_base(uart);
2010f52e:	fdc42503          	lw	a0,-36(s0)
2010f532:	c7bff0ef          	jal	2010f1ac <__metal_driver_sifive_uart0_control_base>
2010f536:	87aa                	mv	a5,a0
C:/VSD_Sqd_Project/sifive_hifive1_BitNet_MNIST_App/freedom-metal/src/drivers/sifive_uart0.c:108 (discriminator 1)
2010f538:	fef42623          	sw	a5,-20(s0)
C:/VSD_Sqd_Project/sifive_hifive1_BitNet_MNIST_App/freedom-metal/src/drivers/sifive_uart0.c:110

    while (__metal_driver_sifive_uart0_txready(uart) != 0) {
2010f53c:	0001                	nop
C:/VSD_Sqd_Project/sifive_hifive1_BitNet_MNIST_App/freedom-metal/src/drivers/sifive_uart0.c:110 (discriminator 1)
2010f53e:	fdc42503          	lw	a0,-36(s0)
2010f542:	eb9ff0ef          	jal	2010f3fa <__metal_driver_sifive_uart0_txready>
2010f546:	87aa                	mv	a5,a0
2010f548:	fbfd                	bnez	a5,2010f53e <__metal_driver_sifive_uart0_putc+0x20>
C:/VSD_Sqd_Project/sifive_hifive1_BitNet_MNIST_App/freedom-metal/src/drivers/sifive_uart0.c:113
        /* wait */
    }
    UART_REGW(METAL_SIFIVE_UART0_TXDATA) = c;
2010f54a:	fec42783          	lw	a5,-20(s0)
2010f54e:	fd842703          	lw	a4,-40(s0)
2010f552:	c398                	sw	a4,0(a5)
C:/VSD_Sqd_Project/sifive_hifive1_BitNet_MNIST_App/freedom-metal/src/drivers/sifive_uart0.c:114
    return 0;
2010f554:	4781                	li	a5,0
C:/VSD_Sqd_Project/sifive_hifive1_BitNet_MNIST_App/freedom-metal/src/drivers/sifive_uart0.c:115
}
2010f556:	853e                	mv	a0,a5
2010f558:	50b2                	lw	ra,44(sp)
2010f55a:	5422                	lw	s0,40(sp)
2010f55c:	6145                	add	sp,sp,48
2010f55e:	8082                	ret

2010f560 <__metal_driver_sifive_uart0_getc>:
__metal_driver_sifive_uart0_getc():
C:/VSD_Sqd_Project/sifive_hifive1_BitNet_MNIST_App/freedom-metal/src/drivers/sifive_uart0.c:117

int __metal_driver_sifive_uart0_getc(struct metal_uart *uart, int *c) {
2010f560:	7179                	add	sp,sp,-48
2010f562:	d606                	sw	ra,44(sp)
2010f564:	d422                	sw	s0,40(sp)
2010f566:	1800                	add	s0,sp,48
2010f568:	fca42e23          	sw	a0,-36(s0)
2010f56c:	fcb42c23          	sw	a1,-40(s0)
C:/VSD_Sqd_Project/sifive_hifive1_BitNet_MNIST_App/freedom-metal/src/drivers/sifive_uart0.c:119
    uint32_t ch;
    long control_base = __metal_driver_sifive_uart0_control_base(uart);
2010f570:	fdc42503          	lw	a0,-36(s0)
2010f574:	c39ff0ef          	jal	2010f1ac <__metal_driver_sifive_uart0_control_base>
2010f578:	87aa                	mv	a5,a0
C:/VSD_Sqd_Project/sifive_hifive1_BitNet_MNIST_App/freedom-metal/src/drivers/sifive_uart0.c:119 (discriminator 1)
2010f57a:	fef42623          	sw	a5,-20(s0)
C:/VSD_Sqd_Project/sifive_hifive1_BitNet_MNIST_App/freedom-metal/src/drivers/sifive_uart0.c:121
    /* No seperate status register, we get status and the byte at same time */
    ch = UART_REGW(METAL_SIFIVE_UART0_RXDATA);
2010f57e:	fec42783          	lw	a5,-20(s0)
2010f582:	0791                	add	a5,a5,4
2010f584:	439c                	lw	a5,0(a5)
2010f586:	fef42423          	sw	a5,-24(s0)
C:/VSD_Sqd_Project/sifive_hifive1_BitNet_MNIST_App/freedom-metal/src/drivers/sifive_uart0.c:123
    ;
    if (ch & UART_RXEMPTY) {
2010f58a:	fe842783          	lw	a5,-24(s0)
2010f58e:	0007d763          	bgez	a5,2010f59c <__metal_driver_sifive_uart0_getc+0x3c>
C:/VSD_Sqd_Project/sifive_hifive1_BitNet_MNIST_App/freedom-metal/src/drivers/sifive_uart0.c:124
        *c = -1; /* aka: EOF in most of the world */
2010f592:	fd842783          	lw	a5,-40(s0)
2010f596:	577d                	li	a4,-1
2010f598:	c398                	sw	a4,0(a5)
2010f59a:	a801                	j	2010f5aa <__metal_driver_sifive_uart0_getc+0x4a>
C:/VSD_Sqd_Project/sifive_hifive1_BitNet_MNIST_App/freedom-metal/src/drivers/sifive_uart0.c:126
    } else {
        *c = ch & 0x0ff;
2010f59c:	fe842783          	lw	a5,-24(s0)
2010f5a0:	0ff7f713          	zext.b	a4,a5
2010f5a4:	fd842783          	lw	a5,-40(s0)
2010f5a8:	c398                	sw	a4,0(a5)
C:/VSD_Sqd_Project/sifive_hifive1_BitNet_MNIST_App/freedom-metal/src/drivers/sifive_uart0.c:128
    }
    return 0;
2010f5aa:	4781                	li	a5,0
C:/VSD_Sqd_Project/sifive_hifive1_BitNet_MNIST_App/freedom-metal/src/drivers/sifive_uart0.c:129
}
2010f5ac:	853e                	mv	a0,a5
2010f5ae:	50b2                	lw	ra,44(sp)
2010f5b0:	5422                	lw	s0,40(sp)
2010f5b2:	6145                	add	sp,sp,48
2010f5b4:	8082                	ret

2010f5b6 <__metal_driver_sifive_uart0_get_baud_rate>:
__metal_driver_sifive_uart0_get_baud_rate():
C:/VSD_Sqd_Project/sifive_hifive1_BitNet_MNIST_App/freedom-metal/src/drivers/sifive_uart0.c:131

int __metal_driver_sifive_uart0_get_baud_rate(struct metal_uart *guart) {
2010f5b6:	7179                	add	sp,sp,-48
2010f5b8:	d622                	sw	s0,44(sp)
2010f5ba:	1800                	add	s0,sp,48
2010f5bc:	fca42e23          	sw	a0,-36(s0)
C:/VSD_Sqd_Project/sifive_hifive1_BitNet_MNIST_App/freedom-metal/src/drivers/sifive_uart0.c:132
    struct __metal_driver_sifive_uart0 *uart = (void *)guart;
2010f5c0:	fdc42783          	lw	a5,-36(s0)
2010f5c4:	fef42623          	sw	a5,-20(s0)
C:/VSD_Sqd_Project/sifive_hifive1_BitNet_MNIST_App/freedom-metal/src/drivers/sifive_uart0.c:133
    return uart->baud_rate;
2010f5c8:	fec42783          	lw	a5,-20(s0)
2010f5cc:	43dc                	lw	a5,4(a5)
C:/VSD_Sqd_Project/sifive_hifive1_BitNet_MNIST_App/freedom-metal/src/drivers/sifive_uart0.c:134
}
2010f5ce:	853e                	mv	a0,a5
2010f5d0:	5432                	lw	s0,44(sp)
2010f5d2:	6145                	add	sp,sp,48
2010f5d4:	8082                	ret

2010f5d6 <__metal_driver_sifive_uart0_set_baud_rate>:
__metal_driver_sifive_uart0_set_baud_rate():
C:/VSD_Sqd_Project/sifive_hifive1_BitNet_MNIST_App/freedom-metal/src/drivers/sifive_uart0.c:137

int __metal_driver_sifive_uart0_set_baud_rate(struct metal_uart *guart,
                                              int baud_rate) {
2010f5d6:	7179                	add	sp,sp,-48
2010f5d8:	d606                	sw	ra,44(sp)
2010f5da:	d422                	sw	s0,40(sp)
2010f5dc:	1800                	add	s0,sp,48
2010f5de:	fca42e23          	sw	a0,-36(s0)
2010f5e2:	fcb42c23          	sw	a1,-40(s0)
C:/VSD_Sqd_Project/sifive_hifive1_BitNet_MNIST_App/freedom-metal/src/drivers/sifive_uart0.c:138
    struct __metal_driver_sifive_uart0 *uart = (void *)guart;
2010f5e6:	fdc42783          	lw	a5,-36(s0)
2010f5ea:	fef42623          	sw	a5,-20(s0)
C:/VSD_Sqd_Project/sifive_hifive1_BitNet_MNIST_App/freedom-metal/src/drivers/sifive_uart0.c:139
    long control_base = __metal_driver_sifive_uart0_control_base(guart);
2010f5ee:	fdc42503          	lw	a0,-36(s0)
2010f5f2:	bbbff0ef          	jal	2010f1ac <__metal_driver_sifive_uart0_control_base>
2010f5f6:	87aa                	mv	a5,a0
C:/VSD_Sqd_Project/sifive_hifive1_BitNet_MNIST_App/freedom-metal/src/drivers/sifive_uart0.c:139 (discriminator 1)
2010f5f8:	fef42423          	sw	a5,-24(s0)
C:/VSD_Sqd_Project/sifive_hifive1_BitNet_MNIST_App/freedom-metal/src/drivers/sifive_uart0.c:140
    struct metal_clock *clock = __metal_driver_sifive_uart0_clock(guart);
2010f5fc:	fdc42503          	lw	a0,-36(s0)
2010f600:	c2dff0ef          	jal	2010f22c <__metal_driver_sifive_uart0_clock>
2010f604:	fea42223          	sw	a0,-28(s0)
C:/VSD_Sqd_Project/sifive_hifive1_BitNet_MNIST_App/freedom-metal/src/drivers/sifive_uart0.c:142

    uart->baud_rate = baud_rate;
2010f608:	fd842703          	lw	a4,-40(s0)
2010f60c:	fec42783          	lw	a5,-20(s0)
2010f610:	c3d8                	sw	a4,4(a5)
C:/VSD_Sqd_Project/sifive_hifive1_BitNet_MNIST_App/freedom-metal/src/drivers/sifive_uart0.c:144

    if (clock != NULL) {
2010f612:	fe442783          	lw	a5,-28(s0)
2010f616:	cbb1                	beqz	a5,2010f66a <__metal_driver_sifive_uart0_set_baud_rate+0x94>
C:/VSD_Sqd_Project/sifive_hifive1_BitNet_MNIST_App/freedom-metal/src/drivers/sifive_uart0.c:145
        long clock_rate = clock->vtable->get_rate_hz(clock);
2010f618:	fe442783          	lw	a5,-28(s0)
2010f61c:	439c                	lw	a5,0(a5)
2010f61e:	439c                	lw	a5,0(a5)
2010f620:	fe442503          	lw	a0,-28(s0)
2010f624:	9782                	jalr	a5
2010f626:	fea42023          	sw	a0,-32(s0)
C:/VSD_Sqd_Project/sifive_hifive1_BitNet_MNIST_App/freedom-metal/src/drivers/sifive_uart0.c:146
        UART_REGW(METAL_SIFIVE_UART0_DIV) = clock_rate / baud_rate - 1;
2010f62a:	fe042703          	lw	a4,-32(s0)
2010f62e:	fd842783          	lw	a5,-40(s0)
2010f632:	02f747b3          	div	a5,a4,a5
2010f636:	fff78713          	add	a4,a5,-1
2010f63a:	fe842783          	lw	a5,-24(s0)
2010f63e:	07e1                	add	a5,a5,24
2010f640:	c398                	sw	a4,0(a5)
C:/VSD_Sqd_Project/sifive_hifive1_BitNet_MNIST_App/freedom-metal/src/drivers/sifive_uart0.c:147
        UART_REGW(METAL_SIFIVE_UART0_TXCTRL) |= UART_TXEN;
2010f642:	fe842783          	lw	a5,-24(s0)
2010f646:	07a1                	add	a5,a5,8
2010f648:	439c                	lw	a5,0(a5)
2010f64a:	fe842703          	lw	a4,-24(s0)
2010f64e:	0721                	add	a4,a4,8
2010f650:	0017e793          	or	a5,a5,1
2010f654:	c31c                	sw	a5,0(a4)
C:/VSD_Sqd_Project/sifive_hifive1_BitNet_MNIST_App/freedom-metal/src/drivers/sifive_uart0.c:148
        UART_REGW(METAL_SIFIVE_UART0_RXCTRL) |= UART_RXEN;
2010f656:	fe842783          	lw	a5,-24(s0)
2010f65a:	07b1                	add	a5,a5,12
2010f65c:	439c                	lw	a5,0(a5)
2010f65e:	fe842703          	lw	a4,-24(s0)
2010f662:	0731                	add	a4,a4,12
2010f664:	0017e793          	or	a5,a5,1
2010f668:	c31c                	sw	a5,0(a4)
C:/VSD_Sqd_Project/sifive_hifive1_BitNet_MNIST_App/freedom-metal/src/drivers/sifive_uart0.c:150
    }
    return 0;
2010f66a:	4781                	li	a5,0
C:/VSD_Sqd_Project/sifive_hifive1_BitNet_MNIST_App/freedom-metal/src/drivers/sifive_uart0.c:151
}
2010f66c:	853e                	mv	a0,a5
2010f66e:	50b2                	lw	ra,44(sp)
2010f670:	5422                	lw	s0,40(sp)
2010f672:	6145                	add	sp,sp,48
2010f674:	8082                	ret

2010f676 <pre_rate_change_callback_func>:
pre_rate_change_callback_func():
C:/VSD_Sqd_Project/sifive_hifive1_BitNet_MNIST_App/freedom-metal/src/drivers/sifive_uart0.c:153

static void pre_rate_change_callback_func(void *priv) {
2010f676:	7139                	add	sp,sp,-64
2010f678:	de06                	sw	ra,60(sp)
2010f67a:	dc22                	sw	s0,56(sp)
2010f67c:	0080                	add	s0,sp,64
2010f67e:	fca42623          	sw	a0,-52(s0)
C:/VSD_Sqd_Project/sifive_hifive1_BitNet_MNIST_App/freedom-metal/src/drivers/sifive_uart0.c:154
    struct __metal_driver_sifive_uart0 *uart = priv;
2010f682:	fcc42783          	lw	a5,-52(s0)
2010f686:	fef42623          	sw	a5,-20(s0)
C:/VSD_Sqd_Project/sifive_hifive1_BitNet_MNIST_App/freedom-metal/src/drivers/sifive_uart0.c:156
    long control_base =
        __metal_driver_sifive_uart0_control_base((struct metal_uart *)priv);
2010f68a:	fcc42503          	lw	a0,-52(s0)
2010f68e:	b1fff0ef          	jal	2010f1ac <__metal_driver_sifive_uart0_control_base>
2010f692:	87aa                	mv	a5,a0
C:/VSD_Sqd_Project/sifive_hifive1_BitNet_MNIST_App/freedom-metal/src/drivers/sifive_uart0.c:155
    long control_base =
2010f694:	fef42423          	sw	a5,-24(s0)
C:/VSD_Sqd_Project/sifive_hifive1_BitNet_MNIST_App/freedom-metal/src/drivers/sifive_uart0.c:158
    struct metal_clock *clock =
        __metal_driver_sifive_uart0_clock((struct metal_uart *)priv);
2010f698:	fcc42503          	lw	a0,-52(s0)
2010f69c:	b91ff0ef          	jal	2010f22c <__metal_driver_sifive_uart0_clock>
2010f6a0:	fea42223          	sw	a0,-28(s0)
C:/VSD_Sqd_Project/sifive_hifive1_BitNet_MNIST_App/freedom-metal/src/drivers/sifive_uart0.c:163

    /* Detect when the TXDATA is empty by setting the transmit watermark count
     * to one and waiting until an interrupt is pending */

    UART_REGW(METAL_SIFIVE_UART0_TXCTRL) &= ~(UART_TXCNT(0x7));
2010f6a4:	fe842783          	lw	a5,-24(s0)
2010f6a8:	07a1                	add	a5,a5,8
2010f6aa:	4398                	lw	a4,0(a5)
2010f6ac:	fe842783          	lw	a5,-24(s0)
2010f6b0:	07a1                	add	a5,a5,8
2010f6b2:	86be                	mv	a3,a5
2010f6b4:	fff907b7          	lui	a5,0xfff90
2010f6b8:	17fd                	add	a5,a5,-1 # fff8ffff <metal_segment_heap_target_end+0x7ff8e77f>
2010f6ba:	8ff9                	and	a5,a5,a4
2010f6bc:	c29c                	sw	a5,0(a3)
C:/VSD_Sqd_Project/sifive_hifive1_BitNet_MNIST_App/freedom-metal/src/drivers/sifive_uart0.c:164
    UART_REGW(METAL_SIFIVE_UART0_TXCTRL) |= UART_TXCNT(1);
2010f6be:	fe842783          	lw	a5,-24(s0)
2010f6c2:	07a1                	add	a5,a5,8
2010f6c4:	4398                	lw	a4,0(a5)
2010f6c6:	fe842783          	lw	a5,-24(s0)
2010f6ca:	07a1                	add	a5,a5,8
2010f6cc:	86be                	mv	a3,a5
2010f6ce:	67c1                	lui	a5,0x10
2010f6d0:	8fd9                	or	a5,a5,a4
2010f6d2:	c29c                	sw	a5,0(a3)
C:/VSD_Sqd_Project/sifive_hifive1_BitNet_MNIST_App/freedom-metal/src/drivers/sifive_uart0.c:166

    while ((UART_REGW(METAL_SIFIVE_UART0_IP) & UART_TXWM) == 0)
2010f6d4:	0001                	nop
C:/VSD_Sqd_Project/sifive_hifive1_BitNet_MNIST_App/freedom-metal/src/drivers/sifive_uart0.c:166 (discriminator 1)
2010f6d6:	fe842783          	lw	a5,-24(s0)
2010f6da:	07d1                	add	a5,a5,20 # 10014 <__heap_size+0xf814>
2010f6dc:	439c                	lw	a5,0(a5)
2010f6de:	8b85                	and	a5,a5,1
2010f6e0:	dbfd                	beqz	a5,2010f6d6 <pre_rate_change_callback_func+0x60>
C:/VSD_Sqd_Project/sifive_hifive1_BitNet_MNIST_App/freedom-metal/src/drivers/sifive_uart0.c:174
    /* When the TXDATA clears, the UART is still shifting out the last byte.
     * Calculate the time we must drain to finish transmitting and then wait
     * that long. */

    long bits_per_symbol =
        (UART_REGW(METAL_SIFIVE_UART0_TXCTRL) & (1 << 1)) ? 9 : 10;
2010f6e2:	fe842783          	lw	a5,-24(s0)
2010f6e6:	07a1                	add	a5,a5,8
2010f6e8:	439c                	lw	a5,0(a5)
2010f6ea:	8b89                	and	a5,a5,2
2010f6ec:	c399                	beqz	a5,2010f6f2 <pre_rate_change_callback_func+0x7c>
C:/VSD_Sqd_Project/sifive_hifive1_BitNet_MNIST_App/freedom-metal/src/drivers/sifive_uart0.c:174 (discriminator 1)
2010f6ee:	47a5                	li	a5,9
2010f6f0:	a011                	j	2010f6f4 <pre_rate_change_callback_func+0x7e>
C:/VSD_Sqd_Project/sifive_hifive1_BitNet_MNIST_App/freedom-metal/src/drivers/sifive_uart0.c:174 (discriminator 2)
2010f6f2:	47a9                	li	a5,10
C:/VSD_Sqd_Project/sifive_hifive1_BitNet_MNIST_App/freedom-metal/src/drivers/sifive_uart0.c:173
    long bits_per_symbol =
2010f6f4:	fef42023          	sw	a5,-32(s0)
C:/VSD_Sqd_Project/sifive_hifive1_BitNet_MNIST_App/freedom-metal/src/drivers/sifive_uart0.c:175
    long clk_freq = clock->vtable->get_rate_hz(clock);
2010f6f8:	fe442783          	lw	a5,-28(s0)
2010f6fc:	439c                	lw	a5,0(a5)
2010f6fe:	439c                	lw	a5,0(a5)
2010f700:	fe442503          	lw	a0,-28(s0)
2010f704:	9782                	jalr	a5
2010f706:	fca42e23          	sw	a0,-36(s0)
C:/VSD_Sqd_Project/sifive_hifive1_BitNet_MNIST_App/freedom-metal/src/drivers/sifive_uart0.c:176
    long cycles_to_wait = bits_per_symbol * clk_freq / uart->baud_rate;
2010f70a:	fe042703          	lw	a4,-32(s0)
2010f70e:	fdc42783          	lw	a5,-36(s0)
2010f712:	02f707b3          	mul	a5,a4,a5
2010f716:	873e                	mv	a4,a5
2010f718:	fec42783          	lw	a5,-20(s0)
2010f71c:	43dc                	lw	a5,4(a5)
2010f71e:	02f757b3          	divu	a5,a4,a5
2010f722:	fcf42c23          	sw	a5,-40(s0)
C:/VSD_Sqd_Project/sifive_hifive1_BitNet_MNIST_App/freedom-metal/src/drivers/sifive_uart0.c:178

    for (volatile long x = 0; x < cycles_to_wait; x++)
2010f726:	fc042a23          	sw	zero,-44(s0)
2010f72a:	a039                	j	2010f738 <pre_rate_change_callback_func+0xc2>
C:/VSD_Sqd_Project/sifive_hifive1_BitNet_MNIST_App/freedom-metal/src/drivers/sifive_uart0.c:179
        __asm__("nop");
2010f72c:	0001                	nop
C:/VSD_Sqd_Project/sifive_hifive1_BitNet_MNIST_App/freedom-metal/src/drivers/sifive_uart0.c:178 (discriminator 3)
    for (volatile long x = 0; x < cycles_to_wait; x++)
2010f72e:	fd442783          	lw	a5,-44(s0)
2010f732:	0785                	add	a5,a5,1
2010f734:	fcf42a23          	sw	a5,-44(s0)
C:/VSD_Sqd_Project/sifive_hifive1_BitNet_MNIST_App/freedom-metal/src/drivers/sifive_uart0.c:178 (discriminator 1)
2010f738:	fd442783          	lw	a5,-44(s0)
2010f73c:	fd842703          	lw	a4,-40(s0)
2010f740:	fee7c6e3          	blt	a5,a4,2010f72c <pre_rate_change_callback_func+0xb6>
C:/VSD_Sqd_Project/sifive_hifive1_BitNet_MNIST_App/freedom-metal/src/drivers/sifive_uart0.c:180
}
2010f744:	0001                	nop
2010f746:	0001                	nop
2010f748:	50f2                	lw	ra,60(sp)
2010f74a:	5462                	lw	s0,56(sp)
2010f74c:	6121                	add	sp,sp,64
2010f74e:	8082                	ret

2010f750 <post_rate_change_callback_func>:
post_rate_change_callback_func():
C:/VSD_Sqd_Project/sifive_hifive1_BitNet_MNIST_App/freedom-metal/src/drivers/sifive_uart0.c:182

static void post_rate_change_callback_func(void *priv) {
2010f750:	7179                	add	sp,sp,-48
2010f752:	d606                	sw	ra,44(sp)
2010f754:	d422                	sw	s0,40(sp)
2010f756:	1800                	add	s0,sp,48
2010f758:	fca42e23          	sw	a0,-36(s0)
C:/VSD_Sqd_Project/sifive_hifive1_BitNet_MNIST_App/freedom-metal/src/drivers/sifive_uart0.c:183
    struct __metal_driver_sifive_uart0 *uart = priv;
2010f75c:	fdc42783          	lw	a5,-36(s0)
2010f760:	fef42623          	sw	a5,-20(s0)
C:/VSD_Sqd_Project/sifive_hifive1_BitNet_MNIST_App/freedom-metal/src/drivers/sifive_uart0.c:184
    metal_uart_set_baud_rate(&uart->uart, uart->baud_rate);
2010f764:	fec42703          	lw	a4,-20(s0)
2010f768:	fec42783          	lw	a5,-20(s0)
2010f76c:	43dc                	lw	a5,4(a5)
2010f76e:	85be                	mv	a1,a5
2010f770:	853a                	mv	a0,a4
2010f772:	de5fb0ef          	jal	2010b556 <metal_uart_set_baud_rate>
C:/VSD_Sqd_Project/sifive_hifive1_BitNet_MNIST_App/freedom-metal/src/drivers/sifive_uart0.c:185
}
2010f776:	0001                	nop
2010f778:	50b2                	lw	ra,44(sp)
2010f77a:	5422                	lw	s0,40(sp)
2010f77c:	6145                	add	sp,sp,48
2010f77e:	8082                	ret

2010f780 <__metal_driver_sifive_uart0_init>:
__metal_driver_sifive_uart0_init():
C:/VSD_Sqd_Project/sifive_hifive1_BitNet_MNIST_App/freedom-metal/src/drivers/sifive_uart0.c:187

void __metal_driver_sifive_uart0_init(struct metal_uart *guart, int baud_rate) {
2010f780:	7139                	add	sp,sp,-64
2010f782:	de06                	sw	ra,60(sp)
2010f784:	dc22                	sw	s0,56(sp)
2010f786:	0080                	add	s0,sp,64
2010f788:	fca42623          	sw	a0,-52(s0)
2010f78c:	fcb42423          	sw	a1,-56(s0)
C:/VSD_Sqd_Project/sifive_hifive1_BitNet_MNIST_App/freedom-metal/src/drivers/sifive_uart0.c:188
    struct __metal_driver_sifive_uart0 *uart = (void *)(guart);
2010f790:	fcc42783          	lw	a5,-52(s0)
2010f794:	fef42623          	sw	a5,-20(s0)
C:/VSD_Sqd_Project/sifive_hifive1_BitNet_MNIST_App/freedom-metal/src/drivers/sifive_uart0.c:189
    struct metal_clock *clock = __metal_driver_sifive_uart0_clock(guart);
2010f798:	fcc42503          	lw	a0,-52(s0)
2010f79c:	a91ff0ef          	jal	2010f22c <__metal_driver_sifive_uart0_clock>
2010f7a0:	fea42423          	sw	a0,-24(s0)
C:/VSD_Sqd_Project/sifive_hifive1_BitNet_MNIST_App/freedom-metal/src/drivers/sifive_uart0.c:191
    struct __metal_driver_sifive_gpio0 *pinmux =
        __metal_driver_sifive_uart0_pinmux(guart);
2010f7a4:	fcc42503          	lw	a0,-52(s0)
2010f7a8:	ab3ff0ef          	jal	2010f25a <__metal_driver_sifive_uart0_pinmux>
2010f7ac:	fea42223          	sw	a0,-28(s0)
C:/VSD_Sqd_Project/sifive_hifive1_BitNet_MNIST_App/freedom-metal/src/drivers/sifive_uart0.c:193

    if (clock != NULL) {
2010f7b0:	fe842783          	lw	a5,-24(s0)
2010f7b4:	c7b9                	beqz	a5,2010f802 <__metal_driver_sifive_uart0_init+0x82>
C:/VSD_Sqd_Project/sifive_hifive1_BitNet_MNIST_App/freedom-metal/src/drivers/sifive_uart0.c:194
        uart->pre_rate_change_callback.callback =
2010f7b6:	fec42783          	lw	a5,-20(s0)
2010f7ba:	2010f737          	lui	a4,0x2010f
2010f7be:	67670713          	add	a4,a4,1654 # 2010f676 <pre_rate_change_callback_func>
2010f7c2:	c798                	sw	a4,8(a5)
C:/VSD_Sqd_Project/sifive_hifive1_BitNet_MNIST_App/freedom-metal/src/drivers/sifive_uart0.c:196
            &pre_rate_change_callback_func;
        uart->pre_rate_change_callback.priv = guart;
2010f7c4:	fec42783          	lw	a5,-20(s0)
2010f7c8:	fcc42703          	lw	a4,-52(s0)
2010f7cc:	c7d8                	sw	a4,12(a5)
C:/VSD_Sqd_Project/sifive_hifive1_BitNet_MNIST_App/freedom-metal/src/drivers/sifive_uart0.c:197
        metal_clock_register_pre_rate_change_callback(
2010f7ce:	fec42783          	lw	a5,-20(s0)
2010f7d2:	07a1                	add	a5,a5,8
2010f7d4:	85be                	mv	a1,a5
2010f7d6:	fe842503          	lw	a0,-24(s0)
2010f7da:	2241                	jal	2010f95a <metal_clock_register_pre_rate_change_callback>
C:/VSD_Sqd_Project/sifive_hifive1_BitNet_MNIST_App/freedom-metal/src/drivers/sifive_uart0.c:200
            clock, &(uart->pre_rate_change_callback));

        uart->post_rate_change_callback.callback =
2010f7dc:	fec42783          	lw	a5,-20(s0)
2010f7e0:	2010f737          	lui	a4,0x2010f
2010f7e4:	75070713          	add	a4,a4,1872 # 2010f750 <post_rate_change_callback_func>
2010f7e8:	cbd8                	sw	a4,20(a5)
C:/VSD_Sqd_Project/sifive_hifive1_BitNet_MNIST_App/freedom-metal/src/drivers/sifive_uart0.c:202
            &post_rate_change_callback_func;
        uart->post_rate_change_callback.priv = guart;
2010f7ea:	fec42783          	lw	a5,-20(s0)
2010f7ee:	fcc42703          	lw	a4,-52(s0)
2010f7f2:	cf98                	sw	a4,24(a5)
C:/VSD_Sqd_Project/sifive_hifive1_BitNet_MNIST_App/freedom-metal/src/drivers/sifive_uart0.c:203
        metal_clock_register_post_rate_change_callback(
2010f7f4:	fec42783          	lw	a5,-20(s0)
2010f7f8:	07d1                	add	a5,a5,20
2010f7fa:	85be                	mv	a1,a5
2010f7fc:	fe842503          	lw	a0,-24(s0)
2010f800:	2271                	jal	2010f98c <metal_clock_register_post_rate_change_callback>
C:/VSD_Sqd_Project/sifive_hifive1_BitNet_MNIST_App/freedom-metal/src/drivers/sifive_uart0.c:207
            clock, &(uart->post_rate_change_callback));
    }

    metal_uart_set_baud_rate(&(uart->uart), baud_rate);
2010f802:	fec42783          	lw	a5,-20(s0)
2010f806:	fc842583          	lw	a1,-56(s0)
2010f80a:	853e                	mv	a0,a5
2010f80c:	d4bfb0ef          	jal	2010b556 <metal_uart_set_baud_rate>
C:/VSD_Sqd_Project/sifive_hifive1_BitNet_MNIST_App/freedom-metal/src/drivers/sifive_uart0.c:209

    if (pinmux != NULL) {
2010f810:	fe442783          	lw	a5,-28(s0)
2010f814:	cb95                	beqz	a5,2010f848 <__metal_driver_sifive_uart0_init+0xc8>
C:/VSD_Sqd_Project/sifive_hifive1_BitNet_MNIST_App/freedom-metal/src/drivers/sifive_uart0.c:211
        long pinmux_output_selector =
            __metal_driver_sifive_uart0_pinmux_output_selector(guart);
2010f816:	fcc42503          	lw	a0,-52(s0)
2010f81a:	a6bff0ef          	jal	2010f284 <__metal_driver_sifive_uart0_pinmux_output_selector>
2010f81e:	87aa                	mv	a5,a0
C:/VSD_Sqd_Project/sifive_hifive1_BitNet_MNIST_App/freedom-metal/src/drivers/sifive_uart0.c:210
        long pinmux_output_selector =
2010f820:	fef42023          	sw	a5,-32(s0)
C:/VSD_Sqd_Project/sifive_hifive1_BitNet_MNIST_App/freedom-metal/src/drivers/sifive_uart0.c:213
        long pinmux_source_selector =
            __metal_driver_sifive_uart0_pinmux_source_selector(guart);
2010f824:	fcc42503          	lw	a0,-52(s0)
2010f828:	a85ff0ef          	jal	2010f2ac <__metal_driver_sifive_uart0_pinmux_source_selector>
2010f82c:	87aa                	mv	a5,a0
C:/VSD_Sqd_Project/sifive_hifive1_BitNet_MNIST_App/freedom-metal/src/drivers/sifive_uart0.c:212
        long pinmux_source_selector =
2010f82e:	fcf42e23          	sw	a5,-36(s0)
C:/VSD_Sqd_Project/sifive_hifive1_BitNet_MNIST_App/freedom-metal/src/drivers/sifive_uart0.c:214
        pinmux->gpio.vtable->enable_io((struct metal_gpio *)pinmux,
2010f832:	fe442783          	lw	a5,-28(s0)
2010f836:	439c                	lw	a5,0(a5)
2010f838:	53dc                	lw	a5,36(a5)
2010f83a:	fdc42603          	lw	a2,-36(s0)
2010f83e:	fe042583          	lw	a1,-32(s0)
2010f842:	fe442503          	lw	a0,-28(s0)
2010f846:	9782                	jalr	a5
C:/VSD_Sqd_Project/sifive_hifive1_BitNet_MNIST_App/freedom-metal/src/drivers/sifive_uart0.c:218
                                       pinmux_output_selector,
                                       pinmux_source_selector);
    }
}
2010f848:	0001                	nop
2010f84a:	50f2                	lw	ra,60(sp)
2010f84c:	5462                	lw	s0,56(sp)
2010f84e:	6121                	add	sp,sp,64
2010f850:	8082                	ret

2010f852 <_metal_clock_call_all_callbacks>:
_metal_clock_call_all_callbacks():
C:/VSD_Sqd_Project/sifive_hifive1_BitNet_MNIST_App/freedom-metal/metal/clock.h:50

/*!
 * @brief Call all callbacks in the linked list, if any are registered
 */
__inline__ void
_metal_clock_call_all_callbacks(const metal_clock_callback *const list) {
2010f852:	7179                	add	sp,sp,-48
2010f854:	d606                	sw	ra,44(sp)
2010f856:	d422                	sw	s0,40(sp)
2010f858:	1800                	add	s0,sp,48
2010f85a:	fca42e23          	sw	a0,-36(s0)
C:/VSD_Sqd_Project/sifive_hifive1_BitNet_MNIST_App/freedom-metal/metal/clock.h:51
    const metal_clock_callback *current = list;
2010f85e:	fdc42783          	lw	a5,-36(s0)
2010f862:	fef42623          	sw	a5,-20(s0)
C:/VSD_Sqd_Project/sifive_hifive1_BitNet_MNIST_App/freedom-metal/metal/clock.h:52
    while (current) {
2010f866:	a831                	j	2010f882 <_metal_clock_call_all_callbacks+0x30>
C:/VSD_Sqd_Project/sifive_hifive1_BitNet_MNIST_App/freedom-metal/metal/clock.h:53
        current->callback(current->priv);
2010f868:	fec42783          	lw	a5,-20(s0)
2010f86c:	439c                	lw	a5,0(a5)
2010f86e:	fec42703          	lw	a4,-20(s0)
2010f872:	4358                	lw	a4,4(a4)
2010f874:	853a                	mv	a0,a4
2010f876:	9782                	jalr	a5
C:/VSD_Sqd_Project/sifive_hifive1_BitNet_MNIST_App/freedom-metal/metal/clock.h:54
        current = current->_next;
2010f878:	fec42783          	lw	a5,-20(s0)
2010f87c:	479c                	lw	a5,8(a5)
2010f87e:	fef42623          	sw	a5,-20(s0)
C:/VSD_Sqd_Project/sifive_hifive1_BitNet_MNIST_App/freedom-metal/metal/clock.h:52
    while (current) {
2010f882:	fec42783          	lw	a5,-20(s0)
2010f886:	f3ed                	bnez	a5,2010f868 <_metal_clock_call_all_callbacks+0x16>
C:/VSD_Sqd_Project/sifive_hifive1_BitNet_MNIST_App/freedom-metal/metal/clock.h:56
    }
}
2010f888:	0001                	nop
2010f88a:	0001                	nop
2010f88c:	50b2                	lw	ra,44(sp)
2010f88e:	5422                	lw	s0,40(sp)
2010f890:	6145                	add	sp,sp,48
2010f892:	8082                	ret

2010f894 <_metal_clock_append_to_callbacks>:
_metal_clock_append_to_callbacks():
C:/VSD_Sqd_Project/sifive_hifive1_BitNet_MNIST_App/freedom-metal/metal/clock.h:63
/*!
 * @brief Append a callback to the linked list and return the head of the list
 */
__inline__ metal_clock_callback *
_metal_clock_append_to_callbacks(metal_clock_callback *list,
                                 metal_clock_callback *const cb) {
2010f894:	7179                	add	sp,sp,-48
2010f896:	d622                	sw	s0,44(sp)
2010f898:	1800                	add	s0,sp,48
2010f89a:	fca42e23          	sw	a0,-36(s0)
2010f89e:	fcb42c23          	sw	a1,-40(s0)
C:/VSD_Sqd_Project/sifive_hifive1_BitNet_MNIST_App/freedom-metal/metal/clock.h:64
    cb->_next = NULL;
2010f8a2:	fd842783          	lw	a5,-40(s0)
2010f8a6:	0007a423          	sw	zero,8(a5)
C:/VSD_Sqd_Project/sifive_hifive1_BitNet_MNIST_App/freedom-metal/metal/clock.h:66

    if (!list) {
2010f8aa:	fdc42783          	lw	a5,-36(s0)
2010f8ae:	e781                	bnez	a5,2010f8b6 <_metal_clock_append_to_callbacks+0x22>
C:/VSD_Sqd_Project/sifive_hifive1_BitNet_MNIST_App/freedom-metal/metal/clock.h:67
        return cb;
2010f8b0:	fd842783          	lw	a5,-40(s0)
2010f8b4:	a035                	j	2010f8e0 <_metal_clock_append_to_callbacks+0x4c>
C:/VSD_Sqd_Project/sifive_hifive1_BitNet_MNIST_App/freedom-metal/metal/clock.h:70
    }

    metal_clock_callback *current = list;
2010f8b6:	fdc42783          	lw	a5,-36(s0)
2010f8ba:	fef42623          	sw	a5,-20(s0)
C:/VSD_Sqd_Project/sifive_hifive1_BitNet_MNIST_App/freedom-metal/metal/clock.h:72

    while ((current->_next) != NULL) {
2010f8be:	a031                	j	2010f8ca <_metal_clock_append_to_callbacks+0x36>
C:/VSD_Sqd_Project/sifive_hifive1_BitNet_MNIST_App/freedom-metal/metal/clock.h:73
        current = current->_next;
2010f8c0:	fec42783          	lw	a5,-20(s0)
2010f8c4:	479c                	lw	a5,8(a5)
2010f8c6:	fef42623          	sw	a5,-20(s0)
C:/VSD_Sqd_Project/sifive_hifive1_BitNet_MNIST_App/freedom-metal/metal/clock.h:72
    while ((current->_next) != NULL) {
2010f8ca:	fec42783          	lw	a5,-20(s0)
2010f8ce:	479c                	lw	a5,8(a5)
2010f8d0:	fbe5                	bnez	a5,2010f8c0 <_metal_clock_append_to_callbacks+0x2c>
C:/VSD_Sqd_Project/sifive_hifive1_BitNet_MNIST_App/freedom-metal/metal/clock.h:76
    }

    current->_next = cb;
2010f8d2:	fec42783          	lw	a5,-20(s0)
2010f8d6:	fd842703          	lw	a4,-40(s0)
2010f8da:	c798                	sw	a4,8(a5)
C:/VSD_Sqd_Project/sifive_hifive1_BitNet_MNIST_App/freedom-metal/metal/clock.h:78

    return list;
2010f8dc:	fdc42783          	lw	a5,-36(s0)
C:/VSD_Sqd_Project/sifive_hifive1_BitNet_MNIST_App/freedom-metal/metal/clock.h:79
}
2010f8e0:	853e                	mv	a0,a5
2010f8e2:	5432                	lw	s0,44(sp)
2010f8e4:	6145                	add	sp,sp,48
2010f8e6:	8082                	ret

2010f8e8 <metal_clock_get_rate_hz>:
metal_clock_get_rate_hz():
C:/VSD_Sqd_Project/sifive_hifive1_BitNet_MNIST_App/freedom-metal/metal/clock.h:110
 * @brief Returns the current rate of the given clock
 *
 * @param clk The handle for the clock
 * @return The current rate of the clock in Hz
 */
__inline__ long metal_clock_get_rate_hz(const struct metal_clock *clk) {
2010f8e8:	1101                	add	sp,sp,-32
2010f8ea:	ce06                	sw	ra,28(sp)
2010f8ec:	cc22                	sw	s0,24(sp)
2010f8ee:	1000                	add	s0,sp,32
2010f8f0:	fea42623          	sw	a0,-20(s0)
C:/VSD_Sqd_Project/sifive_hifive1_BitNet_MNIST_App/freedom-metal/metal/clock.h:111
    return clk->vtable->get_rate_hz(clk);
2010f8f4:	fec42783          	lw	a5,-20(s0)
2010f8f8:	439c                	lw	a5,0(a5)
2010f8fa:	439c                	lw	a5,0(a5)
2010f8fc:	fec42503          	lw	a0,-20(s0)
2010f900:	9782                	jalr	a5
2010f902:	87aa                	mv	a5,a0
C:/VSD_Sqd_Project/sifive_hifive1_BitNet_MNIST_App/freedom-metal/metal/clock.h:112
}
2010f904:	853e                	mv	a0,a5
2010f906:	40f2                	lw	ra,28(sp)
2010f908:	4462                	lw	s0,24(sp)
2010f90a:	6105                	add	sp,sp,32
2010f90c:	8082                	ret

2010f90e <metal_clock_set_rate_hz>:
metal_clock_set_rate_hz():
C:/VSD_Sqd_Project/sifive_hifive1_BitNet_MNIST_App/freedom-metal/metal/clock.h:128
 * could be anything!
 *
 * Prior to and after the rate change of the clock, this will call the
 * registered pre- and post-rate change callbacks.
 */
__inline__ long metal_clock_set_rate_hz(struct metal_clock *clk, long hz) {
2010f90e:	7179                	add	sp,sp,-48
2010f910:	d606                	sw	ra,44(sp)
2010f912:	d422                	sw	s0,40(sp)
2010f914:	1800                	add	s0,sp,48
2010f916:	fca42e23          	sw	a0,-36(s0)
2010f91a:	fcb42c23          	sw	a1,-40(s0)
C:/VSD_Sqd_Project/sifive_hifive1_BitNet_MNIST_App/freedom-metal/metal/clock.h:129
    _metal_clock_call_all_callbacks(clk->_pre_rate_change_callback);
2010f91e:	fdc42783          	lw	a5,-36(s0)
2010f922:	43dc                	lw	a5,4(a5)
2010f924:	853e                	mv	a0,a5
2010f926:	f2dff0ef          	jal	2010f852 <_metal_clock_call_all_callbacks>
C:/VSD_Sqd_Project/sifive_hifive1_BitNet_MNIST_App/freedom-metal/metal/clock.h:131

    long out = clk->vtable->set_rate_hz(clk, hz);
2010f92a:	fdc42783          	lw	a5,-36(s0)
2010f92e:	439c                	lw	a5,0(a5)
2010f930:	43dc                	lw	a5,4(a5)
2010f932:	fd842583          	lw	a1,-40(s0)
2010f936:	fdc42503          	lw	a0,-36(s0)
2010f93a:	9782                	jalr	a5
2010f93c:	fea42623          	sw	a0,-20(s0)
C:/VSD_Sqd_Project/sifive_hifive1_BitNet_MNIST_App/freedom-metal/metal/clock.h:133

    _metal_clock_call_all_callbacks(clk->_post_rate_change_callback);
2010f940:	fdc42783          	lw	a5,-36(s0)
2010f944:	479c                	lw	a5,8(a5)
2010f946:	853e                	mv	a0,a5
2010f948:	f0bff0ef          	jal	2010f852 <_metal_clock_call_all_callbacks>
C:/VSD_Sqd_Project/sifive_hifive1_BitNet_MNIST_App/freedom-metal/metal/clock.h:135

    return out;
2010f94c:	fec42783          	lw	a5,-20(s0)
C:/VSD_Sqd_Project/sifive_hifive1_BitNet_MNIST_App/freedom-metal/metal/clock.h:136
}
2010f950:	853e                	mv	a0,a5
2010f952:	50b2                	lw	ra,44(sp)
2010f954:	5422                	lw	s0,40(sp)
2010f956:	6145                	add	sp,sp,48
2010f958:	8082                	ret

2010f95a <metal_clock_register_pre_rate_change_callback>:
metal_clock_register_pre_rate_change_callback():
C:/VSD_Sqd_Project/sifive_hifive1_BitNet_MNIST_App/freedom-metal/metal/clock.h:146
 * @param clk The handle for the clock
 * @param cb The callback to be registered
 */
__inline__ void
metal_clock_register_pre_rate_change_callback(struct metal_clock *clk,
                                              metal_clock_callback *cb) {
2010f95a:	1101                	add	sp,sp,-32
2010f95c:	ce06                	sw	ra,28(sp)
2010f95e:	cc22                	sw	s0,24(sp)
2010f960:	1000                	add	s0,sp,32
2010f962:	fea42623          	sw	a0,-20(s0)
2010f966:	feb42423          	sw	a1,-24(s0)
C:/VSD_Sqd_Project/sifive_hifive1_BitNet_MNIST_App/freedom-metal/metal/clock.h:148
    clk->_pre_rate_change_callback =
        _metal_clock_append_to_callbacks(clk->_pre_rate_change_callback, cb);
2010f96a:	fec42783          	lw	a5,-20(s0)
2010f96e:	43dc                	lw	a5,4(a5)
2010f970:	fe842583          	lw	a1,-24(s0)
2010f974:	853e                	mv	a0,a5
2010f976:	f1fff0ef          	jal	2010f894 <_metal_clock_append_to_callbacks>
2010f97a:	872a                	mv	a4,a0
C:/VSD_Sqd_Project/sifive_hifive1_BitNet_MNIST_App/freedom-metal/metal/clock.h:147
    clk->_pre_rate_change_callback =
2010f97c:	fec42783          	lw	a5,-20(s0)
2010f980:	c3d8                	sw	a4,4(a5)
C:/VSD_Sqd_Project/sifive_hifive1_BitNet_MNIST_App/freedom-metal/metal/clock.h:149
}
2010f982:	0001                	nop
2010f984:	40f2                	lw	ra,28(sp)
2010f986:	4462                	lw	s0,24(sp)
2010f988:	6105                	add	sp,sp,32
2010f98a:	8082                	ret

2010f98c <metal_clock_register_post_rate_change_callback>:
metal_clock_register_post_rate_change_callback():
C:/VSD_Sqd_Project/sifive_hifive1_BitNet_MNIST_App/freedom-metal/metal/clock.h:159
 * @param clk The handle for the clock
 * @param cb The callback to be registered
 */
__inline__ void
metal_clock_register_post_rate_change_callback(struct metal_clock *clk,
                                               metal_clock_callback *cb) {
2010f98c:	1101                	add	sp,sp,-32
2010f98e:	ce06                	sw	ra,28(sp)
2010f990:	cc22                	sw	s0,24(sp)
2010f992:	1000                	add	s0,sp,32
2010f994:	fea42623          	sw	a0,-20(s0)
2010f998:	feb42423          	sw	a1,-24(s0)
C:/VSD_Sqd_Project/sifive_hifive1_BitNet_MNIST_App/freedom-metal/metal/clock.h:161
    clk->_post_rate_change_callback =
        _metal_clock_append_to_callbacks(clk->_post_rate_change_callback, cb);
2010f99c:	fec42783          	lw	a5,-20(s0)
2010f9a0:	479c                	lw	a5,8(a5)
2010f9a2:	fe842583          	lw	a1,-24(s0)
2010f9a6:	853e                	mv	a0,a5
2010f9a8:	eedff0ef          	jal	2010f894 <_metal_clock_append_to_callbacks>
2010f9ac:	872a                	mv	a4,a0
C:/VSD_Sqd_Project/sifive_hifive1_BitNet_MNIST_App/freedom-metal/metal/clock.h:160
    clk->_post_rate_change_callback =
2010f9ae:	fec42783          	lw	a5,-20(s0)
2010f9b2:	c798                	sw	a4,8(a5)
C:/VSD_Sqd_Project/sifive_hifive1_BitNet_MNIST_App/freedom-metal/metal/clock.h:162
}
2010f9b4:	0001                	nop
2010f9b6:	40f2                	lw	ra,28(sp)
2010f9b8:	4462                	lw	s0,24(sp)
2010f9ba:	6105                	add	sp,sp,32
2010f9bc:	8082                	ret

2010f9be <metal_cpu_interrupt_controller>:
metal_cpu_interrupt_controller():
C:/VSD_Sqd_Project/sifive_hifive1_BitNet_MNIST_App/freedom-metal/metal/cpu.h:224
 *
 * @param cpu The CPU device handle
 * @return The handle for the CPU interrupt controller
 */
__inline__ struct metal_interrupt *
metal_cpu_interrupt_controller(struct metal_cpu *cpu) {
2010f9be:	1101                	add	sp,sp,-32
2010f9c0:	ce06                	sw	ra,28(sp)
2010f9c2:	cc22                	sw	s0,24(sp)
2010f9c4:	1000                	add	s0,sp,32
2010f9c6:	fea42623          	sw	a0,-20(s0)
C:/VSD_Sqd_Project/sifive_hifive1_BitNet_MNIST_App/freedom-metal/metal/cpu.h:225
    return cpu->vtable->controller_interrupt(cpu);
2010f9ca:	fec42783          	lw	a5,-20(s0)
2010f9ce:	439c                	lw	a5,0(a5)
2010f9d0:	57dc                	lw	a5,44(a5)
2010f9d2:	fec42503          	lw	a0,-20(s0)
2010f9d6:	9782                	jalr	a5
2010f9d8:	87aa                	mv	a5,a0
C:/VSD_Sqd_Project/sifive_hifive1_BitNet_MNIST_App/freedom-metal/metal/cpu.h:226
}
2010f9da:	853e                	mv	a0,a5
2010f9dc:	40f2                	lw	ra,28(sp)
2010f9de:	4462                	lw	s0,24(sp)
2010f9e0:	6105                	add	sp,sp,32
2010f9e2:	8082                	ret

2010f9e4 <metal_cpu_get>:
metal_cpu_get():
C:/VSD_Sqd_Project/sifive_hifive1_BitNet_MNIST_App/freedom-metal/src/cpu.c:7
/* SPDX-License-Identifier: Apache-2.0 */

#include <metal/cpu.h>
#include <metal/machine.h>

struct metal_cpu *metal_cpu_get(unsigned int hartid) {
2010f9e4:	1101                	add	sp,sp,-32
2010f9e6:	ce22                	sw	s0,28(sp)
2010f9e8:	1000                	add	s0,sp,32
2010f9ea:	fea42623          	sw	a0,-20(s0)
C:/VSD_Sqd_Project/sifive_hifive1_BitNet_MNIST_App/freedom-metal/src/cpu.c:8
    if (hartid < __METAL_DT_MAX_HARTS) {
2010f9ee:	fec42783          	lw	a5,-20(s0)
2010f9f2:	eb99                	bnez	a5,2010fa08 <metal_cpu_get+0x24>
C:/VSD_Sqd_Project/sifive_hifive1_BitNet_MNIST_App/freedom-metal/src/cpu.c:9
        return (struct metal_cpu *)__metal_cpu_table[hartid];
2010f9f4:	800017b7          	lui	a5,0x80001
2010f9f8:	fec42703          	lw	a4,-20(s0)
2010f9fc:	070a                	sll	a4,a4,0x2
2010f9fe:	a7878793          	add	a5,a5,-1416 # 80000a78 <__metal_cpu_table>
2010fa02:	97ba                	add	a5,a5,a4
2010fa04:	439c                	lw	a5,0(a5)
2010fa06:	a011                	j	2010fa0a <metal_cpu_get+0x26>
C:/VSD_Sqd_Project/sifive_hifive1_BitNet_MNIST_App/freedom-metal/src/cpu.c:11
    }
    return NULL;
2010fa08:	4781                	li	a5,0
C:/VSD_Sqd_Project/sifive_hifive1_BitNet_MNIST_App/freedom-metal/src/cpu.c:12
}
2010fa0a:	853e                	mv	a0,a5
2010fa0c:	4472                	lw	s0,28(sp)
2010fa0e:	6105                	add	sp,sp,32
2010fa10:	8082                	ret

2010fa12 <metal_cpu_get_current_hartid>:
metal_cpu_get_current_hartid():
C:/VSD_Sqd_Project/sifive_hifive1_BitNet_MNIST_App/freedom-metal/src/cpu.c:14

int metal_cpu_get_current_hartid() {
2010fa12:	1101                	add	sp,sp,-32
2010fa14:	ce22                	sw	s0,28(sp)
2010fa16:	1000                	add	s0,sp,32
C:/VSD_Sqd_Project/sifive_hifive1_BitNet_MNIST_App/freedom-metal/src/cpu.c:17
#ifdef __riscv
    int mhartid;
    __asm__ volatile("csrr %0, mhartid" : "=r"(mhartid));
2010fa18:	f14027f3          	csrr	a5,mhartid
2010fa1c:	fef42623          	sw	a5,-20(s0)
C:/VSD_Sqd_Project/sifive_hifive1_BitNet_MNIST_App/freedom-metal/src/cpu.c:18
    return mhartid;
2010fa20:	fec42783          	lw	a5,-20(s0)
C:/VSD_Sqd_Project/sifive_hifive1_BitNet_MNIST_App/freedom-metal/src/cpu.c:20
#endif
}
2010fa24:	853e                	mv	a0,a5
2010fa26:	4472                	lw	s0,28(sp)
2010fa28:	6105                	add	sp,sp,32
2010fa2a:	8082                	ret

2010fa2c <metal_shutdown>:
metal_shutdown():
C:/VSD_Sqd_Project/sifive_hifive1_BitNet_MNIST_App/freedom-metal/src/shutdown.c:17
    __metal_shutdown_exit(__METAL_DT_SHUTDOWN_HANDLE, code);
}
#else
#pragma message(                                                               \
    "There is no defined shutdown mechanism, metal_shutdown() will spin.")
void metal_shutdown(int code) {
2010fa2c:	1101                	add	sp,sp,-32
2010fa2e:	ce22                	sw	s0,28(sp)
2010fa30:	1000                	add	s0,sp,32
2010fa32:	fea42623          	sw	a0,-20(s0)
C:/VSD_Sqd_Project/sifive_hifive1_BitNet_MNIST_App/freedom-metal/src/shutdown.c:19 (discriminator 1)
    while (1) {
        __asm__ volatile("nop");
2010fa36:	0001                	nop
C:/VSD_Sqd_Project/sifive_hifive1_BitNet_MNIST_App/freedom-metal/src/shutdown.c:19
2010fa38:	bffd                	j	2010fa36 <metal_shutdown+0xa>
	...

2010fa80 <__metal_vector_table>:
IRQ_0():
C:/VSD_Sqd_Project/sifive_hifive1_BitNet_MNIST_App/freedom-metal/src/vector.S:76
#endif
.option norvc
.global __metal_vector_table
__metal_vector_table:
IRQ_0:
        j metal_interrupt_vector_handler
2010fa80:	c6efc06f          	j	2010beee <metal_interrupt_vector_handler>

2010fa84 <IRQ_1>:
IRQ_1():
C:/VSD_Sqd_Project/sifive_hifive1_BitNet_MNIST_App/freedom-metal/src/vector.S:78
IRQ_1:
        j metal_interrupt_vector_handler
2010fa84:	c6afc06f          	j	2010beee <metal_interrupt_vector_handler>

2010fa88 <IRQ_2>:
IRQ_2():
C:/VSD_Sqd_Project/sifive_hifive1_BitNet_MNIST_App/freedom-metal/src/vector.S:80
IRQ_2:
        j metal_interrupt_vector_handler
2010fa88:	c66fc06f          	j	2010beee <metal_interrupt_vector_handler>

2010fa8c <IRQ_3>:
IRQ_3():
C:/VSD_Sqd_Project/sifive_hifive1_BitNet_MNIST_App/freedom-metal/src/vector.S:82
IRQ_3:
        j metal_software_interrupt_vector_handler
2010fa8c:	c90fc06f          	j	2010bf1c <metal_software_interrupt_vector_handler>

2010fa90 <IRQ_4>:
IRQ_4():
C:/VSD_Sqd_Project/sifive_hifive1_BitNet_MNIST_App/freedom-metal/src/vector.S:84
IRQ_4:
        j metal_interrupt_vector_handler
2010fa90:	c5efc06f          	j	2010beee <metal_interrupt_vector_handler>

2010fa94 <IRQ_5>:
IRQ_5():
C:/VSD_Sqd_Project/sifive_hifive1_BitNet_MNIST_App/freedom-metal/src/vector.S:86
IRQ_5:
        j metal_interrupt_vector_handler
2010fa94:	c5afc06f          	j	2010beee <metal_interrupt_vector_handler>

2010fa98 <IRQ_6>:
IRQ_6():
C:/VSD_Sqd_Project/sifive_hifive1_BitNet_MNIST_App/freedom-metal/src/vector.S:88
IRQ_6:
        j metal_interrupt_vector_handler
2010fa98:	c56fc06f          	j	2010beee <metal_interrupt_vector_handler>

2010fa9c <IRQ_7>:
IRQ_7():
C:/VSD_Sqd_Project/sifive_hifive1_BitNet_MNIST_App/freedom-metal/src/vector.S:90
IRQ_7:
        j metal_timer_interrupt_vector_handler
2010fa9c:	d7afc06f          	j	2010c016 <metal_timer_interrupt_vector_handler>

2010faa0 <IRQ_8>:
IRQ_8():
C:/VSD_Sqd_Project/sifive_hifive1_BitNet_MNIST_App/freedom-metal/src/vector.S:92
IRQ_8:
        j metal_interrupt_vector_handler
2010faa0:	c4efc06f          	j	2010beee <metal_interrupt_vector_handler>

2010faa4 <IRQ_9>:
IRQ_9():
C:/VSD_Sqd_Project/sifive_hifive1_BitNet_MNIST_App/freedom-metal/src/vector.S:94
IRQ_9:
        j metal_interrupt_vector_handler
2010faa4:	c4afc06f          	j	2010beee <metal_interrupt_vector_handler>

2010faa8 <IRQ_10>:
IRQ_10():
C:/VSD_Sqd_Project/sifive_hifive1_BitNet_MNIST_App/freedom-metal/src/vector.S:96
IRQ_10:
        j metal_interrupt_vector_handler
2010faa8:	c46fc06f          	j	2010beee <metal_interrupt_vector_handler>

2010faac <IRQ_11>:
IRQ_11():
C:/VSD_Sqd_Project/sifive_hifive1_BitNet_MNIST_App/freedom-metal/src/vector.S:98
IRQ_11:
        j metal_interrupt_vector_handler
2010faac:	c42fc06f          	j	2010beee <metal_interrupt_vector_handler>

2010fab0 <IRQ_12>:
IRQ_12():
C:/VSD_Sqd_Project/sifive_hifive1_BitNet_MNIST_App/freedom-metal/src/vector.S:100
IRQ_12:
        j metal_interrupt_vector_handler
2010fab0:	c3efc06f          	j	2010beee <metal_interrupt_vector_handler>

2010fab4 <IRQ_13>:
IRQ_13():
C:/VSD_Sqd_Project/sifive_hifive1_BitNet_MNIST_App/freedom-metal/src/vector.S:102
IRQ_13:
        j metal_interrupt_vector_handler
2010fab4:	c3afc06f          	j	2010beee <metal_interrupt_vector_handler>

2010fab8 <IRQ_14>:
IRQ_14():
C:/VSD_Sqd_Project/sifive_hifive1_BitNet_MNIST_App/freedom-metal/src/vector.S:104
IRQ_14:
        j metal_interrupt_vector_handler
2010fab8:	c36fc06f          	j	2010beee <metal_interrupt_vector_handler>

2010fabc <IRQ_15>:
IRQ_15():
C:/VSD_Sqd_Project/sifive_hifive1_BitNet_MNIST_App/freedom-metal/src/vector.S:106
IRQ_15:
        j metal_interrupt_vector_handler
2010fabc:	c32fc06f          	j	2010beee <metal_interrupt_vector_handler>

2010fac0 <IRQ_LC0>:
IRQ_LC0():
C:/VSD_Sqd_Project/sifive_hifive1_BitNet_MNIST_App/freedom-metal/src/vector.S:108
IRQ_LC0:
        j metal_lc0_interrupt_vector_handler
2010fac0:	8bbfc06f          	j	2010c37a <metal_lc0_interrupt_vector_handler>

2010fac4 <IRQ_LC1>:
IRQ_LC1():
C:/VSD_Sqd_Project/sifive_hifive1_BitNet_MNIST_App/freedom-metal/src/vector.S:110
IRQ_LC1:
        j metal_lc1_interrupt_vector_handler
2010fac4:	94dfc06f          	j	2010c410 <metal_lc1_interrupt_vector_handler>

2010fac8 <IRQ_LC2>:
IRQ_LC2():
C:/VSD_Sqd_Project/sifive_hifive1_BitNet_MNIST_App/freedom-metal/src/vector.S:112
IRQ_LC2:
        j metal_lc2_interrupt_vector_handler
2010fac8:	9dffc06f          	j	2010c4a6 <metal_lc2_interrupt_vector_handler>

2010facc <IRQ_LC3>:
IRQ_LC3():
C:/VSD_Sqd_Project/sifive_hifive1_BitNet_MNIST_App/freedom-metal/src/vector.S:114
IRQ_LC3:
        j metal_lc3_interrupt_vector_handler
2010facc:	a71fc06f          	j	2010c53c <metal_lc3_interrupt_vector_handler>

2010fad0 <IRQ_LC4>:
IRQ_LC4():
C:/VSD_Sqd_Project/sifive_hifive1_BitNet_MNIST_App/freedom-metal/src/vector.S:116
IRQ_LC4:
        j metal_lc4_interrupt_vector_handler
2010fad0:	b03fc06f          	j	2010c5d2 <metal_lc4_interrupt_vector_handler>

2010fad4 <IRQ_LC5>:
IRQ_LC5():
C:/VSD_Sqd_Project/sifive_hifive1_BitNet_MNIST_App/freedom-metal/src/vector.S:118
IRQ_LC5:
        j metal_lc5_interrupt_vector_handler
2010fad4:	b95fc06f          	j	2010c668 <metal_lc5_interrupt_vector_handler>

2010fad8 <IRQ_LC6>:
IRQ_LC6():
C:/VSD_Sqd_Project/sifive_hifive1_BitNet_MNIST_App/freedom-metal/src/vector.S:120
IRQ_LC6:
        j metal_lc6_interrupt_vector_handler
2010fad8:	c27fc06f          	j	2010c6fe <metal_lc6_interrupt_vector_handler>

2010fadc <IRQ_LC7>:
IRQ_LC7():
C:/VSD_Sqd_Project/sifive_hifive1_BitNet_MNIST_App/freedom-metal/src/vector.S:122
IRQ_LC7:
        j metal_lc7_interrupt_vector_handler
2010fadc:	cb9fc06f          	j	2010c794 <metal_lc7_interrupt_vector_handler>

2010fae0 <IRQ_LC8>:
IRQ_LC8():
C:/VSD_Sqd_Project/sifive_hifive1_BitNet_MNIST_App/freedom-metal/src/vector.S:124
IRQ_LC8:
        j metal_lc8_interrupt_vector_handler
2010fae0:	d4bfc06f          	j	2010c82a <metal_lc8_interrupt_vector_handler>

2010fae4 <IRQ_LC9>:
IRQ_LC9():
C:/VSD_Sqd_Project/sifive_hifive1_BitNet_MNIST_App/freedom-metal/src/vector.S:126
IRQ_LC9:
        j metal_lc9_interrupt_vector_handler
2010fae4:	dddfc06f          	j	2010c8c0 <metal_lc9_interrupt_vector_handler>

2010fae8 <IRQ_LC10>:
IRQ_LC10():
C:/VSD_Sqd_Project/sifive_hifive1_BitNet_MNIST_App/freedom-metal/src/vector.S:128
IRQ_LC10:
        j metal_lc10_interrupt_vector_handler
2010fae8:	e6ffc06f          	j	2010c956 <metal_lc10_interrupt_vector_handler>

2010faec <IRQ_LC11>:
IRQ_LC11():
C:/VSD_Sqd_Project/sifive_hifive1_BitNet_MNIST_App/freedom-metal/src/vector.S:130
IRQ_LC11:
        j metal_lc11_interrupt_vector_handler
2010faec:	f01fc06f          	j	2010c9ec <metal_lc11_interrupt_vector_handler>

2010faf0 <IRQ_LC12>:
IRQ_LC12():
C:/VSD_Sqd_Project/sifive_hifive1_BitNet_MNIST_App/freedom-metal/src/vector.S:132
IRQ_LC12:
        j metal_lc12_interrupt_vector_handler
2010faf0:	f93fc06f          	j	2010ca82 <metal_lc12_interrupt_vector_handler>

2010faf4 <IRQ_LC13>:
IRQ_LC13():
C:/VSD_Sqd_Project/sifive_hifive1_BitNet_MNIST_App/freedom-metal/src/vector.S:134
IRQ_LC13:
        j metal_lc13_interrupt_vector_handler
2010faf4:	824fd06f          	j	2010cb18 <metal_lc13_interrupt_vector_handler>

2010faf8 <IRQ_LC14>:
IRQ_LC14():
C:/VSD_Sqd_Project/sifive_hifive1_BitNet_MNIST_App/freedom-metal/src/vector.S:136
IRQ_LC14:
        j metal_lc14_interrupt_vector_handler
2010faf8:	8b6fd06f          	j	2010cbae <metal_lc14_interrupt_vector_handler>

2010fafc <IRQ_LC15>:
IRQ_LC15():
C:/VSD_Sqd_Project/sifive_hifive1_BitNet_MNIST_App/freedom-metal/src/vector.S:138
IRQ_LC15:
        j metal_lc15_interrupt_vector_handler
2010fafc:	948fd06f          	j	2010cc44 <metal_lc15_interrupt_vector_handler>

2010fb00 <__metal_driver_fixed_clock_rate>:
__metal_driver_fixed_clock_rate():
C:\VSD_Sqd_Project\sifive_hifive1_BitNet_MNIST_App\bsp\build\debug/./metal/machine.h:186
{
2010fb00:	1101                	add	sp,sp,-32
2010fb02:	ce22                	sw	s0,28(sp)
2010fb04:	1000                	add	s0,sp,32
2010fb06:	fea42623          	sw	a0,-20(s0)
C:\VSD_Sqd_Project\sifive_hifive1_BitNet_MNIST_App\bsp\build\debug/./metal/machine.h:187
	if ((uintptr_t)clock == (uintptr_t)&__metal_dt_clock_0) {
2010fb0a:	fec42703          	lw	a4,-20(s0)
2010fb0e:	800007b7          	lui	a5,0x80000
2010fb12:	05878793          	add	a5,a5,88 # 80000058 <__metal_dt_clock_0>
2010fb16:	00f71763          	bne	a4,a5,2010fb24 <__metal_driver_fixed_clock_rate+0x24>
C:\VSD_Sqd_Project\sifive_hifive1_BitNet_MNIST_App\bsp\build\debug/./metal/machine.h:188
		return METAL_FIXED_CLOCK_0_CLOCK_0_CLOCK_FREQUENCY;
2010fb1a:	00f427b7          	lui	a5,0xf42
2010fb1e:	40078793          	add	a5,a5,1024 # f42400 <__heap_size+0xf41c00>
2010fb22:	a825                	j	2010fb5a <__metal_driver_fixed_clock_rate+0x5a>
C:\VSD_Sqd_Project\sifive_hifive1_BitNet_MNIST_App\bsp\build\debug/./metal/machine.h:190
	else if ((uintptr_t)clock == (uintptr_t)&__metal_dt_clock_2) {
2010fb24:	fec42703          	lw	a4,-20(s0)
2010fb28:	800007b7          	lui	a5,0x80000
2010fb2c:	06478793          	add	a5,a5,100 # 80000064 <__metal_dt_clock_2>
2010fb30:	00f71763          	bne	a4,a5,2010fb3e <__metal_driver_fixed_clock_rate+0x3e>
C:\VSD_Sqd_Project\sifive_hifive1_BitNet_MNIST_App\bsp\build\debug/./metal/machine.h:191
		return METAL_FIXED_CLOCK_2_CLOCK_2_CLOCK_FREQUENCY;
2010fb34:	044aa7b7          	lui	a5,0x44aa
2010fb38:	20078793          	add	a5,a5,512 # 44aa200 <__heap_size+0x44a9a00>
2010fb3c:	a839                	j	2010fb5a <__metal_driver_fixed_clock_rate+0x5a>
C:\VSD_Sqd_Project\sifive_hifive1_BitNet_MNIST_App\bsp\build\debug/./metal/machine.h:193
	else if ((uintptr_t)clock == (uintptr_t)&__metal_dt_clock_5) {
2010fb3e:	fec42703          	lw	a4,-20(s0)
2010fb42:	800007b7          	lui	a5,0x80000
2010fb46:	07078793          	add	a5,a5,112 # 80000070 <__metal_dt_clock_5>
2010fb4a:	00f71763          	bne	a4,a5,2010fb58 <__metal_driver_fixed_clock_rate+0x58>
C:\VSD_Sqd_Project\sifive_hifive1_BitNet_MNIST_App\bsp\build\debug/./metal/machine.h:194
		return METAL_FIXED_CLOCK_5_CLOCK_5_CLOCK_FREQUENCY;
2010fb4e:	01e857b7          	lui	a5,0x1e85
2010fb52:	80078793          	add	a5,a5,-2048 # 1e84800 <__heap_size+0x1e84000>
2010fb56:	a011                	j	2010fb5a <__metal_driver_fixed_clock_rate+0x5a>
C:\VSD_Sqd_Project\sifive_hifive1_BitNet_MNIST_App\bsp\build\debug/./metal/machine.h:197
		return 0;
2010fb58:	4781                	li	a5,0
C:\VSD_Sqd_Project\sifive_hifive1_BitNet_MNIST_App\bsp\build\debug/./metal/machine.h:199
}
2010fb5a:	853e                	mv	a0,a5
2010fb5c:	4472                	lw	s0,28(sp)
2010fb5e:	6105                	add	sp,sp,32
2010fb60:	8082                	ret

2010fb62 <__metal_driver_fixed_clock_get_rate_hz>:
__metal_driver_fixed_clock_get_rate_hz():
C:/VSD_Sqd_Project/sifive_hifive1_BitNet_MNIST_App/freedom-metal/src/drivers/fixed-clock.c:12

#include <metal/drivers/fixed-clock.h>
#include <metal/machine.h>
#include <stddef.h>

long __metal_driver_fixed_clock_get_rate_hz(const struct metal_clock *gclk) {
2010fb62:	1101                	add	sp,sp,-32
2010fb64:	ce06                	sw	ra,28(sp)
2010fb66:	cc22                	sw	s0,24(sp)
2010fb68:	1000                	add	s0,sp,32
2010fb6a:	fea42623          	sw	a0,-20(s0)
C:/VSD_Sqd_Project/sifive_hifive1_BitNet_MNIST_App/freedom-metal/src/drivers/fixed-clock.c:13
    return __metal_driver_fixed_clock_rate(gclk);
2010fb6e:	fec42503          	lw	a0,-20(s0)
2010fb72:	3779                	jal	2010fb00 <__metal_driver_fixed_clock_rate>
2010fb74:	87aa                	mv	a5,a0
C:/VSD_Sqd_Project/sifive_hifive1_BitNet_MNIST_App/freedom-metal/src/drivers/fixed-clock.c:14
}
2010fb76:	853e                	mv	a0,a5
2010fb78:	40f2                	lw	ra,28(sp)
2010fb7a:	4462                	lw	s0,24(sp)
2010fb7c:	6105                	add	sp,sp,32
2010fb7e:	8082                	ret

2010fb80 <__metal_driver_fixed_clock_set_rate_hz>:
__metal_driver_fixed_clock_set_rate_hz():
C:/VSD_Sqd_Project/sifive_hifive1_BitNet_MNIST_App/freedom-metal/src/drivers/fixed-clock.c:17

long __metal_driver_fixed_clock_set_rate_hz(struct metal_clock *gclk,
                                            long target_hz) {
2010fb80:	1101                	add	sp,sp,-32
2010fb82:	ce06                	sw	ra,28(sp)
2010fb84:	cc22                	sw	s0,24(sp)
2010fb86:	1000                	add	s0,sp,32
2010fb88:	fea42623          	sw	a0,-20(s0)
2010fb8c:	feb42423          	sw	a1,-24(s0)
C:/VSD_Sqd_Project/sifive_hifive1_BitNet_MNIST_App/freedom-metal/src/drivers/fixed-clock.c:18
    return __metal_driver_fixed_clock_get_rate_hz(gclk);
2010fb90:	fec42503          	lw	a0,-20(s0)
2010fb94:	37f9                	jal	2010fb62 <__metal_driver_fixed_clock_get_rate_hz>
2010fb96:	87aa                	mv	a5,a0
C:/VSD_Sqd_Project/sifive_hifive1_BitNet_MNIST_App/freedom-metal/src/drivers/fixed-clock.c:19
}
2010fb98:	853e                	mv	a0,a5
2010fb9a:	40f2                	lw	ra,28(sp)
2010fb9c:	4462                	lw	s0,24(sp)
2010fb9e:	6105                	add	sp,sp,32
2010fba0:	8082                	ret

2010fba2 <_exit>:
_exit():
C:/VSD_Sqd_Project/sifive_hifive1_BitNet_MNIST_App/freedom-metal/gloss/sys_exit.c:3
#include <metal/shutdown.h>

void _exit(int exit_status) {
2010fba2:	1101                	add	sp,sp,-32
2010fba4:	ce06                	sw	ra,28(sp)
2010fba6:	cc22                	sw	s0,24(sp)
2010fba8:	1000                	add	s0,sp,32
2010fbaa:	fea42623          	sw	a0,-20(s0)
C:/VSD_Sqd_Project/sifive_hifive1_BitNet_MNIST_App/freedom-metal/gloss/sys_exit.c:4
    metal_shutdown(exit_status);
2010fbae:	fec42503          	lw	a0,-20(s0)
2010fbb2:	e7bff0ef          	jal	2010fa2c <metal_shutdown>
